
AVR64dd32 meteorologine stotele v3.elf:     file format elf32-avr

Sections:
Idx Name          Size      VMA       LMA       File off  Algn
  0 .data         00000852  00806000  000059cc  00005a60  2**0
                  CONTENTS, ALLOC, LOAD, DATA
  1 .text         000059cc  00000000  00000000  00000094  2**1
                  CONTENTS, ALLOC, LOAD, READONLY, CODE
  2 .bss          00000072  00806852  00806852  000062b2  2**0
                  ALLOC
  3 .comment      0000005c  00000000  00000000  000062b2  2**0
                  CONTENTS, READONLY
  4 .note.gnu.avr.deviceinfo 0000003c  00000000  00000000  00006310  2**2
                  CONTENTS, READONLY
  5 .debug_aranges 00000490  00000000  00000000  00006350  2**3
                  CONTENTS, READONLY, DEBUGGING
  6 .debug_info   000082c2  00000000  00000000  000067e0  2**0
                  CONTENTS, READONLY, DEBUGGING
  7 .debug_abbrev 000039d4  00000000  00000000  0000eaa2  2**0
                  CONTENTS, READONLY, DEBUGGING
  8 .debug_line   00005b06  00000000  00000000  00012476  2**0
                  CONTENTS, READONLY, DEBUGGING
  9 .debug_frame  00001428  00000000  00000000  00017f7c  2**2
                  CONTENTS, READONLY, DEBUGGING
 10 .debug_str    0001a76e  00000000  00000000  000193a4  2**0
                  CONTENTS, READONLY, DEBUGGING
 11 .debug_loc    00005b4f  00000000  00000000  00033b12  2**0
                  CONTENTS, READONLY, DEBUGGING
 12 .debug_ranges 00000418  00000000  00000000  00039661  2**0
                  CONTENTS, READONLY, DEBUGGING
 13 .debug_macro  000085c5  00000000  00000000  00039a79  2**0
                  CONTENTS, READONLY, DEBUGGING

Disassembly of section .text:

00000000 <__vectors>:
       0:	0c 94 55 01 	jmp	0x2aa	; 0x2aa <__ctors_end>
       4:	0c 94 72 01 	jmp	0x2e4	; 0x2e4 <__bad_interrupt>
       8:	0c 94 72 01 	jmp	0x2e4	; 0x2e4 <__bad_interrupt>
       c:	0c 94 72 01 	jmp	0x2e4	; 0x2e4 <__bad_interrupt>
      10:	0c 94 72 01 	jmp	0x2e4	; 0x2e4 <__bad_interrupt>
      14:	0c 94 72 01 	jmp	0x2e4	; 0x2e4 <__bad_interrupt>
      18:	0c 94 72 01 	jmp	0x2e4	; 0x2e4 <__bad_interrupt>
      1c:	0c 94 72 01 	jmp	0x2e4	; 0x2e4 <__bad_interrupt>
      20:	0c 94 72 01 	jmp	0x2e4	; 0x2e4 <__bad_interrupt>
      24:	0c 94 72 01 	jmp	0x2e4	; 0x2e4 <__bad_interrupt>
      28:	0c 94 72 01 	jmp	0x2e4	; 0x2e4 <__bad_interrupt>
      2c:	0c 94 72 01 	jmp	0x2e4	; 0x2e4 <__bad_interrupt>
      30:	0c 94 72 01 	jmp	0x2e4	; 0x2e4 <__bad_interrupt>
      34:	0c 94 72 01 	jmp	0x2e4	; 0x2e4 <__bad_interrupt>
      38:	0c 94 72 01 	jmp	0x2e4	; 0x2e4 <__bad_interrupt>
      3c:	0c 94 72 01 	jmp	0x2e4	; 0x2e4 <__bad_interrupt>
      40:	0c 94 72 01 	jmp	0x2e4	; 0x2e4 <__bad_interrupt>
      44:	0c 94 72 01 	jmp	0x2e4	; 0x2e4 <__bad_interrupt>
      48:	0c 94 72 01 	jmp	0x2e4	; 0x2e4 <__bad_interrupt>
      4c:	0c 94 72 01 	jmp	0x2e4	; 0x2e4 <__bad_interrupt>
      50:	0c 94 72 01 	jmp	0x2e4	; 0x2e4 <__bad_interrupt>
      54:	0c 94 72 01 	jmp	0x2e4	; 0x2e4 <__bad_interrupt>
      58:	0c 94 72 01 	jmp	0x2e4	; 0x2e4 <__bad_interrupt>
      5c:	0c 94 72 01 	jmp	0x2e4	; 0x2e4 <__bad_interrupt>
      60:	0c 94 72 01 	jmp	0x2e4	; 0x2e4 <__bad_interrupt>
      64:	0c 94 72 01 	jmp	0x2e4	; 0x2e4 <__bad_interrupt>
      68:	0c 94 72 01 	jmp	0x2e4	; 0x2e4 <__bad_interrupt>
      6c:	0c 94 72 01 	jmp	0x2e4	; 0x2e4 <__bad_interrupt>
      70:	0c 94 72 01 	jmp	0x2e4	; 0x2e4 <__bad_interrupt>
      74:	0c 94 72 01 	jmp	0x2e4	; 0x2e4 <__bad_interrupt>
      78:	0c 94 72 01 	jmp	0x2e4	; 0x2e4 <__bad_interrupt>
      7c:	0c 94 72 01 	jmp	0x2e4	; 0x2e4 <__bad_interrupt>
      80:	0c 94 72 01 	jmp	0x2e4	; 0x2e4 <__bad_interrupt>
      84:	0c 94 72 01 	jmp	0x2e4	; 0x2e4 <__bad_interrupt>
      88:	0c 94 72 01 	jmp	0x2e4	; 0x2e4 <__bad_interrupt>
      8c:	0c 94 72 01 	jmp	0x2e4	; 0x2e4 <__bad_interrupt>
      90:	2f 11       	cpse	r18, r15
      92:	44 11       	cpse	r20, r4
      94:	32 11       	cpse	r19, r2
      96:	35 11       	cpse	r19, r5
      98:	38 11       	cpse	r19, r8
      9a:	3b 11       	cpse	r19, r11
      9c:	3e 11       	cpse	r19, r14
      9e:	f2 12       	cpse	r15, r18
      a0:	00 13       	cpse	r16, r16
      a2:	0e 13       	cpse	r16, r30
      a4:	1c 13       	cpse	r17, r28
      a6:	25 13       	cpse	r18, r21
      a8:	33 13       	cpse	r19, r19
      aa:	3c 13       	cpse	r19, r28
      ac:	4a 13       	cpse	r20, r26
      ae:	53 13       	cpse	r21, r19
      b0:	61 13       	cpse	r22, r17
      b2:	6a 13       	cpse	r22, r26
      b4:	78 13       	cpse	r23, r24
      b6:	81 13       	cpse	r24, r17
      b8:	8f 13       	cpse	r24, r31
      ba:	07 63       	ori	r16, 0x37	; 55
      bc:	42 36       	cpi	r20, 0x62	; 98
      be:	b7 9b       	sbis	0x16, 7	; 22
      c0:	d8 a7       	std	Y+40, r29	; 0x28
      c2:	1a 39       	cpi	r17, 0x9A	; 154
      c4:	68 56       	subi	r22, 0x68	; 104
      c6:	18 ae       	std	Y+56, r1	; 0x38
      c8:	ba ab       	std	Y+50, r27	; 0x32
      ca:	55 8c       	ldd	r5, Z+29	; 0x1d
      cc:	1d 3c       	cpi	r17, 0xCD	; 205
      ce:	b7 cc       	rjmp	.-1682   	; 0xfffffa3e <__eeprom_end+0xff7efa3e>
      d0:	57 63       	ori	r21, 0x37	; 55
      d2:	bd 6d       	ori	r27, 0xDD	; 221
      d4:	ed fd       	.word	0xfded	; ????
      d6:	75 3e       	cpi	r23, 0xE5	; 229
      d8:	f6 17       	cp	r31, r22
      da:	72 31       	cpi	r23, 0x12	; 18
      dc:	bf 00       	.word	0x00bf	; ????
      de:	00 00       	nop
      e0:	80 3f       	cpi	r24, 0xF0	; 240
      e2:	08 00       	.word	0x0008	; ????
      e4:	00 00       	nop
      e6:	be 92       	st	-X, r11
      e8:	24 49       	sbci	r18, 0x94	; 148
      ea:	12 3e       	cpi	r17, 0xE2	; 226
      ec:	ab aa       	std	Y+51, r10	; 0x33
      ee:	aa 2a       	or	r10, r26
      f0:	be cd       	rjmp	.-1156   	; 0xfffffc6e <__eeprom_end+0xff7efc6e>
      f2:	cc cc       	rjmp	.-1640   	; 0xfffffa8c <__eeprom_end+0xff7efa8c>
      f4:	4c 3e       	cpi	r20, 0xEC	; 236
      f6:	00 00       	nop
      f8:	00 80       	ld	r0, Z
      fa:	be ab       	std	Y+54, r27	; 0x36
      fc:	aa aa       	std	Y+50, r10	; 0x32
      fe:	aa 3e       	cpi	r26, 0xEA	; 234
     100:	00 00       	nop
     102:	00 00       	nop
     104:	bf 00       	.word	0x00bf	; ????
     106:	00 00       	nop
     108:	80 3f       	cpi	r24, 0xF0	; 240
     10a:	00 00       	nop
     10c:	00 00       	nop
     10e:	00 08       	sbc	r0, r0
     110:	41 78       	andi	r20, 0x81	; 129
     112:	d3 bb       	out	0x13, r29	; 19
     114:	43 87       	std	Z+11, r20	; 0x0b
     116:	d1 13       	cpse	r29, r17
     118:	3d 19       	sub	r19, r13
     11a:	0e 3c       	cpi	r16, 0xCE	; 206
     11c:	c3 bd       	out	0x23, r28	; 35
     11e:	42 82       	std	Z+2, r4	; 0x02
     120:	ad 2b       	or	r26, r29
     122:	3e 68       	ori	r19, 0x8E	; 142
     124:	ec 82       	std	Y+4, r14	; 0x04
     126:	76 be       	out	0x36, r7	; 54
     128:	d9 8f       	std	Y+25, r29	; 0x19
     12a:	e1 a9       	ldd	r30, Z+49	; 0x31
     12c:	3e 4c       	sbci	r19, 0xCE	; 206
     12e:	80 ef       	ldi	r24, 0xF0	; 240
     130:	ff be       	out	0x3f, r15	; 63
     132:	01 c4       	rjmp	.+2050   	; 0x936 <CalcTrueTemp+0x1c>
     134:	ff 7f       	andi	r31, 0xFF	; 255
     136:	3f 00       	.word	0x003f	; ????
     138:	00 00       	nop
     13a:	00 00       	nop
     13c:	06 64       	ori	r16, 0x46	; 70
     13e:	ec 1b       	sub	r30, r28
     140:	3c 04       	cpc	r3, r12
     142:	bc 16       	cp	r11, r28
     144:	3e 3b       	cpi	r19, 0xBE	; 190
     146:	e5 b9       	out	0x05, r30	; 5
     148:	3c c9       	rjmp	.-3464   	; 0xfffff3c2 <__eeprom_end+0xff7ef3c2>
     14a:	3c 37       	cpi	r19, 0x7C	; 124
     14c:	c2 9e       	mul	r12, r18
     14e:	5a 3d       	cpi	r21, 0xDA	; 218
     150:	66 04       	cpc	r6, r6
     152:	98 08       	sbc	r9, r8
     154:	3e ea       	ldi	r19, 0xAE	; 174
     156:	69 aa       	std	Y+49, r6	; 0x31
     158:	aa 3e       	cpi	r26, 0xEA	; 234
     15a:	00 00       	nop
     15c:	00 80       	ld	r0, Z
     15e:	3f 00       	.word	0x003f	; ????

00000160 <__trampolines_end>:
     160:	6e 61       	ori	r22, 0x1E	; 30
     162:	6e 00       	.word	0x006e	; ????

00000164 <__c.2332>:
     164:	69 6e 66 00 00 40 7a 10 f3 5a 00 a0 72 4e 18 09     inf..@z..Z..rN..
     174:	00 10 a5 d4 e8 00 00 e8 76 48 17 00 00 e4 0b 54     ........vH.....T
     184:	02 00 00 ca 9a 3b 00 00 00 e1 f5 05 00 00 80 96     .....;..........
     194:	98 00 00 00 40 42 0f 00 00 00 a0 86 01 00 00 00     ....@B..........
     1a4:	10 27 00 00 00 00 e8 03 00 00 00 00 64 00 00 00     .'..........d...
     1b4:	00 00 0a 00 00 00 00 00 01 00 00 00 00 00 2c 76     ..............,v
     1c4:	d8 88 dc 67 4f 08 23 df c1 df ae 59 e1 b1 b7 96     ...gO.#....Y....
     1d4:	e5 e3 e4 53 c6 3a e6 51 99 76 96 e8 e6 c2 84 26     ...S.:.Q.v.....&
     1e4:	eb 89 8c 9b 62 ed 40 7c 6f fc ef bc 9c 9f 40 f2     ....b.@|o.....@.
     1f4:	ba a5 6f a5 f4 90 05 5a 2a f7 5c 93 6b 6c f9 67     ..o....Z*.\.kl.g
     204:	6d c1 1b fc e0 e4 0d 47 fe f5 20 e6 b5 00 d0 ed     m......G.. .....
     214:	90 2e 03 00 94 35 77 05 00 80 84 1e 08 00 00 20     .....5w........ 
     224:	4e 0a 00 00 00 c8 0c 33 33 33 33 0f 98 6e 12 83     N......3333..n..
     234:	11 41 ef 8d 21 14 89 3b e6 55 16 cf fe e6 db 18     .A..!..;.U......
     244:	d1 84 4b 38 1b f7 7c 1d 90 1d a4 bb e4 24 20 32     ..K8..|......$ 2
     254:	84 72 5e 22 81 00 c9 f1 24 ec a1 e5 3d 27           .r^"....$...='

00000262 <__c.2474>:
     262:	63 64 69 6e 6f 70 73 75 78 58 5b 00                 cdinopsuxX[.

0000026e <pstr_nan>:
     26e:	4e 41 4e                                            NAN

00000271 <pstr_inity>:
     271:	49 4e 49 54 59                                      INITY

00000276 <pstr_inf>:
     276:	49 4e 46                                            INF

00000279 <pwr_m10>:
     279:	cd cc cc 3d 0a d7 23 3c 17 b7 d1 38 77 cc 2b 32     ...=..#<...8w.+2
     289:	95 95 e6 24 1f b1 4f 0a                             ...$..O.

00000291 <pwr_p10>:
     291:	00 00 20 41 00 00 c8 42 00 40 1c 46 20 bc be 4c     .. A...B.@.F ..L
     2a1:	ca 1b 0e 5a ae c5 9d 74 00                          ...Z...t.

000002aa <__ctors_end>:
     2aa:	11 24       	eor	r1, r1
     2ac:	1f be       	out	0x3f, r1	; 63
     2ae:	cf ef       	ldi	r28, 0xFF	; 255
     2b0:	cd bf       	out	0x3d, r28	; 61
     2b2:	df e7       	ldi	r29, 0x7F	; 127
     2b4:	de bf       	out	0x3e, r29	; 62

000002b6 <__do_copy_data>:
     2b6:	18 e6       	ldi	r17, 0x68	; 104
     2b8:	a0 e0       	ldi	r26, 0x00	; 0
     2ba:	b0 e6       	ldi	r27, 0x60	; 96
     2bc:	ec ec       	ldi	r30, 0xCC	; 204
     2be:	f9 e5       	ldi	r31, 0x59	; 89
     2c0:	02 c0       	rjmp	.+4      	; 0x2c6 <__do_copy_data+0x10>
     2c2:	05 90       	lpm	r0, Z+
     2c4:	0d 92       	st	X+, r0
     2c6:	a2 35       	cpi	r26, 0x52	; 82
     2c8:	b1 07       	cpc	r27, r17
     2ca:	d9 f7       	brne	.-10     	; 0x2c2 <__do_copy_data+0xc>

000002cc <__do_clear_bss>:
     2cc:	28 e6       	ldi	r18, 0x68	; 104
     2ce:	a2 e5       	ldi	r26, 0x52	; 82
     2d0:	b8 e6       	ldi	r27, 0x68	; 104
     2d2:	01 c0       	rjmp	.+2      	; 0x2d6 <.do_clear_bss_start>

000002d4 <.do_clear_bss_loop>:
     2d4:	1d 92       	st	X+, r1

000002d6 <.do_clear_bss_start>:
     2d6:	a4 3c       	cpi	r26, 0xC4	; 196
     2d8:	b2 07       	cpc	r27, r18
     2da:	e1 f7       	brne	.-8      	; 0x2d4 <.do_clear_bss_loop>
     2dc:	0e 94 5a 0d 	call	0x1ab4	; 0x1ab4 <main>
     2e0:	0c 94 e4 2c 	jmp	0x59c8	; 0x59c8 <_exit>

000002e4 <__bad_interrupt>:
     2e4:	0c 94 00 00 	jmp	0	; 0x0 <__vectors>

000002e8 <ADC0_init>:
 * - Prescaler: Division by 4
 * - Resolution: 12-bit
 * - Enables the ADC.
 */
void ADC0_init() {
    ADC0.CTRLB = ADC_SAMPNUM_ACC128_gc; // 1 measurements
     2e8:	e0 e0       	ldi	r30, 0x00	; 0
     2ea:	f6 e0       	ldi	r31, 0x06	; 6
     2ec:	87 e0       	ldi	r24, 0x07	; 7
     2ee:	81 83       	std	Z+1, r24	; 0x01
    ADC0.CTRLC = ADC_PRESC_DIV4_gc; // 24Mhz / 16 ADC speed
     2f0:	81 e0       	ldi	r24, 0x01	; 1
     2f2:	82 83       	std	Z+2, r24	; 0x02
    ADC0.CTRLA = ADC_ENABLE_bm | ADC_RESSEL_12BIT_gc; // 12-bit resolution
     2f4:	80 83       	st	Z, r24
     2f6:	08 95       	ret

000002f8 <ADC0_SetupWS>:
 *
 * Configures the ADC0 reference voltage to VDD and sets the positive input
 * channel to AIN30 (PF1).
 */
void ADC0_SetupWS() {
    VREF.ADC0REF = VREF_REFSEL_VDD_gc;
     2f8:	85 e0       	ldi	r24, 0x05	; 5
     2fa:	80 93 b0 00 	sts	0x00B0, r24	; 0x8000b0 <__TEXT_REGION_LENGTH__+0x7f00b0>
    ADC0.MUXPOS = ADC_MUXPOS_AIN30_gc; // PF1 as input for WS
     2fe:	8e e1       	ldi	r24, 0x1E	; 30
     300:	80 93 08 06 	sts	0x0608, r24	; 0x800608 <__TEXT_REGION_LENGTH__+0x7f0608>
     304:	08 95       	ret

00000306 <ADC0_SetupWD>:
 *
 * Configures the ADC0 reference voltage to VDD and sets the positive input
 * channel to AIN31 (PF0).
 */
void ADC0_SetupWD() {
    VREF.ADC0REF = VREF_REFSEL_VDD_gc;
     306:	85 e0       	ldi	r24, 0x05	; 5
     308:	80 93 b0 00 	sts	0x00B0, r24	; 0x8000b0 <__TEXT_REGION_LENGTH__+0x7f00b0>
    ADC0.MUXPOS = ADC_MUXPOS_AIN31_gc; // PF0 as input for WD
     30c:	8f e1       	ldi	r24, 0x1F	; 31
     30e:	80 93 08 06 	sts	0x0608, r24	; 0x800608 <__TEXT_REGION_LENGTH__+0x7f0608>
     312:	08 95       	ret

00000314 <ADC0_SetupSLS>:
 *
 * Configures the ADC0 with a reference voltage of 1.024V and sets the positive
 * input channel to AIN26 (PA6).
 */
void ADC0_SetupSLS() {
    VREF.ADC0REF = VREF_REFSEL_1V024_gc; // 1.024V as reference voltage for SLS
     314:	10 92 b0 00 	sts	0x00B0, r1	; 0x8000b0 <__TEXT_REGION_LENGTH__+0x7f00b0>
    ADC0.MUXPOS = ADC_MUXPOS_AIN26_gc; // PA6 as input for SLS
     318:	8a e1       	ldi	r24, 0x1A	; 26
     31a:	80 93 08 06 	sts	0x0608, r24	; 0x800608 <__TEXT_REGION_LENGTH__+0x7f0608>
     31e:	08 95       	ret

00000320 <ADC0_read>:
 * appropriately.
 *
 * @return The ADC conversion result as a 12-bit value.
 */
uint16_t ADC0_read() {
    ADC0.COMMAND = ADC_STCONV_bm; // Start conversion
     320:	81 e0       	ldi	r24, 0x01	; 1
     322:	80 93 0a 06 	sts	0x060A, r24	; 0x80060a <__TEXT_REGION_LENGTH__+0x7f060a>
    while (!(ADC0.INTFLAGS & ADC_RESRDY_bm)); // Wait until result is ready
     326:	80 91 0d 06 	lds	r24, 0x060D	; 0x80060d <__TEXT_REGION_LENGTH__+0x7f060d>
     32a:	80 ff       	sbrs	r24, 0
     32c:	fc cf       	rjmp	.-8      	; 0x326 <ADC0_read+0x6>
    ADC0.INTFLAGS = ADC_RESRDY_bm; // Clear result ready flag
     32e:	e0 e0       	ldi	r30, 0x00	; 0
     330:	f6 e0       	ldi	r31, 0x06	; 6
     332:	81 e0       	ldi	r24, 0x01	; 1
     334:	85 87       	std	Z+13, r24	; 0x0d
    return ADC0.RES >> 4; // Shift result if accumulation is over 16
     336:	80 89       	ldd	r24, Z+16	; 0x10
     338:	91 89       	ldd	r25, Z+17	; 0x11
}
     33a:	92 95       	swap	r25
     33c:	82 95       	swap	r24
     33e:	8f 70       	andi	r24, 0x0F	; 15
     340:	89 27       	eor	r24, r25
     342:	9f 70       	andi	r25, 0x0F	; 15
     344:	89 27       	eor	r24, r25
     346:	08 95       	ret

00000348 <calculate_adjusted_elevation>:
 * 3. Adjusts the atmospheric pressure by subtracting the vapor pressure.
 * 4. Computes the elevation using the barometric formula.
 *
 * @return The calculated elevation in meters.
 */
double calculate_adjusted_elevation() {
     348:	4f 92       	push	r4
     34a:	5f 92       	push	r5
     34c:	6f 92       	push	r6
     34e:	7f 92       	push	r7
     350:	8f 92       	push	r8
     352:	9f 92       	push	r9
     354:	af 92       	push	r10
     356:	bf 92       	push	r11
     358:	cf 92       	push	r12
     35a:	df 92       	push	r13
     35c:	ef 92       	push	r14
     35e:	ff 92       	push	r15
     360:	cf 93       	push	r28
     362:	df 93       	push	r29
    // 1. Adjust relative humidity
    double temp_k = SHT21.T + T0; // Convert temperature to Kelvin
     364:	c8 e6       	ldi	r28, 0x68	; 104
     366:	d0 e6       	ldi	r29, 0x60	; 96
     368:	cc 80       	ldd	r12, Y+4	; 0x04
     36a:	dd 80       	ldd	r13, Y+5	; 0x05
     36c:	ee 80       	ldd	r14, Y+6	; 0x06
     36e:	ff 80       	ldd	r15, Y+7	; 0x07
     370:	23 e3       	ldi	r18, 0x33	; 51
     372:	33 e9       	ldi	r19, 0x93	; 147
     374:	48 e8       	ldi	r20, 0x88	; 136
     376:	53 e4       	ldi	r21, 0x43	; 67
     378:	c7 01       	movw	r24, r14
     37a:	b6 01       	movw	r22, r12
     37c:	0e 94 f4 1b 	call	0x37e8	; 0x37e8 <__addsf3>
     380:	2b 01       	movw	r4, r22
     382:	3c 01       	movw	r6, r24
    double es = A * exp((B * SHT21.T) / (SHT21.T + C)); // Saturation vapor pressure (hPa)
     384:	29 e2       	ldi	r18, 0x29	; 41
     386:	3c e5       	ldi	r19, 0x5C	; 92
     388:	4d e8       	ldi	r20, 0x8D	; 141
     38a:	51 e4       	ldi	r21, 0x41	; 65
     38c:	c7 01       	movw	r24, r14
     38e:	b6 01       	movw	r22, r12
     390:	0e 94 38 1f 	call	0x3e70	; 0x3e70 <__mulsf3>
     394:	4b 01       	movw	r8, r22
     396:	5c 01       	movw	r10, r24
     398:	20 e0       	ldi	r18, 0x00	; 0
     39a:	30 e8       	ldi	r19, 0x80	; 128
     39c:	43 e7       	ldi	r20, 0x73	; 115
     39e:	53 e4       	ldi	r21, 0x43	; 67
     3a0:	c7 01       	movw	r24, r14
     3a2:	b6 01       	movw	r22, r12
     3a4:	0e 94 f4 1b 	call	0x37e8	; 0x37e8 <__addsf3>
     3a8:	9b 01       	movw	r18, r22
     3aa:	ac 01       	movw	r20, r24
     3ac:	c5 01       	movw	r24, r10
     3ae:	b4 01       	movw	r22, r8
     3b0:	0e 94 65 1c 	call	0x38ca	; 0x38ca <__divsf3>
     3b4:	0e 94 df 1c 	call	0x39be	; 0x39be <exp>
     3b8:	21 e8       	ldi	r18, 0x81	; 129
     3ba:	35 e9       	ldi	r19, 0x95	; 149
     3bc:	43 ec       	ldi	r20, 0xC3	; 195
     3be:	50 e4       	ldi	r21, 0x40	; 64
     3c0:	0e 94 38 1f 	call	0x3e70	; 0x3e70 <__mulsf3>
     3c4:	6b 01       	movw	r12, r22
     3c6:	7c 01       	movw	r14, r24
    double e = es * (SHT21.RH / 100.0); // Vapor pressure (hPa)
     3c8:	68 85       	ldd	r22, Y+8	; 0x08
     3ca:	79 85       	ldd	r23, Y+9	; 0x09
     3cc:	8a 85       	ldd	r24, Y+10	; 0x0a
     3ce:	9b 85       	ldd	r25, Y+11	; 0x0b
     3d0:	20 e0       	ldi	r18, 0x00	; 0
     3d2:	30 e0       	ldi	r19, 0x00	; 0
     3d4:	48 ec       	ldi	r20, 0xC8	; 200
     3d6:	52 e4       	ldi	r21, 0x42	; 66
     3d8:	0e 94 65 1c 	call	0x38ca	; 0x38ca <__divsf3>
     3dc:	9b 01       	movw	r18, r22
     3de:	ac 01       	movw	r20, r24
     3e0:	c7 01       	movw	r24, r14
     3e2:	b6 01       	movw	r22, r12
     3e4:	0e 94 38 1f 	call	0x3e70	; 0x3e70 <__mulsf3>
     3e8:	9b 01       	movw	r18, r22
     3ea:	ac 01       	movw	r20, r24
    
    // 2. Adjust atmospheric pressure
    double adjusted_pressure = BMP280.Pressure - e; // Adjusted atmospheric pressure (hPa)
     3ec:	60 91 11 60 	lds	r22, 0x6011	; 0x806011 <BMP280+0x5>
     3f0:	70 91 12 60 	lds	r23, 0x6012	; 0x806012 <BMP280+0x6>
     3f4:	80 91 13 60 	lds	r24, 0x6013	; 0x806013 <BMP280+0x7>
     3f8:	90 91 14 60 	lds	r25, 0x6014	; 0x806014 <BMP280+0x8>
     3fc:	0e 94 f3 1b 	call	0x37e6	; 0x37e6 <__subsf3>
     400:	4b 01       	movw	r8, r22
     402:	5c 01       	movw	r10, r24

    // 3. Calculate elevation
    double elevation = (temp_k / GRAVITY) * log(SEA_LEVEL_PRESSURE / adjusted_pressure) * 
     404:	2a e0       	ldi	r18, 0x0A	; 10
     406:	38 ee       	ldi	r19, 0xE8	; 232
     408:	4c e1       	ldi	r20, 0x1C	; 28
     40a:	51 e4       	ldi	r21, 0x41	; 65
     40c:	c3 01       	movw	r24, r6
     40e:	b2 01       	movw	r22, r4
     410:	0e 94 65 1c 	call	0x38ca	; 0x38ca <__divsf3>
     414:	6b 01       	movw	r12, r22
     416:	7c 01       	movw	r14, r24
     418:	a5 01       	movw	r20, r10
     41a:	94 01       	movw	r18, r8
     41c:	60 e0       	ldi	r22, 0x00	; 0
     41e:	70 e5       	ldi	r23, 0x50	; 80
     420:	8d e7       	ldi	r24, 0x7D	; 125
     422:	94 e4       	ldi	r25, 0x44	; 68
     424:	0e 94 65 1c 	call	0x38ca	; 0x38ca <__divsf3>
     428:	0e 94 bc 1e 	call	0x3d78	; 0x3d78 <log>
     42c:	9b 01       	movw	r18, r22
     42e:	ac 01       	movw	r20, r24
     430:	c7 01       	movw	r24, r14
     432:	b6 01       	movw	r22, r12
     434:	0e 94 38 1f 	call	0x3e70	; 0x3e70 <__mulsf3>
     438:	2b ec       	ldi	r18, 0xCB	; 203
     43a:	36 e8       	ldi	r19, 0x86	; 134
     43c:	4f e8       	ldi	r20, 0x8F	; 143
     43e:	53 e4       	ldi	r21, 0x43	; 67
     440:	0e 94 38 1f 	call	0x3e70	; 0x3e70 <__mulsf3>
                       (UNIVERSAL_GAS_CONSTANT / MOLAR_MASS_AIR);

    return elevation;
}
     444:	df 91       	pop	r29
     446:	cf 91       	pop	r28
     448:	ff 90       	pop	r15
     44a:	ef 90       	pop	r14
     44c:	df 90       	pop	r13
     44e:	cf 90       	pop	r12
     450:	bf 90       	pop	r11
     452:	af 90       	pop	r10
     454:	9f 90       	pop	r9
     456:	8f 90       	pop	r8
     458:	7f 90       	pop	r7
     45a:	6f 90       	pop	r6
     45c:	5f 90       	pop	r5
     45e:	4f 90       	pop	r4
     460:	08 95       	ret

00000462 <AltitudeAverage>:
 * The function computes:
 * - Uncompensated altitude based on the barometric formula.
 * - Compensated altitude using `calculate_adjusted_elevation()`.
 * - Average altitude as the mean of uncompensated and compensated values.
 */
void AltitudeAverage() {
     462:	cf 92       	push	r12
     464:	df 92       	push	r13
     466:	ef 92       	push	r14
     468:	ff 92       	push	r15
     46a:	cf 93       	push	r28
     46c:	df 93       	push	r29
    Altitude.UNCOMP = 44330.7692307 * (pow(BMP280.Pressure / SEA_LEVEL_PRESSURE, -0.1902632) - 1); 
     46e:	60 91 11 60 	lds	r22, 0x6011	; 0x806011 <BMP280+0x5>
     472:	70 91 12 60 	lds	r23, 0x6012	; 0x806012 <BMP280+0x6>
     476:	80 91 13 60 	lds	r24, 0x6013	; 0x806013 <BMP280+0x7>
     47a:	90 91 14 60 	lds	r25, 0x6014	; 0x806014 <BMP280+0x8>
     47e:	20 e0       	ldi	r18, 0x00	; 0
     480:	30 e5       	ldi	r19, 0x50	; 80
     482:	4d e7       	ldi	r20, 0x7D	; 125
     484:	54 e4       	ldi	r21, 0x44	; 68
     486:	0e 94 65 1c 	call	0x38ca	; 0x38ca <__divsf3>
     48a:	2b e5       	ldi	r18, 0x5B	; 91
     48c:	34 ed       	ldi	r19, 0xD4	; 212
     48e:	42 e4       	ldi	r20, 0x42	; 66
     490:	5e eb       	ldi	r21, 0xBE	; 190
     492:	0e 94 a5 1f 	call	0x3f4a	; 0x3f4a <pow>
     496:	20 e0       	ldi	r18, 0x00	; 0
     498:	30 e0       	ldi	r19, 0x00	; 0
     49a:	40 e8       	ldi	r20, 0x80	; 128
     49c:	5f e3       	ldi	r21, 0x3F	; 63
     49e:	0e 94 f3 1b 	call	0x37e6	; 0x37e6 <__subsf3>
     4a2:	25 ec       	ldi	r18, 0xC5	; 197
     4a4:	3a e2       	ldi	r19, 0x2A	; 42
     4a6:	4d e2       	ldi	r20, 0x2D	; 45
     4a8:	57 e4       	ldi	r21, 0x47	; 71
     4aa:	0e 94 38 1f 	call	0x3e70	; 0x3e70 <__mulsf3>
     4ae:	6b 01       	movw	r12, r22
     4b0:	7c 01       	movw	r14, r24
     4b2:	c0 e0       	ldi	r28, 0x00	; 0
     4b4:	d0 e6       	ldi	r29, 0x60	; 96
     4b6:	68 83       	st	Y, r22
     4b8:	79 83       	std	Y+1, r23	; 0x01
     4ba:	8a 83       	std	Y+2, r24	; 0x02
     4bc:	9b 83       	std	Y+3, r25	; 0x03
    // -0.1902632: Precomputed value of (-R*L/g*M). 44330.7692307 is T0/L.

    Altitude.COMP = calculate_adjusted_elevation();
     4be:	0e 94 a4 01 	call	0x348	; 0x348 <calculate_adjusted_elevation>
     4c2:	9b 01       	movw	r18, r22
     4c4:	ac 01       	movw	r20, r24
     4c6:	6c 83       	std	Y+4, r22	; 0x04
     4c8:	7d 83       	std	Y+5, r23	; 0x05
     4ca:	8e 83       	std	Y+6, r24	; 0x06
     4cc:	9f 83       	std	Y+7, r25	; 0x07

    Altitude.AVRG = (Altitude.UNCOMP + Altitude.COMP) / 2;
     4ce:	c7 01       	movw	r24, r14
     4d0:	b6 01       	movw	r22, r12
     4d2:	0e 94 f4 1b 	call	0x37e8	; 0x37e8 <__addsf3>
     4d6:	20 e0       	ldi	r18, 0x00	; 0
     4d8:	30 e0       	ldi	r19, 0x00	; 0
     4da:	40 e0       	ldi	r20, 0x00	; 0
     4dc:	5f e3       	ldi	r21, 0x3F	; 63
     4de:	0e 94 38 1f 	call	0x3e70	; 0x3e70 <__mulsf3>
     4e2:	68 87       	std	Y+8, r22	; 0x08
     4e4:	79 87       	std	Y+9, r23	; 0x09
     4e6:	8a 87       	std	Y+10, r24	; 0x0a
     4e8:	9b 87       	std	Y+11, r25	; 0x0b
}
     4ea:	df 91       	pop	r29
     4ec:	cf 91       	pop	r28
     4ee:	ff 90       	pop	r15
     4f0:	ef 90       	pop	r14
     4f2:	df 90       	pop	r13
     4f4:	cf 90       	pop	r12
     4f6:	08 95       	ret

000004f8 <ReadBMP280Calibration>:

/**
 * @brief Resets the BMP280 sensor.
 */
void ResetBMP280() {
    WriteToReg(BMP280Add, reset, BMP280_Reset);
     4f8:	8f 92       	push	r8
     4fa:	9f 92       	push	r9
     4fc:	af 92       	push	r10
     4fe:	bf 92       	push	r11
     500:	cf 92       	push	r12
     502:	df 92       	push	r13
     504:	ef 92       	push	r14
     506:	ff 92       	push	r15
     508:	0f 93       	push	r16
     50a:	cf 93       	push	r28
     50c:	df 93       	push	r29
     50e:	cd b7       	in	r28, 0x3d	; 61
     510:	de b7       	in	r29, 0x3e	; 62
     512:	61 97       	sbiw	r28, 0x11	; 17
     514:	cd bf       	out	0x3d, r28	; 61
     516:	de bf       	out	0x3e, r29	; 62
     518:	20 e0       	ldi	r18, 0x00	; 0
     51a:	29 8b       	std	Y+17, r18	; 0x11
     51c:	8e c1       	rjmp	.+796    	; 0x83a <ReadBMP280Calibration+0x342>
     51e:	39 89       	ldd	r19, Y+17	; 0x11
     520:	31 30       	cpi	r19, 0x01	; 1
     522:	29 f0       	breq	.+10     	; 0x52e <ReadBMP280Calibration+0x36>
     524:	32 30       	cpi	r19, 0x02	; 2
     526:	39 f0       	breq	.+14     	; 0x536 <ReadBMP280Calibration+0x3e>
     528:	19 86       	std	Y+9, r1	; 0x09
     52a:	68 e8       	ldi	r22, 0x88	; 136
     52c:	07 c0       	rjmp	.+14     	; 0x53c <ReadBMP280Calibration+0x44>
     52e:	81 e0       	ldi	r24, 0x01	; 1
     530:	89 87       	std	Y+9, r24	; 0x09
     532:	60 e9       	ldi	r22, 0x90	; 144
     534:	03 c0       	rjmp	.+6      	; 0x53c <ReadBMP280Calibration+0x44>
     536:	92 e0       	ldi	r25, 0x02	; 2
     538:	99 87       	std	Y+9, r25	; 0x09
     53a:	68 e9       	ldi	r22, 0x98	; 152
     53c:	48 e0       	ldi	r20, 0x08	; 8
     53e:	86 e7       	ldi	r24, 0x76	; 118
     540:	0e 94 15 0c 	call	0x182a	; 0x182a <ReadMulti>
     544:	29 83       	std	Y+1, r18	; 0x01
     546:	3a 83       	std	Y+2, r19	; 0x02
     548:	4b 83       	std	Y+3, r20	; 0x03
     54a:	5c 83       	std	Y+4, r21	; 0x04
     54c:	6d 83       	std	Y+5, r22	; 0x05
     54e:	7e 83       	std	Y+6, r23	; 0x06
     550:	8f 83       	std	Y+7, r24	; 0x07
     552:	98 87       	std	Y+8, r25	; 0x08
     554:	29 85       	ldd	r18, Y+9	; 0x09
     556:	21 11       	cpse	r18, r1
     558:	74 c0       	rjmp	.+232    	; 0x642 <ReadBMP280Calibration+0x14a>
     55a:	29 81       	ldd	r18, Y+1	; 0x01
     55c:	00 e3       	ldi	r16, 0x30	; 48
     55e:	0e 94 ea 25 	call	0x4bd4	; 0x4bd4 <__lshrdi3>
     562:	29 87       	std	Y+9, r18	; 0x09
     564:	3a 87       	std	Y+10, r19	; 0x0a
     566:	29 81       	ldd	r18, Y+1	; 0x01
     568:	3a 81       	ldd	r19, Y+2	; 0x02
     56a:	4b 81       	ldd	r20, Y+3	; 0x03
     56c:	5c 81       	ldd	r21, Y+4	; 0x04
     56e:	6d 81       	ldd	r22, Y+5	; 0x05
     570:	7e 81       	ldd	r23, Y+6	; 0x06
     572:	8f 81       	ldd	r24, Y+7	; 0x07
     574:	98 85       	ldd	r25, Y+8	; 0x08
     576:	08 e3       	ldi	r16, 0x38	; 56
     578:	0e 94 ea 25 	call	0x4bd4	; 0x4bd4 <__lshrdi3>
     57c:	82 2e       	mov	r8, r18
     57e:	93 2e       	mov	r9, r19
     580:	ec e0       	ldi	r30, 0x0C	; 12
     582:	f0 e6       	ldi	r31, 0x60	; 96
     584:	29 85       	ldd	r18, Y+9	; 0x09
     586:	3a 85       	ldd	r19, Y+10	; 0x0a
     588:	92 2f       	mov	r25, r18
     58a:	88 27       	eor	r24, r24
     58c:	88 2a       	or	r8, r24
     58e:	99 2a       	or	r9, r25
     590:	81 86       	std	Z+9, r8	; 0x09
     592:	92 86       	std	Z+10, r9	; 0x0a
     594:	29 81       	ldd	r18, Y+1	; 0x01
     596:	3a 81       	ldd	r19, Y+2	; 0x02
     598:	4b 81       	ldd	r20, Y+3	; 0x03
     59a:	5c 81       	ldd	r21, Y+4	; 0x04
     59c:	6d 81       	ldd	r22, Y+5	; 0x05
     59e:	7e 81       	ldd	r23, Y+6	; 0x06
     5a0:	8f 81       	ldd	r24, Y+7	; 0x07
     5a2:	98 85       	ldd	r25, Y+8	; 0x08
     5a4:	00 e2       	ldi	r16, 0x20	; 32
     5a6:	0e 94 ea 25 	call	0x4bd4	; 0x4bd4 <__lshrdi3>
     5aa:	82 2e       	mov	r8, r18
     5ac:	93 2e       	mov	r9, r19
     5ae:	20 e0       	ldi	r18, 0x00	; 0
     5b0:	40 e0       	ldi	r20, 0x00	; 0
     5b2:	50 e0       	ldi	r21, 0x00	; 0
     5b4:	60 e0       	ldi	r22, 0x00	; 0
     5b6:	70 e0       	ldi	r23, 0x00	; 0
     5b8:	80 e0       	ldi	r24, 0x00	; 0
     5ba:	90 e0       	ldi	r25, 0x00	; 0
     5bc:	08 e0       	ldi	r16, 0x08	; 8
     5be:	0e 94 ea 25 	call	0x4bd4	; 0x4bd4 <__lshrdi3>
     5c2:	29 87       	std	Y+9, r18	; 0x09
     5c4:	3a 87       	std	Y+10, r19	; 0x0a
     5c6:	98 2c       	mov	r9, r8
     5c8:	88 24       	eor	r8, r8
     5ca:	89 85       	ldd	r24, Y+9	; 0x09
     5cc:	9a 85       	ldd	r25, Y+10	; 0x0a
     5ce:	88 2a       	or	r8, r24
     5d0:	99 2a       	or	r9, r25
     5d2:	83 86       	std	Z+11, r8	; 0x0b
     5d4:	94 86       	std	Z+12, r9	; 0x0c
     5d6:	29 81       	ldd	r18, Y+1	; 0x01
     5d8:	3a 81       	ldd	r19, Y+2	; 0x02
     5da:	4b 81       	ldd	r20, Y+3	; 0x03
     5dc:	5c 81       	ldd	r21, Y+4	; 0x04
     5de:	6d 81       	ldd	r22, Y+5	; 0x05
     5e0:	7e 81       	ldd	r23, Y+6	; 0x06
     5e2:	8f 81       	ldd	r24, Y+7	; 0x07
     5e4:	98 85       	ldd	r25, Y+8	; 0x08
     5e6:	00 e1       	ldi	r16, 0x10	; 16
     5e8:	0e 94 ea 25 	call	0x4bd4	; 0x4bd4 <__lshrdi3>
     5ec:	82 2e       	mov	r8, r18
     5ee:	93 2e       	mov	r9, r19
     5f0:	20 e0       	ldi	r18, 0x00	; 0
     5f2:	40 e0       	ldi	r20, 0x00	; 0
     5f4:	50 e0       	ldi	r21, 0x00	; 0
     5f6:	60 e0       	ldi	r22, 0x00	; 0
     5f8:	70 e0       	ldi	r23, 0x00	; 0
     5fa:	80 e0       	ldi	r24, 0x00	; 0
     5fc:	90 e0       	ldi	r25, 0x00	; 0
     5fe:	08 e0       	ldi	r16, 0x08	; 8
     600:	0e 94 ea 25 	call	0x4bd4	; 0x4bd4 <__lshrdi3>
     604:	29 87       	std	Y+9, r18	; 0x09
     606:	3a 87       	std	Y+10, r19	; 0x0a
     608:	98 2c       	mov	r9, r8
     60a:	88 24       	eor	r8, r8
     60c:	29 85       	ldd	r18, Y+9	; 0x09
     60e:	3a 85       	ldd	r19, Y+10	; 0x0a
     610:	82 2a       	or	r8, r18
     612:	93 2a       	or	r9, r19
     614:	85 86       	std	Z+13, r8	; 0x0d
     616:	96 86       	std	Z+14, r9	; 0x0e
     618:	20 e0       	ldi	r18, 0x00	; 0
     61a:	3a 81       	ldd	r19, Y+2	; 0x02
     61c:	40 e0       	ldi	r20, 0x00	; 0
     61e:	50 e0       	ldi	r21, 0x00	; 0
     620:	60 e0       	ldi	r22, 0x00	; 0
     622:	70 e0       	ldi	r23, 0x00	; 0
     624:	80 e0       	ldi	r24, 0x00	; 0
     626:	90 e0       	ldi	r25, 0x00	; 0
     628:	0e 94 ea 25 	call	0x4bd4	; 0x4bd4 <__lshrdi3>
     62c:	82 2e       	mov	r8, r18
     62e:	93 2e       	mov	r9, r19
     630:	29 81       	ldd	r18, Y+1	; 0x01
     632:	3a 81       	ldd	r19, Y+2	; 0x02
     634:	92 2f       	mov	r25, r18
     636:	88 27       	eor	r24, r24
     638:	88 2a       	or	r8, r24
     63a:	99 2a       	or	r9, r25
     63c:	87 86       	std	Z+15, r8	; 0x0f
     63e:	90 8a       	std	Z+16, r9	; 0x10
     640:	f9 c0       	rjmp	.+498    	; 0x834 <ReadBMP280Calibration+0x33c>
     642:	39 85       	ldd	r19, Y+9	; 0x09
     644:	31 30       	cpi	r19, 0x01	; 1
     646:	09 f0       	breq	.+2      	; 0x64a <ReadBMP280Calibration+0x152>
     648:	7b c0       	rjmp	.+246    	; 0x740 <ReadBMP280Calibration+0x248>
     64a:	29 81       	ldd	r18, Y+1	; 0x01
     64c:	3a 81       	ldd	r19, Y+2	; 0x02
     64e:	4b 81       	ldd	r20, Y+3	; 0x03
     650:	5c 81       	ldd	r21, Y+4	; 0x04
     652:	6d 81       	ldd	r22, Y+5	; 0x05
     654:	7e 81       	ldd	r23, Y+6	; 0x06
     656:	8f 81       	ldd	r24, Y+7	; 0x07
     658:	98 85       	ldd	r25, Y+8	; 0x08
     65a:	00 e3       	ldi	r16, 0x30	; 48
     65c:	0e 94 ea 25 	call	0x4bd4	; 0x4bd4 <__lshrdi3>
     660:	82 2e       	mov	r8, r18
     662:	93 2e       	mov	r9, r19
     664:	29 81       	ldd	r18, Y+1	; 0x01
     666:	3a 81       	ldd	r19, Y+2	; 0x02
     668:	4b 81       	ldd	r20, Y+3	; 0x03
     66a:	5c 81       	ldd	r21, Y+4	; 0x04
     66c:	6d 81       	ldd	r22, Y+5	; 0x05
     66e:	7e 81       	ldd	r23, Y+6	; 0x06
     670:	8f 81       	ldd	r24, Y+7	; 0x07
     672:	98 85       	ldd	r25, Y+8	; 0x08
     674:	08 e3       	ldi	r16, 0x38	; 56
     676:	0e 94 ea 25 	call	0x4bd4	; 0x4bd4 <__lshrdi3>
     67a:	29 87       	std	Y+9, r18	; 0x09
     67c:	3a 87       	std	Y+10, r19	; 0x0a
     67e:	ec e0       	ldi	r30, 0x0C	; 12
     680:	f0 e6       	ldi	r31, 0x60	; 96
     682:	98 2c       	mov	r9, r8
     684:	88 24       	eor	r8, r8
     686:	89 85       	ldd	r24, Y+9	; 0x09
     688:	9a 85       	ldd	r25, Y+10	; 0x0a
     68a:	88 2a       	or	r8, r24
     68c:	99 2a       	or	r9, r25
     68e:	81 8a       	std	Z+17, r8	; 0x11
     690:	92 8a       	std	Z+18, r9	; 0x12
     692:	29 81       	ldd	r18, Y+1	; 0x01
     694:	3a 81       	ldd	r19, Y+2	; 0x02
     696:	4b 81       	ldd	r20, Y+3	; 0x03
     698:	5c 81       	ldd	r21, Y+4	; 0x04
     69a:	6d 81       	ldd	r22, Y+5	; 0x05
     69c:	7e 81       	ldd	r23, Y+6	; 0x06
     69e:	8f 81       	ldd	r24, Y+7	; 0x07
     6a0:	98 85       	ldd	r25, Y+8	; 0x08
     6a2:	00 e2       	ldi	r16, 0x20	; 32
     6a4:	0e 94 ea 25 	call	0x4bd4	; 0x4bd4 <__lshrdi3>
     6a8:	82 2e       	mov	r8, r18
     6aa:	93 2e       	mov	r9, r19
     6ac:	20 e0       	ldi	r18, 0x00	; 0
     6ae:	40 e0       	ldi	r20, 0x00	; 0
     6b0:	50 e0       	ldi	r21, 0x00	; 0
     6b2:	60 e0       	ldi	r22, 0x00	; 0
     6b4:	70 e0       	ldi	r23, 0x00	; 0
     6b6:	80 e0       	ldi	r24, 0x00	; 0
     6b8:	90 e0       	ldi	r25, 0x00	; 0
     6ba:	08 e0       	ldi	r16, 0x08	; 8
     6bc:	0e 94 ea 25 	call	0x4bd4	; 0x4bd4 <__lshrdi3>
     6c0:	29 87       	std	Y+9, r18	; 0x09
     6c2:	3a 87       	std	Y+10, r19	; 0x0a
     6c4:	98 2c       	mov	r9, r8
     6c6:	88 24       	eor	r8, r8
     6c8:	29 85       	ldd	r18, Y+9	; 0x09
     6ca:	3a 85       	ldd	r19, Y+10	; 0x0a
     6cc:	82 2a       	or	r8, r18
     6ce:	93 2a       	or	r9, r19
     6d0:	83 8a       	std	Z+19, r8	; 0x13
     6d2:	94 8a       	std	Z+20, r9	; 0x14
     6d4:	29 81       	ldd	r18, Y+1	; 0x01
     6d6:	3a 81       	ldd	r19, Y+2	; 0x02
     6d8:	4b 81       	ldd	r20, Y+3	; 0x03
     6da:	5c 81       	ldd	r21, Y+4	; 0x04
     6dc:	6d 81       	ldd	r22, Y+5	; 0x05
     6de:	7e 81       	ldd	r23, Y+6	; 0x06
     6e0:	8f 81       	ldd	r24, Y+7	; 0x07
     6e2:	98 85       	ldd	r25, Y+8	; 0x08
     6e4:	00 e1       	ldi	r16, 0x10	; 16
     6e6:	0e 94 ea 25 	call	0x4bd4	; 0x4bd4 <__lshrdi3>
     6ea:	82 2e       	mov	r8, r18
     6ec:	93 2e       	mov	r9, r19
     6ee:	20 e0       	ldi	r18, 0x00	; 0
     6f0:	40 e0       	ldi	r20, 0x00	; 0
     6f2:	50 e0       	ldi	r21, 0x00	; 0
     6f4:	60 e0       	ldi	r22, 0x00	; 0
     6f6:	70 e0       	ldi	r23, 0x00	; 0
     6f8:	80 e0       	ldi	r24, 0x00	; 0
     6fa:	90 e0       	ldi	r25, 0x00	; 0
     6fc:	08 e0       	ldi	r16, 0x08	; 8
     6fe:	0e 94 ea 25 	call	0x4bd4	; 0x4bd4 <__lshrdi3>
     702:	29 87       	std	Y+9, r18	; 0x09
     704:	3a 87       	std	Y+10, r19	; 0x0a
     706:	98 2c       	mov	r9, r8
     708:	88 24       	eor	r8, r8
     70a:	89 85       	ldd	r24, Y+9	; 0x09
     70c:	9a 85       	ldd	r25, Y+10	; 0x0a
     70e:	88 2a       	or	r8, r24
     710:	99 2a       	or	r9, r25
     712:	85 8a       	std	Z+21, r8	; 0x15
     714:	96 8a       	std	Z+22, r9	; 0x16
     716:	20 e0       	ldi	r18, 0x00	; 0
     718:	3a 81       	ldd	r19, Y+2	; 0x02
     71a:	40 e0       	ldi	r20, 0x00	; 0
     71c:	50 e0       	ldi	r21, 0x00	; 0
     71e:	60 e0       	ldi	r22, 0x00	; 0
     720:	70 e0       	ldi	r23, 0x00	; 0
     722:	80 e0       	ldi	r24, 0x00	; 0
     724:	90 e0       	ldi	r25, 0x00	; 0
     726:	0e 94 ea 25 	call	0x4bd4	; 0x4bd4 <__lshrdi3>
     72a:	82 2e       	mov	r8, r18
     72c:	93 2e       	mov	r9, r19
     72e:	29 81       	ldd	r18, Y+1	; 0x01
     730:	3a 81       	ldd	r19, Y+2	; 0x02
     732:	92 2f       	mov	r25, r18
     734:	88 27       	eor	r24, r24
     736:	88 2a       	or	r8, r24
     738:	99 2a       	or	r9, r25
     73a:	87 8a       	std	Z+23, r8	; 0x17
     73c:	90 8e       	std	Z+24, r9	; 0x18
     73e:	7a c0       	rjmp	.+244    	; 0x834 <ReadBMP280Calibration+0x33c>
     740:	29 81       	ldd	r18, Y+1	; 0x01
     742:	3a 81       	ldd	r19, Y+2	; 0x02
     744:	4b 81       	ldd	r20, Y+3	; 0x03
     746:	5c 81       	ldd	r21, Y+4	; 0x04
     748:	6d 81       	ldd	r22, Y+5	; 0x05
     74a:	7e 81       	ldd	r23, Y+6	; 0x06
     74c:	8f 81       	ldd	r24, Y+7	; 0x07
     74e:	98 85       	ldd	r25, Y+8	; 0x08
     750:	00 e3       	ldi	r16, 0x30	; 48
     752:	0e 94 ea 25 	call	0x4bd4	; 0x4bd4 <__lshrdi3>
     756:	29 87       	std	Y+9, r18	; 0x09
     758:	3a 87       	std	Y+10, r19	; 0x0a
     75a:	29 81       	ldd	r18, Y+1	; 0x01
     75c:	3a 81       	ldd	r19, Y+2	; 0x02
     75e:	4b 81       	ldd	r20, Y+3	; 0x03
     760:	5c 81       	ldd	r21, Y+4	; 0x04
     762:	6d 81       	ldd	r22, Y+5	; 0x05
     764:	7e 81       	ldd	r23, Y+6	; 0x06
     766:	8f 81       	ldd	r24, Y+7	; 0x07
     768:	98 85       	ldd	r25, Y+8	; 0x08
     76a:	08 e3       	ldi	r16, 0x38	; 56
     76c:	0e 94 ea 25 	call	0x4bd4	; 0x4bd4 <__lshrdi3>
     770:	82 2e       	mov	r8, r18
     772:	93 2e       	mov	r9, r19
     774:	ec e0       	ldi	r30, 0x0C	; 12
     776:	f0 e6       	ldi	r31, 0x60	; 96
     778:	29 85       	ldd	r18, Y+9	; 0x09
     77a:	3a 85       	ldd	r19, Y+10	; 0x0a
     77c:	92 2f       	mov	r25, r18
     77e:	88 27       	eor	r24, r24
     780:	88 2a       	or	r8, r24
     782:	99 2a       	or	r9, r25
     784:	81 8e       	std	Z+25, r8	; 0x19
     786:	92 8e       	std	Z+26, r9	; 0x1a
     788:	29 81       	ldd	r18, Y+1	; 0x01
     78a:	3a 81       	ldd	r19, Y+2	; 0x02
     78c:	4b 81       	ldd	r20, Y+3	; 0x03
     78e:	5c 81       	ldd	r21, Y+4	; 0x04
     790:	6d 81       	ldd	r22, Y+5	; 0x05
     792:	7e 81       	ldd	r23, Y+6	; 0x06
     794:	8f 81       	ldd	r24, Y+7	; 0x07
     796:	98 85       	ldd	r25, Y+8	; 0x08
     798:	00 e2       	ldi	r16, 0x20	; 32
     79a:	0e 94 ea 25 	call	0x4bd4	; 0x4bd4 <__lshrdi3>
     79e:	82 2e       	mov	r8, r18
     7a0:	93 2e       	mov	r9, r19
     7a2:	20 e0       	ldi	r18, 0x00	; 0
     7a4:	40 e0       	ldi	r20, 0x00	; 0
     7a6:	50 e0       	ldi	r21, 0x00	; 0
     7a8:	60 e0       	ldi	r22, 0x00	; 0
     7aa:	70 e0       	ldi	r23, 0x00	; 0
     7ac:	80 e0       	ldi	r24, 0x00	; 0
     7ae:	90 e0       	ldi	r25, 0x00	; 0
     7b0:	08 e0       	ldi	r16, 0x08	; 8
     7b2:	0e 94 ea 25 	call	0x4bd4	; 0x4bd4 <__lshrdi3>
     7b6:	29 87       	std	Y+9, r18	; 0x09
     7b8:	3a 87       	std	Y+10, r19	; 0x0a
     7ba:	98 2c       	mov	r9, r8
     7bc:	88 24       	eor	r8, r8
     7be:	89 85       	ldd	r24, Y+9	; 0x09
     7c0:	9a 85       	ldd	r25, Y+10	; 0x0a
     7c2:	88 2a       	or	r8, r24
     7c4:	99 2a       	or	r9, r25
     7c6:	83 8e       	std	Z+27, r8	; 0x1b
     7c8:	94 8e       	std	Z+28, r9	; 0x1c
     7ca:	29 81       	ldd	r18, Y+1	; 0x01
     7cc:	3a 81       	ldd	r19, Y+2	; 0x02
     7ce:	4b 81       	ldd	r20, Y+3	; 0x03
     7d0:	5c 81       	ldd	r21, Y+4	; 0x04
     7d2:	6d 81       	ldd	r22, Y+5	; 0x05
     7d4:	7e 81       	ldd	r23, Y+6	; 0x06
     7d6:	8f 81       	ldd	r24, Y+7	; 0x07
     7d8:	98 85       	ldd	r25, Y+8	; 0x08
     7da:	00 e1       	ldi	r16, 0x10	; 16
     7dc:	0e 94 ea 25 	call	0x4bd4	; 0x4bd4 <__lshrdi3>
     7e0:	82 2e       	mov	r8, r18
     7e2:	93 2e       	mov	r9, r19
     7e4:	20 e0       	ldi	r18, 0x00	; 0
     7e6:	40 e0       	ldi	r20, 0x00	; 0
     7e8:	50 e0       	ldi	r21, 0x00	; 0
     7ea:	60 e0       	ldi	r22, 0x00	; 0
     7ec:	70 e0       	ldi	r23, 0x00	; 0
     7ee:	80 e0       	ldi	r24, 0x00	; 0
     7f0:	90 e0       	ldi	r25, 0x00	; 0
     7f2:	08 e0       	ldi	r16, 0x08	; 8
     7f4:	0e 94 ea 25 	call	0x4bd4	; 0x4bd4 <__lshrdi3>
     7f8:	29 87       	std	Y+9, r18	; 0x09
     7fa:	3a 87       	std	Y+10, r19	; 0x0a
     7fc:	98 2c       	mov	r9, r8
     7fe:	88 24       	eor	r8, r8
     800:	29 85       	ldd	r18, Y+9	; 0x09
     802:	3a 85       	ldd	r19, Y+10	; 0x0a
     804:	82 2a       	or	r8, r18
     806:	93 2a       	or	r9, r19
     808:	85 8e       	std	Z+29, r8	; 0x1d
     80a:	96 8e       	std	Z+30, r9	; 0x1e
     80c:	20 e0       	ldi	r18, 0x00	; 0
     80e:	3a 81       	ldd	r19, Y+2	; 0x02
     810:	40 e0       	ldi	r20, 0x00	; 0
     812:	50 e0       	ldi	r21, 0x00	; 0
     814:	60 e0       	ldi	r22, 0x00	; 0
     816:	70 e0       	ldi	r23, 0x00	; 0
     818:	80 e0       	ldi	r24, 0x00	; 0
     81a:	90 e0       	ldi	r25, 0x00	; 0
     81c:	0e 94 ea 25 	call	0x4bd4	; 0x4bd4 <__lshrdi3>
     820:	82 2e       	mov	r8, r18
     822:	93 2e       	mov	r9, r19
     824:	89 81       	ldd	r24, Y+1	; 0x01
     826:	9a 81       	ldd	r25, Y+2	; 0x02
     828:	38 2f       	mov	r19, r24
     82a:	22 27       	eor	r18, r18
     82c:	28 29       	or	r18, r8
     82e:	39 29       	or	r19, r9
     830:	27 8f       	std	Z+31, r18	; 0x1f
     832:	30 a3       	std	Z+32, r19	; 0x20
     834:	99 89       	ldd	r25, Y+17	; 0x11
     836:	9f 5f       	subi	r25, 0xFF	; 255
     838:	99 8b       	std	Y+17, r25	; 0x11
     83a:	29 89       	ldd	r18, Y+17	; 0x11
     83c:	23 30       	cpi	r18, 0x03	; 3
     83e:	08 f4       	brcc	.+2      	; 0x842 <ReadBMP280Calibration+0x34a>
     840:	6e ce       	rjmp	.-804    	; 0x51e <ReadBMP280Calibration+0x26>
     842:	61 96       	adiw	r28, 0x11	; 17
     844:	cd bf       	out	0x3d, r28	; 61
     846:	de bf       	out	0x3e, r29	; 62
     848:	df 91       	pop	r29
     84a:	cf 91       	pop	r28
     84c:	0f 91       	pop	r16
     84e:	ff 90       	pop	r15
     850:	ef 90       	pop	r14
     852:	df 90       	pop	r13
     854:	cf 90       	pop	r12
     856:	bf 90       	pop	r11
     858:	af 90       	pop	r10
     85a:	9f 90       	pop	r9
     85c:	8f 90       	pop	r8
     85e:	08 95       	ret

00000860 <WriteBMP280Config>:
     860:	cf 93       	push	r28
     862:	df 93       	push	r29
     864:	cc e0       	ldi	r28, 0x0C	; 12
     866:	d0 e6       	ldi	r29, 0x60	; 96
     868:	9f a9       	ldd	r25, Y+55	; 0x37
     86a:	4e a9       	ldd	r20, Y+54	; 0x36
     86c:	88 ad       	ldd	r24, Y+56	; 0x38
     86e:	44 0f       	add	r20, r20
     870:	44 0f       	add	r20, r20
     872:	20 e2       	ldi	r18, 0x20	; 32
     874:	92 9f       	mul	r25, r18
     876:	40 0d       	add	r20, r0
     878:	11 24       	eor	r1, r1
     87a:	48 0f       	add	r20, r24
     87c:	64 ef       	ldi	r22, 0xF4	; 244
     87e:	86 e7       	ldi	r24, 0x76	; 118
     880:	0e 94 fc 0b 	call	0x17f8	; 0x17f8 <WriteToReg>
     884:	9b a9       	ldd	r25, Y+51	; 0x33
     886:	4c a9       	ldd	r20, Y+52	; 0x34
     888:	8d a9       	ldd	r24, Y+53	; 0x35
     88a:	44 0f       	add	r20, r20
     88c:	44 0f       	add	r20, r20
     88e:	20 e2       	ldi	r18, 0x20	; 32
     890:	92 9f       	mul	r25, r18
     892:	40 0d       	add	r20, r0
     894:	11 24       	eor	r1, r1
     896:	48 0f       	add	r20, r24
     898:	65 ef       	ldi	r22, 0xF5	; 245
     89a:	86 e7       	ldi	r24, 0x76	; 118
     89c:	0e 94 fc 0b 	call	0x17f8	; 0x17f8 <WriteToReg>
     8a0:	df 91       	pop	r29
     8a2:	cf 91       	pop	r28
     8a4:	08 95       	ret

000008a6 <ReadBMP280Status>:
     8a6:	63 ef       	ldi	r22, 0xF3	; 243
     8a8:	86 e7       	ldi	r24, 0x76	; 118
     8aa:	0e 94 d1 0b 	call	0x17a2	; 0x17a2 <ReadReg>
     8ae:	ec e0       	ldi	r30, 0x0C	; 12
     8b0:	f0 e6       	ldi	r31, 0x60	; 96
     8b2:	98 2f       	mov	r25, r24
     8b4:	96 95       	lsr	r25
     8b6:	96 95       	lsr	r25
     8b8:	96 95       	lsr	r25
     8ba:	9f 70       	andi	r25, 0x0F	; 15
     8bc:	91 af       	std	Z+57, r25	; 0x39
     8be:	8f 70       	andi	r24, 0x0F	; 15
     8c0:	82 af       	std	Z+58, r24	; 0x3a
     8c2:	08 95       	ret

000008c4 <ReadBMP280TP>:
     8c4:	0f 93       	push	r16
     8c6:	cf 93       	push	r28
     8c8:	df 93       	push	r29
     8ca:	02 c0       	rjmp	.+4      	; 0x8d0 <ReadBMP280TP+0xc>
     8cc:	0e 94 53 04 	call	0x8a6	; 0x8a6 <ReadBMP280Status>
     8d0:	80 91 45 60 	lds	r24, 0x6045	; 0x806045 <BMP280+0x39>
     8d4:	88 23       	and	r24, r24
     8d6:	21 f0       	breq	.+8      	; 0x8e0 <ReadBMP280TP+0x1c>
     8d8:	80 91 46 60 	lds	r24, 0x6046	; 0x806046 <BMP280+0x3a>
     8dc:	81 11       	cpse	r24, r1
     8de:	f6 cf       	rjmp	.-20     	; 0x8cc <ReadBMP280TP+0x8>
     8e0:	43 e0       	ldi	r20, 0x03	; 3
     8e2:	67 ef       	ldi	r22, 0xF7	; 247
     8e4:	86 e7       	ldi	r24, 0x76	; 118
     8e6:	0e 94 15 0c 	call	0x182a	; 0x182a <ReadMulti>
     8ea:	04 e0       	ldi	r16, 0x04	; 4
     8ec:	0e 94 ea 25 	call	0x4bd4	; 0x4bd4 <__lshrdi3>
     8f0:	cc e0       	ldi	r28, 0x0C	; 12
     8f2:	d0 e6       	ldi	r29, 0x60	; 96
     8f4:	2d a3       	std	Y+37, r18	; 0x25
     8f6:	3e a3       	std	Y+38, r19	; 0x26
     8f8:	4f a3       	std	Y+39, r20	; 0x27
     8fa:	58 a7       	std	Y+40, r21	; 0x28
     8fc:	43 e0       	ldi	r20, 0x03	; 3
     8fe:	6a ef       	ldi	r22, 0xFA	; 250
     900:	86 e7       	ldi	r24, 0x76	; 118
     902:	0e 94 15 0c 	call	0x182a	; 0x182a <ReadMulti>
     906:	0e 94 ea 25 	call	0x4bd4	; 0x4bd4 <__lshrdi3>
     90a:	29 a3       	std	Y+33, r18	; 0x21
     90c:	3a a3       	std	Y+34, r19	; 0x22
     90e:	4b a3       	std	Y+35, r20	; 0x23
     910:	5c a3       	std	Y+36, r21	; 0x24
     912:	df 91       	pop	r29
     914:	cf 91       	pop	r28
     916:	0f 91       	pop	r16
     918:	08 95       	ret

0000091a <CalcTrueTemp>:

/**
 * @brief Calculates the true temperature in degrees Celsius.
 * @return The true temperature as a signed 16-bit integer.
 */
int16_t CalcTrueTemp() {
     91a:	4f 92       	push	r4
     91c:	5f 92       	push	r5
     91e:	6f 92       	push	r6
     920:	7f 92       	push	r7
     922:	8f 92       	push	r8
     924:	9f 92       	push	r9
     926:	af 92       	push	r10
     928:	bf 92       	push	r11
     92a:	cf 92       	push	r12
     92c:	df 92       	push	r13
     92e:	ef 92       	push	r14
     930:	ff 92       	push	r15
     932:	cf 93       	push	r28
     934:	df 93       	push	r29
    int32_t var1 = 0, var2 = 0, T = 0;
    var1 = ((((BMP280.CalibrationValues.UT >> 3) - ((int32_t)BMP280.CalibrationValues.dig_T1 << 1))) * 
     936:	cc e0       	ldi	r28, 0x0C	; 12
     938:	d0 e6       	ldi	r29, 0x60	; 96
     93a:	89 a0       	ldd	r8, Y+33	; 0x21
     93c:	9a a0       	ldd	r9, Y+34	; 0x22
     93e:	ab a0       	ldd	r10, Y+35	; 0x23
     940:	bc a0       	ldd	r11, Y+36	; 0x24
     942:	b5 01       	movw	r22, r10
     944:	a4 01       	movw	r20, r8
     946:	68 94       	set
     948:	12 f8       	bld	r1, 2
     94a:	75 95       	asr	r23
     94c:	67 95       	ror	r22
     94e:	57 95       	ror	r21
     950:	47 95       	ror	r20
     952:	16 94       	lsr	r1
     954:	d1 f7       	brne	.-12     	; 0x94a <CalcTrueTemp+0x30>
     956:	49 84       	ldd	r4, Y+9	; 0x09
     958:	5a 84       	ldd	r5, Y+10	; 0x0a
     95a:	61 2c       	mov	r6, r1
     95c:	71 2c       	mov	r7, r1
     95e:	d3 01       	movw	r26, r6
     960:	c2 01       	movw	r24, r4
     962:	88 0f       	add	r24, r24
     964:	99 1f       	adc	r25, r25
     966:	aa 1f       	adc	r26, r26
     968:	bb 1f       	adc	r27, r27
     96a:	9a 01       	movw	r18, r20
     96c:	ab 01       	movw	r20, r22
     96e:	28 1b       	sub	r18, r24
     970:	39 0b       	sbc	r19, r25
     972:	4a 0b       	sbc	r20, r26
     974:	5b 0b       	sbc	r21, r27
             ((int32_t)BMP280.CalibrationValues.dig_T2)) >> 11;
     976:	ab 85       	ldd	r26, Y+11	; 0x0b
     978:	bc 85       	ldd	r27, Y+12	; 0x0c
 * @brief Calculates the true temperature in degrees Celsius.
 * @return The true temperature as a signed 16-bit integer.
 */
int16_t CalcTrueTemp() {
    int32_t var1 = 0, var2 = 0, T = 0;
    var1 = ((((BMP280.CalibrationValues.UT >> 3) - ((int32_t)BMP280.CalibrationValues.dig_T1 << 1))) * 
     97a:	0e 94 9d 24 	call	0x493a	; 0x493a <__mulshisi3>
     97e:	6b 01       	movw	r12, r22
     980:	7c 01       	movw	r14, r24
     982:	0b 2e       	mov	r0, r27
     984:	bb e0       	ldi	r27, 0x0B	; 11
     986:	f5 94       	asr	r15
     988:	e7 94       	ror	r14
     98a:	d7 94       	ror	r13
     98c:	c7 94       	ror	r12
     98e:	ba 95       	dec	r27
     990:	d1 f7       	brne	.-12     	; 0x986 <CalcTrueTemp+0x6c>
     992:	b0 2d       	mov	r27, r0
             ((int32_t)BMP280.CalibrationValues.dig_T2)) >> 11;
    var2 = (((((BMP280.CalibrationValues.UT >> 4) - ((int32_t)BMP280.CalibrationValues.dig_T1)) *
     994:	d5 01       	movw	r26, r10
     996:	c4 01       	movw	r24, r8
     998:	68 94       	set
     99a:	13 f8       	bld	r1, 3
     99c:	b5 95       	asr	r27
     99e:	a7 95       	ror	r26
     9a0:	97 95       	ror	r25
     9a2:	87 95       	ror	r24
     9a4:	16 94       	lsr	r1
     9a6:	d1 f7       	brne	.-12     	; 0x99c <CalcTrueTemp+0x82>
              ((BMP280.CalibrationValues.UT >> 4) - ((int32_t)BMP280.CalibrationValues.dig_T1))) >> 12) * 
     9a8:	bc 01       	movw	r22, r24
     9aa:	cd 01       	movw	r24, r26
     9ac:	64 19       	sub	r22, r4
     9ae:	75 09       	sbc	r23, r5
     9b0:	86 09       	sbc	r24, r6
     9b2:	97 09       	sbc	r25, r7
 */
int16_t CalcTrueTemp() {
    int32_t var1 = 0, var2 = 0, T = 0;
    var1 = ((((BMP280.CalibrationValues.UT >> 3) - ((int32_t)BMP280.CalibrationValues.dig_T1 << 1))) * 
             ((int32_t)BMP280.CalibrationValues.dig_T2)) >> 11;
    var2 = (((((BMP280.CalibrationValues.UT >> 4) - ((int32_t)BMP280.CalibrationValues.dig_T1)) *
     9b4:	9b 01       	movw	r18, r22
     9b6:	ac 01       	movw	r20, r24
     9b8:	0e 94 23 24 	call	0x4846	; 0x4846 <__mulsi3>
              ((BMP280.CalibrationValues.UT >> 4) - ((int32_t)BMP280.CalibrationValues.dig_T1))) >> 12) * 
     9bc:	9b 01       	movw	r18, r22
     9be:	ac 01       	movw	r20, r24
     9c0:	01 2e       	mov	r0, r17
     9c2:	1c e0       	ldi	r17, 0x0C	; 12
     9c4:	55 95       	asr	r21
     9c6:	47 95       	ror	r20
     9c8:	37 95       	ror	r19
     9ca:	27 95       	ror	r18
     9cc:	1a 95       	dec	r17
     9ce:	d1 f7       	brne	.-12     	; 0x9c4 <CalcTrueTemp+0xaa>
     9d0:	10 2d       	mov	r17, r0
              ((int32_t)BMP280.CalibrationValues.dig_T3)) >> 14;
     9d2:	ad 85       	ldd	r26, Y+13	; 0x0d
     9d4:	be 85       	ldd	r27, Y+14	; 0x0e
int16_t CalcTrueTemp() {
    int32_t var1 = 0, var2 = 0, T = 0;
    var1 = ((((BMP280.CalibrationValues.UT >> 3) - ((int32_t)BMP280.CalibrationValues.dig_T1 << 1))) * 
             ((int32_t)BMP280.CalibrationValues.dig_T2)) >> 11;
    var2 = (((((BMP280.CalibrationValues.UT >> 4) - ((int32_t)BMP280.CalibrationValues.dig_T1)) *
              ((BMP280.CalibrationValues.UT >> 4) - ((int32_t)BMP280.CalibrationValues.dig_T1))) >> 12) * 
     9d6:	0e 94 9d 24 	call	0x493a	; 0x493a <__mulshisi3>
 */
int16_t CalcTrueTemp() {
    int32_t var1 = 0, var2 = 0, T = 0;
    var1 = ((((BMP280.CalibrationValues.UT >> 3) - ((int32_t)BMP280.CalibrationValues.dig_T1 << 1))) * 
             ((int32_t)BMP280.CalibrationValues.dig_T2)) >> 11;
    var2 = (((((BMP280.CalibrationValues.UT >> 4) - ((int32_t)BMP280.CalibrationValues.dig_T1)) *
     9da:	dc 01       	movw	r26, r24
     9dc:	cb 01       	movw	r24, r22
     9de:	07 2e       	mov	r0, r23
     9e0:	7e e0       	ldi	r23, 0x0E	; 14
     9e2:	b5 95       	asr	r27
     9e4:	a7 95       	ror	r26
     9e6:	97 95       	ror	r25
     9e8:	87 95       	ror	r24
     9ea:	7a 95       	dec	r23
     9ec:	d1 f7       	brne	.-12     	; 0x9e2 <CalcTrueTemp+0xc8>
     9ee:	70 2d       	mov	r23, r0
              ((BMP280.CalibrationValues.UT >> 4) - ((int32_t)BMP280.CalibrationValues.dig_T1))) >> 12) * 
              ((int32_t)BMP280.CalibrationValues.dig_T3)) >> 14;
    BMP280.CalibrationValues.t_fine = var1 + var2;
     9f0:	8c 0d       	add	r24, r12
     9f2:	9d 1d       	adc	r25, r13
     9f4:	ae 1d       	adc	r26, r14
     9f6:	bf 1d       	adc	r27, r15
     9f8:	89 a7       	std	Y+41, r24	; 0x29
     9fa:	9a a7       	std	Y+42, r25	; 0x2a
     9fc:	ab a7       	std	Y+43, r26	; 0x2b
     9fe:	bc a7       	std	Y+44, r27	; 0x2c
    T = (BMP280.CalibrationValues.t_fine * 5 + 128) >> 8;
     a00:	6c 01       	movw	r12, r24
     a02:	7d 01       	movw	r14, r26
     a04:	cc 0c       	add	r12, r12
     a06:	dd 1c       	adc	r13, r13
     a08:	ee 1c       	adc	r14, r14
     a0a:	ff 1c       	adc	r15, r15
     a0c:	cc 0c       	add	r12, r12
     a0e:	dd 1c       	adc	r13, r13
     a10:	ee 1c       	adc	r14, r14
     a12:	ff 1c       	adc	r15, r15
     a14:	c8 0e       	add	r12, r24
     a16:	d9 1e       	adc	r13, r25
     a18:	ea 1e       	adc	r14, r26
     a1a:	fb 1e       	adc	r15, r27
     a1c:	80 e8       	ldi	r24, 0x80	; 128
     a1e:	c8 0e       	add	r12, r24
     a20:	d1 1c       	adc	r13, r1
     a22:	e1 1c       	adc	r14, r1
     a24:	f1 1c       	adc	r15, r1
     a26:	cd 2c       	mov	r12, r13
     a28:	de 2c       	mov	r13, r14
     a2a:	ef 2c       	mov	r14, r15
     a2c:	ff 24       	eor	r15, r15
     a2e:	e7 fc       	sbrc	r14, 7
     a30:	fa 94       	dec	r15
    BMP280.CalibrationValues.T = T;
     a32:	cd a6       	std	Y+45, r12	; 0x2d
     a34:	de a6       	std	Y+46, r13	; 0x2e
    BMP280.Temperature = (float)T / 100;
     a36:	c7 01       	movw	r24, r14
     a38:	b6 01       	movw	r22, r12
     a3a:	0e 94 48 1d 	call	0x3a90	; 0x3a90 <__floatsisf>
     a3e:	20 e0       	ldi	r18, 0x00	; 0
     a40:	30 e0       	ldi	r19, 0x00	; 0
     a42:	48 ec       	ldi	r20, 0xC8	; 200
     a44:	52 e4       	ldi	r21, 0x42	; 66
     a46:	0e 94 65 1c 	call	0x38ca	; 0x38ca <__divsf3>
     a4a:	69 83       	std	Y+1, r22	; 0x01
     a4c:	7a 83       	std	Y+2, r23	; 0x02
     a4e:	8b 83       	std	Y+3, r24	; 0x03
     a50:	9c 83       	std	Y+4, r25	; 0x04
    return T;
}
     a52:	c6 01       	movw	r24, r12
     a54:	df 91       	pop	r29
     a56:	cf 91       	pop	r28
     a58:	ff 90       	pop	r15
     a5a:	ef 90       	pop	r14
     a5c:	df 90       	pop	r13
     a5e:	cf 90       	pop	r12
     a60:	bf 90       	pop	r11
     a62:	af 90       	pop	r10
     a64:	9f 90       	pop	r9
     a66:	8f 90       	pop	r8
     a68:	7f 90       	pop	r7
     a6a:	6f 90       	pop	r6
     a6c:	5f 90       	pop	r5
     a6e:	4f 90       	pop	r4
     a70:	08 95       	ret

00000a72 <CalcTruePres>:

/**
 * @brief Calculates the true pressure in Pascals.
 * @return The true pressure as an unsigned 32-bit integer.
 */
uint32_t CalcTruePres() {
     a72:	2f 92       	push	r2
     a74:	3f 92       	push	r3
     a76:	4f 92       	push	r4
     a78:	5f 92       	push	r5
     a7a:	6f 92       	push	r6
     a7c:	7f 92       	push	r7
     a7e:	8f 92       	push	r8
     a80:	9f 92       	push	r9
     a82:	af 92       	push	r10
     a84:	bf 92       	push	r11
     a86:	cf 92       	push	r12
     a88:	df 92       	push	r13
     a8a:	ef 92       	push	r14
     a8c:	ff 92       	push	r15
     a8e:	0f 93       	push	r16
     a90:	1f 93       	push	r17
     a92:	cf 93       	push	r28
     a94:	df 93       	push	r29
     a96:	cd b7       	in	r28, 0x3d	; 61
     a98:	de b7       	in	r29, 0x3e	; 62
     a9a:	60 97       	sbiw	r28, 0x10	; 16
     a9c:	cd bf       	out	0x3d, r28	; 61
     a9e:	de bf       	out	0x3e, r29	; 62
    int64_t var1 = 0, var2 = 0, p = 0;
    var1 = ((int64_t)BMP280.CalibrationValues.t_fine) - 128000;
     aa0:	40 90 35 60 	lds	r4, 0x6035	; 0x806035 <BMP280+0x29>
     aa4:	50 90 36 60 	lds	r5, 0x6036	; 0x806036 <BMP280+0x2a>
     aa8:	60 90 37 60 	lds	r6, 0x6037	; 0x806037 <BMP280+0x2b>
     aac:	70 90 38 60 	lds	r7, 0x6038	; 0x806038 <BMP280+0x2c>
     ab0:	d3 01       	movw	r26, r6
     ab2:	c2 01       	movw	r24, r4
     ab4:	bb 0f       	add	r27, r27
     ab6:	88 0b       	sbc	r24, r24
     ab8:	98 2f       	mov	r25, r24
     aba:	dc 01       	movw	r26, r24
     abc:	89 83       	std	Y+1, r24	; 0x01
     abe:	9a 83       	std	Y+2, r25	; 0x02
     ac0:	ab 83       	std	Y+3, r26	; 0x03
     ac2:	bc 83       	std	Y+4, r27	; 0x04
     ac4:	24 2d       	mov	r18, r4
     ac6:	35 2d       	mov	r19, r5
     ac8:	46 2d       	mov	r20, r6
     aca:	57 2d       	mov	r21, r7
     acc:	69 81       	ldd	r22, Y+1	; 0x01
     ace:	76 2f       	mov	r23, r22
     ad0:	86 2f       	mov	r24, r22
     ad2:	96 2f       	mov	r25, r22
     ad4:	34 5f       	subi	r19, 0xF4	; 244
     ad6:	41 40       	sbci	r20, 0x01	; 1
     ad8:	51 09       	sbc	r21, r1
     ada:	61 09       	sbc	r22, r1
     adc:	71 09       	sbc	r23, r1
     ade:	81 09       	sbc	r24, r1
     ae0:	91 09       	sbc	r25, r1
     ae2:	2d 83       	std	Y+5, r18	; 0x05
     ae4:	3e 83       	std	Y+6, r19	; 0x06
     ae6:	4f 83       	std	Y+7, r20	; 0x07
     ae8:	58 87       	std	Y+8, r21	; 0x08
     aea:	26 2e       	mov	r2, r22
     aec:	37 2e       	mov	r3, r23
     aee:	88 2e       	mov	r8, r24
     af0:	99 2e       	mov	r9, r25
    var2 = var1 * var1 * (int64_t)BMP280.CalibrationValues.dig_P6;
     af2:	a2 2e       	mov	r10, r18
     af4:	b3 2e       	mov	r11, r19
     af6:	c4 2e       	mov	r12, r20
     af8:	d5 2e       	mov	r13, r21
     afa:	e6 2e       	mov	r14, r22
     afc:	f7 2e       	mov	r15, r23
     afe:	08 2f       	mov	r16, r24
     b00:	19 2f       	mov	r17, r25
     b02:	0e 94 a5 24 	call	0x494a	; 0x494a <__muldi3>
     b06:	b0 90 26 60 	lds	r11, 0x6026	; 0x806026 <BMP280+0x1a>
     b0a:	a0 90 25 60 	lds	r10, 0x6025	; 0x806025 <BMP280+0x19>
     b0e:	1b 2d       	mov	r17, r11
     b10:	11 0f       	add	r17, r17
     b12:	11 0b       	sbc	r17, r17
     b14:	c1 2e       	mov	r12, r17
     b16:	d1 2e       	mov	r13, r17
     b18:	e1 2e       	mov	r14, r17
     b1a:	f1 2e       	mov	r15, r17
     b1c:	01 2f       	mov	r16, r17
     b1e:	0e 94 a5 24 	call	0x494a	; 0x494a <__muldi3>
     b22:	29 87       	std	Y+9, r18	; 0x09
     b24:	3a 87       	std	Y+10, r19	; 0x0a
     b26:	4b 87       	std	Y+11, r20	; 0x0b
     b28:	5c 87       	std	Y+12, r21	; 0x0c
     b2a:	6d 87       	std	Y+13, r22	; 0x0d
     b2c:	7e 87       	std	Y+14, r23	; 0x0e
     b2e:	8f 87       	std	Y+15, r24	; 0x0f
     b30:	98 8b       	std	Y+16, r25	; 0x10
    var2 = var2 + ((var1 * (int64_t)BMP280.CalibrationValues.dig_P5) << 17);
     b32:	b0 90 24 60 	lds	r11, 0x6024	; 0x806024 <BMP280+0x18>
     b36:	a0 90 23 60 	lds	r10, 0x6023	; 0x806023 <BMP280+0x17>
     b3a:	1b 2d       	mov	r17, r11
     b3c:	11 0f       	add	r17, r17
     b3e:	11 0b       	sbc	r17, r17
     b40:	c1 2e       	mov	r12, r17
     b42:	d1 2e       	mov	r13, r17
     b44:	e1 2e       	mov	r14, r17
     b46:	f1 2e       	mov	r15, r17
     b48:	01 2f       	mov	r16, r17
     b4a:	2d 81       	ldd	r18, Y+5	; 0x05
     b4c:	3e 81       	ldd	r19, Y+6	; 0x06
     b4e:	4f 81       	ldd	r20, Y+7	; 0x07
     b50:	58 85       	ldd	r21, Y+8	; 0x08
     b52:	62 2d       	mov	r22, r2
     b54:	73 2d       	mov	r23, r3
     b56:	88 2d       	mov	r24, r8
     b58:	99 2d       	mov	r25, r9
     b5a:	0e 94 a5 24 	call	0x494a	; 0x494a <__muldi3>
     b5e:	01 e1       	ldi	r16, 0x11	; 17
     b60:	0e 94 cf 25 	call	0x4b9e	; 0x4b9e <__ashldi3>
     b64:	a2 2e       	mov	r10, r18
     b66:	b3 2e       	mov	r11, r19
     b68:	c4 2e       	mov	r12, r20
     b6a:	d5 2e       	mov	r13, r21
     b6c:	e6 2e       	mov	r14, r22
     b6e:	f7 2e       	mov	r15, r23
     b70:	08 2f       	mov	r16, r24
     b72:	19 2f       	mov	r17, r25
     b74:	29 85       	ldd	r18, Y+9	; 0x09
     b76:	3a 85       	ldd	r19, Y+10	; 0x0a
     b78:	4b 85       	ldd	r20, Y+11	; 0x0b
     b7a:	5c 85       	ldd	r21, Y+12	; 0x0c
     b7c:	6d 85       	ldd	r22, Y+13	; 0x0d
     b7e:	7e 85       	ldd	r23, Y+14	; 0x0e
     b80:	8f 85       	ldd	r24, Y+15	; 0x0f
     b82:	98 89       	ldd	r25, Y+16	; 0x10
     b84:	0e 94 06 26 	call	0x4c0c	; 0x4c0c <__adddi3>
     b88:	82 2e       	mov	r8, r18
     b8a:	93 2e       	mov	r9, r19
     b8c:	24 2e       	mov	r2, r20
     b8e:	35 2e       	mov	r3, r21
     b90:	b6 2f       	mov	r27, r22
     b92:	a7 2f       	mov	r26, r23
     b94:	f8 2f       	mov	r31, r24
     b96:	e9 2f       	mov	r30, r25
    var2 = var2 + (((int64_t)BMP280.CalibrationValues.dig_P4) << 35);
     b98:	30 91 22 60 	lds	r19, 0x6022	; 0x806022 <BMP280+0x16>
     b9c:	20 91 21 60 	lds	r18, 0x6021	; 0x806021 <BMP280+0x15>
     ba0:	93 2f       	mov	r25, r19
     ba2:	99 0f       	add	r25, r25
     ba4:	99 0b       	sbc	r25, r25
     ba6:	49 2f       	mov	r20, r25
     ba8:	59 2f       	mov	r21, r25
     baa:	69 2f       	mov	r22, r25
     bac:	79 2f       	mov	r23, r25
     bae:	89 2f       	mov	r24, r25
     bb0:	03 e2       	ldi	r16, 0x23	; 35
     bb2:	0e 94 cf 25 	call	0x4b9e	; 0x4b9e <__ashldi3>
     bb6:	a2 2e       	mov	r10, r18
     bb8:	b3 2e       	mov	r11, r19
     bba:	c4 2e       	mov	r12, r20
     bbc:	d5 2e       	mov	r13, r21
     bbe:	e6 2e       	mov	r14, r22
     bc0:	f7 2e       	mov	r15, r23
     bc2:	08 2f       	mov	r16, r24
     bc4:	19 2f       	mov	r17, r25
     bc6:	28 2d       	mov	r18, r8
     bc8:	39 2d       	mov	r19, r9
     bca:	42 2d       	mov	r20, r2
     bcc:	53 2d       	mov	r21, r3
     bce:	6b 2f       	mov	r22, r27
     bd0:	7a 2f       	mov	r23, r26
     bd2:	8f 2f       	mov	r24, r31
     bd4:	9e 2f       	mov	r25, r30
     bd6:	0e 94 06 26 	call	0x4c0c	; 0x4c0c <__adddi3>
     bda:	2d 83       	std	Y+5, r18	; 0x05
     bdc:	3e 83       	std	Y+6, r19	; 0x06
     bde:	4f 83       	std	Y+7, r20	; 0x07
     be0:	58 87       	std	Y+8, r21	; 0x08
     be2:	69 87       	std	Y+9, r22	; 0x09
     be4:	7a 87       	std	Y+10, r23	; 0x0a
     be6:	8b 87       	std	Y+11, r24	; 0x0b
     be8:	9c 87       	std	Y+12, r25	; 0x0c
    var1 = (((((int64_t)1) << 47) + var1)) * ((int64_t)BMP280.CalibrationValues.dig_P1) >> 33;
     bea:	24 2d       	mov	r18, r4
     bec:	35 2d       	mov	r19, r5
     bee:	46 2d       	mov	r20, r6
     bf0:	57 2d       	mov	r21, r7
     bf2:	69 81       	ldd	r22, Y+1	; 0x01
     bf4:	76 2f       	mov	r23, r22
     bf6:	86 2f       	mov	r24, r22
     bf8:	96 2f       	mov	r25, r22
     bfa:	34 5f       	subi	r19, 0xF4	; 244
     bfc:	41 40       	sbci	r20, 0x01	; 1
     bfe:	51 09       	sbc	r21, r1
     c00:	61 09       	sbc	r22, r1
     c02:	70 48       	sbci	r23, 0x80	; 128
     c04:	8f 4f       	sbci	r24, 0xFF	; 255
     c06:	9f 4f       	sbci	r25, 0xFF	; 255
     c08:	e0 91 1b 60 	lds	r30, 0x601B	; 0x80601b <BMP280+0xf>
     c0c:	f0 91 1c 60 	lds	r31, 0x601C	; 0x80601c <BMP280+0x10>
     c10:	1f 01       	movw	r2, r30
     c12:	ae 2e       	mov	r10, r30
     c14:	b3 2c       	mov	r11, r3
     c16:	c1 2c       	mov	r12, r1
     c18:	d1 2c       	mov	r13, r1
     c1a:	e1 2c       	mov	r14, r1
     c1c:	f1 2c       	mov	r15, r1
     c1e:	00 e0       	ldi	r16, 0x00	; 0
     c20:	10 e0       	ldi	r17, 0x00	; 0
     c22:	0e 94 a5 24 	call	0x494a	; 0x494a <__muldi3>
     c26:	01 e2       	ldi	r16, 0x21	; 33
     c28:	0e 94 e8 25 	call	0x4bd0	; 0x4bd0 <__ashrdi3>
     c2c:	42 2e       	mov	r4, r18
     c2e:	53 2e       	mov	r5, r19
     c30:	64 2e       	mov	r6, r20
     c32:	75 2e       	mov	r7, r21
     c34:	86 2e       	mov	r8, r22
     c36:	97 2e       	mov	r9, r23
     c38:	28 2e       	mov	r2, r24
     c3a:	39 2e       	mov	r3, r25

    if (var1 == 0)
     c3c:	a0 e0       	ldi	r26, 0x00	; 0
     c3e:	0e 94 18 26 	call	0x4c30	; 0x4c30 <__cmpdi2_s8>
     c42:	09 f4       	brne	.+2      	; 0xc46 <CalcTruePres+0x1d4>
     c44:	20 c1       	rjmp	.+576    	; 0xe86 <CalcTruePres+0x414>
        return 0;

    p = 1048576 - BMP280.CalibrationValues.UP;
     c46:	40 91 31 60 	lds	r20, 0x6031	; 0x806031 <BMP280+0x25>
     c4a:	50 91 32 60 	lds	r21, 0x6032	; 0x806032 <BMP280+0x26>
     c4e:	60 91 33 60 	lds	r22, 0x6033	; 0x806033 <BMP280+0x27>
     c52:	70 91 34 60 	lds	r23, 0x6034	; 0x806034 <BMP280+0x28>
     c56:	80 e0       	ldi	r24, 0x00	; 0
     c58:	90 e0       	ldi	r25, 0x00	; 0
     c5a:	a0 e1       	ldi	r26, 0x10	; 16
     c5c:	b0 e0       	ldi	r27, 0x00	; 0
     c5e:	84 1b       	sub	r24, r20
     c60:	95 0b       	sbc	r25, r21
     c62:	a6 0b       	sbc	r26, r22
     c64:	b7 0b       	sbc	r27, r23
     c66:	6c 01       	movw	r12, r24
     c68:	7d 01       	movw	r14, r26
     c6a:	ff 0c       	add	r15, r15
     c6c:	cc 08       	sbc	r12, r12
     c6e:	dc 2c       	mov	r13, r12
     c70:	76 01       	movw	r14, r12
    p = (((p << 31) - var2) * 3125) / var1;
     c72:	28 2f       	mov	r18, r24
     c74:	39 2f       	mov	r19, r25
     c76:	4a 2f       	mov	r20, r26
     c78:	5b 2f       	mov	r21, r27
     c7a:	6c 2d       	mov	r22, r12
     c7c:	7c 2d       	mov	r23, r12
     c7e:	8c 2d       	mov	r24, r12
     c80:	9c 2d       	mov	r25, r12
     c82:	0f e1       	ldi	r16, 0x1F	; 31
     c84:	0e 94 cf 25 	call	0x4b9e	; 0x4b9e <__ashldi3>
     c88:	ad 80       	ldd	r10, Y+5	; 0x05
     c8a:	be 80       	ldd	r11, Y+6	; 0x06
     c8c:	cf 80       	ldd	r12, Y+7	; 0x07
     c8e:	d8 84       	ldd	r13, Y+8	; 0x08
     c90:	e9 84       	ldd	r14, Y+9	; 0x09
     c92:	fa 84       	ldd	r15, Y+10	; 0x0a
     c94:	0b 85       	ldd	r16, Y+11	; 0x0b
     c96:	1c 85       	ldd	r17, Y+12	; 0x0c
     c98:	0e 94 0f 26 	call	0x4c1e	; 0x4c1e <__subdi3>
     c9c:	0f 2e       	mov	r0, r31
     c9e:	f5 e3       	ldi	r31, 0x35	; 53
     ca0:	af 2e       	mov	r10, r31
     ca2:	f0 2d       	mov	r31, r0
     ca4:	0f 2e       	mov	r0, r31
     ca6:	fc e0       	ldi	r31, 0x0C	; 12
     ca8:	bf 2e       	mov	r11, r31
     caa:	f0 2d       	mov	r31, r0
     cac:	c1 2c       	mov	r12, r1
     cae:	d1 2c       	mov	r13, r1
     cb0:	e1 2c       	mov	r14, r1
     cb2:	f1 2c       	mov	r15, r1
     cb4:	00 e0       	ldi	r16, 0x00	; 0
     cb6:	10 e0       	ldi	r17, 0x00	; 0
     cb8:	0e 94 a5 24 	call	0x494a	; 0x494a <__muldi3>
     cbc:	a4 2c       	mov	r10, r4
     cbe:	b5 2c       	mov	r11, r5
     cc0:	c6 2c       	mov	r12, r6
     cc2:	d7 2c       	mov	r13, r7
     cc4:	e8 2c       	mov	r14, r8
     cc6:	f9 2c       	mov	r15, r9
     cc8:	02 2d       	mov	r16, r2
     cca:	13 2d       	mov	r17, r3
     ccc:	0e 94 00 25 	call	0x4a00	; 0x4a00 <__divdi3>
     cd0:	29 83       	std	Y+1, r18	; 0x01
     cd2:	3d 83       	std	Y+5, r19	; 0x05
     cd4:	4e 83       	std	Y+6, r20	; 0x06
     cd6:	5f 83       	std	Y+7, r21	; 0x07
     cd8:	68 87       	std	Y+8, r22	; 0x08
     cda:	79 87       	std	Y+9, r23	; 0x09
     cdc:	8a 87       	std	Y+10, r24	; 0x0a
     cde:	9b 87       	std	Y+11, r25	; 0x0b
    var1 = (((int64_t)BMP280.CalibrationValues.dig_P9) * (p >> 13) * (p >> 13)) >> 25;
     ce0:	f0 91 2c 60 	lds	r31, 0x602C	; 0x80602c <BMP280+0x20>
     ce4:	a0 91 2b 60 	lds	r26, 0x602B	; 0x80602b <BMP280+0x1f>
     ce8:	ef 2f       	mov	r30, r31
     cea:	ee 0f       	add	r30, r30
     cec:	ee 0b       	sbc	r30, r30
     cee:	0d e0       	ldi	r16, 0x0D	; 13
     cf0:	0e 94 e8 25 	call	0x4bd0	; 0x4bd0 <__ashrdi3>
     cf4:	22 2e       	mov	r2, r18
     cf6:	33 2e       	mov	r3, r19
     cf8:	44 2e       	mov	r4, r20
     cfa:	55 2e       	mov	r5, r21
     cfc:	66 2e       	mov	r6, r22
     cfe:	77 2e       	mov	r7, r23
     d00:	88 2e       	mov	r8, r24
     d02:	99 2e       	mov	r9, r25
     d04:	a2 2e       	mov	r10, r18
     d06:	b3 2e       	mov	r11, r19
     d08:	c4 2e       	mov	r12, r20
     d0a:	d5 2e       	mov	r13, r21
     d0c:	e6 2e       	mov	r14, r22
     d0e:	f7 2e       	mov	r15, r23
     d10:	08 2f       	mov	r16, r24
     d12:	19 2f       	mov	r17, r25
     d14:	2a 2f       	mov	r18, r26
     d16:	3f 2f       	mov	r19, r31
     d18:	4e 2f       	mov	r20, r30
     d1a:	5e 2f       	mov	r21, r30
     d1c:	6e 2f       	mov	r22, r30
     d1e:	7e 2f       	mov	r23, r30
     d20:	8e 2f       	mov	r24, r30
     d22:	9e 2f       	mov	r25, r30
     d24:	0e 94 a5 24 	call	0x494a	; 0x494a <__muldi3>
     d28:	a2 2e       	mov	r10, r18
     d2a:	b3 2e       	mov	r11, r19
     d2c:	c4 2e       	mov	r12, r20
     d2e:	d5 2e       	mov	r13, r21
     d30:	e6 2e       	mov	r14, r22
     d32:	f7 2e       	mov	r15, r23
     d34:	08 2f       	mov	r16, r24
     d36:	19 2f       	mov	r17, r25
     d38:	22 2d       	mov	r18, r2
     d3a:	33 2d       	mov	r19, r3
     d3c:	44 2d       	mov	r20, r4
     d3e:	55 2d       	mov	r21, r5
     d40:	66 2d       	mov	r22, r6
     d42:	77 2d       	mov	r23, r7
     d44:	88 2d       	mov	r24, r8
     d46:	99 2d       	mov	r25, r9
     d48:	0e 94 a5 24 	call	0x494a	; 0x494a <__muldi3>
     d4c:	09 e1       	ldi	r16, 0x19	; 25
     d4e:	0e 94 e8 25 	call	0x4bd0	; 0x4bd0 <__ashrdi3>
     d52:	52 2e       	mov	r5, r18
     d54:	43 2e       	mov	r4, r19
     d56:	34 2e       	mov	r3, r20
     d58:	25 2e       	mov	r2, r21
     d5a:	6c 87       	std	Y+12, r22	; 0x0c
     d5c:	7d 87       	std	Y+13, r23	; 0x0d
     d5e:	8e 87       	std	Y+14, r24	; 0x0e
     d60:	9f 87       	std	Y+15, r25	; 0x0f
    var2 = (((int64_t)BMP280.CalibrationValues.dig_P8) * p) >> 19;
     d62:	b0 90 2a 60 	lds	r11, 0x602A	; 0x80602a <BMP280+0x1e>
     d66:	a0 90 29 60 	lds	r10, 0x6029	; 0x806029 <BMP280+0x1d>
     d6a:	1b 2d       	mov	r17, r11
     d6c:	11 0f       	add	r17, r17
     d6e:	11 0b       	sbc	r17, r17
     d70:	c1 2e       	mov	r12, r17
     d72:	d1 2e       	mov	r13, r17
     d74:	e1 2e       	mov	r14, r17
     d76:	f1 2e       	mov	r15, r17
     d78:	01 2f       	mov	r16, r17
     d7a:	29 81       	ldd	r18, Y+1	; 0x01
     d7c:	3d 81       	ldd	r19, Y+5	; 0x05
     d7e:	4e 81       	ldd	r20, Y+6	; 0x06
     d80:	5f 81       	ldd	r21, Y+7	; 0x07
     d82:	68 85       	ldd	r22, Y+8	; 0x08
     d84:	79 85       	ldd	r23, Y+9	; 0x09
     d86:	8a 85       	ldd	r24, Y+10	; 0x0a
     d88:	9b 85       	ldd	r25, Y+11	; 0x0b
     d8a:	0e 94 a5 24 	call	0x494a	; 0x494a <__muldi3>
     d8e:	03 e1       	ldi	r16, 0x13	; 19
     d90:	0e 94 e8 25 	call	0x4bd0	; 0x4bd0 <__ashrdi3>
     d94:	62 2e       	mov	r6, r18
     d96:	73 2e       	mov	r7, r19
     d98:	84 2e       	mov	r8, r20
     d9a:	95 2e       	mov	r9, r21
     d9c:	b6 2f       	mov	r27, r22
     d9e:	a7 2f       	mov	r26, r23
     da0:	f8 2f       	mov	r31, r24
     da2:	e9 2f       	mov	r30, r25
    p = ((p + var1 + var2) >> 8) + (((int64_t)BMP280.CalibrationValues.dig_P7) << 4);
     da4:	29 81       	ldd	r18, Y+1	; 0x01
     da6:	3d 81       	ldd	r19, Y+5	; 0x05
     da8:	4e 81       	ldd	r20, Y+6	; 0x06
     daa:	5f 81       	ldd	r21, Y+7	; 0x07
     dac:	68 85       	ldd	r22, Y+8	; 0x08
     dae:	79 85       	ldd	r23, Y+9	; 0x09
     db0:	8a 85       	ldd	r24, Y+10	; 0x0a
     db2:	9b 85       	ldd	r25, Y+11	; 0x0b
     db4:	a5 2c       	mov	r10, r5
     db6:	b4 2c       	mov	r11, r4
     db8:	c3 2c       	mov	r12, r3
     dba:	d2 2c       	mov	r13, r2
     dbc:	ec 84       	ldd	r14, Y+12	; 0x0c
     dbe:	fd 84       	ldd	r15, Y+13	; 0x0d
     dc0:	0e 85       	ldd	r16, Y+14	; 0x0e
     dc2:	1f 85       	ldd	r17, Y+15	; 0x0f
     dc4:	0e 94 06 26 	call	0x4c0c	; 0x4c0c <__adddi3>
     dc8:	a2 2e       	mov	r10, r18
     dca:	b3 2e       	mov	r11, r19
     dcc:	c4 2e       	mov	r12, r20
     dce:	d5 2e       	mov	r13, r21
     dd0:	e6 2e       	mov	r14, r22
     dd2:	f7 2e       	mov	r15, r23
     dd4:	08 2f       	mov	r16, r24
     dd6:	19 2f       	mov	r17, r25
     dd8:	26 2d       	mov	r18, r6
     dda:	37 2d       	mov	r19, r7
     ddc:	48 2d       	mov	r20, r8
     dde:	59 2d       	mov	r21, r9
     de0:	6b 2f       	mov	r22, r27
     de2:	7a 2f       	mov	r23, r26
     de4:	8f 2f       	mov	r24, r31
     de6:	9e 2f       	mov	r25, r30
     de8:	0e 94 06 26 	call	0x4c0c	; 0x4c0c <__adddi3>
     dec:	08 e0       	ldi	r16, 0x08	; 8
     dee:	0e 94 e8 25 	call	0x4bd0	; 0x4bd0 <__ashrdi3>
     df2:	82 2e       	mov	r8, r18
     df4:	93 2e       	mov	r9, r19
     df6:	64 2e       	mov	r6, r20
     df8:	75 2e       	mov	r7, r21
     dfa:	b6 2f       	mov	r27, r22
     dfc:	a7 2f       	mov	r26, r23
     dfe:	f8 2f       	mov	r31, r24
     e00:	e9 2f       	mov	r30, r25
     e02:	30 91 28 60 	lds	r19, 0x6028	; 0x806028 <BMP280+0x1c>
     e06:	20 91 27 60 	lds	r18, 0x6027	; 0x806027 <BMP280+0x1b>
     e0a:	93 2f       	mov	r25, r19
     e0c:	99 0f       	add	r25, r25
     e0e:	99 0b       	sbc	r25, r25
     e10:	49 2f       	mov	r20, r25
     e12:	59 2f       	mov	r21, r25
     e14:	69 2f       	mov	r22, r25
     e16:	79 2f       	mov	r23, r25
     e18:	89 2f       	mov	r24, r25
     e1a:	04 e0       	ldi	r16, 0x04	; 4
     e1c:	0e 94 cf 25 	call	0x4b9e	; 0x4b9e <__ashldi3>
     e20:	a2 2e       	mov	r10, r18
     e22:	b3 2e       	mov	r11, r19
     e24:	c4 2e       	mov	r12, r20
     e26:	d5 2e       	mov	r13, r21
     e28:	e6 2e       	mov	r14, r22
     e2a:	f7 2e       	mov	r15, r23
     e2c:	08 2f       	mov	r16, r24
     e2e:	19 2f       	mov	r17, r25
     e30:	28 2d       	mov	r18, r8
     e32:	39 2d       	mov	r19, r9
     e34:	46 2d       	mov	r20, r6
     e36:	57 2d       	mov	r21, r7
     e38:	6b 2f       	mov	r22, r27
     e3a:	7a 2f       	mov	r23, r26
     e3c:	8f 2f       	mov	r24, r31
     e3e:	9e 2f       	mov	r25, r30
     e40:	0e 94 06 26 	call	0x4c0c	; 0x4c0c <__adddi3>
     e44:	02 2f       	mov	r16, r18
     e46:	13 2f       	mov	r17, r19
     e48:	e4 2e       	mov	r14, r20
     e4a:	f5 2e       	mov	r15, r21

    BMP280.Pressure = (float)p / 25600;
     e4c:	0e 94 40 1d 	call	0x3a80	; 0x3a80 <__floatdisf>
     e50:	20 e0       	ldi	r18, 0x00	; 0
     e52:	30 e0       	ldi	r19, 0x00	; 0
     e54:	48 ec       	ldi	r20, 0xC8	; 200
     e56:	56 e4       	ldi	r21, 0x46	; 70
     e58:	0e 94 65 1c 	call	0x38ca	; 0x38ca <__divsf3>
     e5c:	60 93 11 60 	sts	0x6011, r22	; 0x806011 <BMP280+0x5>
     e60:	70 93 12 60 	sts	0x6012, r23	; 0x806012 <BMP280+0x6>
     e64:	80 93 13 60 	sts	0x6013, r24	; 0x806013 <BMP280+0x7>
     e68:	90 93 14 60 	sts	0x6014, r25	; 0x806014 <BMP280+0x8>
    BMP280.CalibrationValues.p = p;
     e6c:	60 2f       	mov	r22, r16
     e6e:	71 2f       	mov	r23, r17
     e70:	8e 2d       	mov	r24, r14
     e72:	9f 2d       	mov	r25, r15
     e74:	00 93 3b 60 	sts	0x603B, r16	; 0x80603b <BMP280+0x2f>
     e78:	10 93 3c 60 	sts	0x603C, r17	; 0x80603c <BMP280+0x30>
     e7c:	e0 92 3d 60 	sts	0x603D, r14	; 0x80603d <BMP280+0x31>
     e80:	f0 92 3e 60 	sts	0x603E, r15	; 0x80603e <BMP280+0x32>
    return (uint32_t)p;
     e84:	04 c0       	rjmp	.+8      	; 0xe8e <CalcTruePres+0x41c>
    var2 = var2 + ((var1 * (int64_t)BMP280.CalibrationValues.dig_P5) << 17);
    var2 = var2 + (((int64_t)BMP280.CalibrationValues.dig_P4) << 35);
    var1 = (((((int64_t)1) << 47) + var1)) * ((int64_t)BMP280.CalibrationValues.dig_P1) >> 33;

    if (var1 == 0)
        return 0;
     e86:	60 e0       	ldi	r22, 0x00	; 0
     e88:	70 e0       	ldi	r23, 0x00	; 0
     e8a:	80 e0       	ldi	r24, 0x00	; 0
     e8c:	90 e0       	ldi	r25, 0x00	; 0
    p = ((p + var1 + var2) >> 8) + (((int64_t)BMP280.CalibrationValues.dig_P7) << 4);

    BMP280.Pressure = (float)p / 25600;
    BMP280.CalibrationValues.p = p;
    return (uint32_t)p;
}
     e8e:	60 96       	adiw	r28, 0x10	; 16
     e90:	cd bf       	out	0x3d, r28	; 61
     e92:	de bf       	out	0x3e, r29	; 62
     e94:	df 91       	pop	r29
     e96:	cf 91       	pop	r28
     e98:	1f 91       	pop	r17
     e9a:	0f 91       	pop	r16
     e9c:	ff 90       	pop	r15
     e9e:	ef 90       	pop	r14
     ea0:	df 90       	pop	r13
     ea2:	cf 90       	pop	r12
     ea4:	bf 90       	pop	r11
     ea6:	af 90       	pop	r10
     ea8:	9f 90       	pop	r9
     eaa:	8f 90       	pop	r8
     eac:	7f 90       	pop	r7
     eae:	6f 90       	pop	r6
     eb0:	5f 90       	pop	r5
     eb2:	4f 90       	pop	r4
     eb4:	3f 90       	pop	r3
     eb6:	2f 90       	pop	r2
     eb8:	08 95       	ret

00000eba <CLOCK_XOSCHF_crystal_init>:
 * source and clears the main clock prescaler.
 */
void CLOCK_XOSCHF_crystal_init()
{
    /* Enable crystal oscillator with frequency range 16 MHz and 4K cycles start-up time */
    ccp_write_io((uint8_t *) &CLKCTRL.XOSCHFCTRLA, CLKCTRL_RUNSTDBY_bm
     eba:	69 ea       	ldi	r22, 0xA9	; 169
     ebc:	80 e8       	ldi	r24, 0x80	; 128
     ebe:	90 e0       	ldi	r25, 0x00	; 0
     ec0:	0e 94 de 2c 	call	0x59bc	; 0x59bc <ccp_write_io>
        | CLKCTRL_FRQRANGE_24M_gc
        | CLKCTRL_SELHF_XTAL_gc
        | CLKCTRL_ENABLE_bm);

    /* Confirm crystal oscillator start-up */
    while (!(CLKCTRL.MCLKSTATUS & CLKCTRL_EXTS_bm))
     ec4:	80 91 65 00 	lds	r24, 0x0065	; 0x800065 <__TEXT_REGION_LENGTH__+0x7f0065>
     ec8:	84 ff       	sbrs	r24, 4
     eca:	fc cf       	rjmp	.-8      	; 0xec4 <CLOCK_XOSCHF_crystal_init+0xa>
    {
        /* Wait for the external clock to stabilize */
    }

    /* Clear Main Clock Prescaler */
    ccp_write_io((uint8_t *) &CLKCTRL.MCLKCTRLB, 0x00);
     ecc:	60 e0       	ldi	r22, 0x00	; 0
     ece:	81 e6       	ldi	r24, 0x61	; 97
     ed0:	90 e0       	ldi	r25, 0x00	; 0
     ed2:	0e 94 de 2c 	call	0x59bc	; 0x59bc <ccp_write_io>

    /* Set the main clock to use XOSCHF as source */
    ccp_write_io((uint8_t *) &CLKCTRL.MCLKCTRLA, CLKCTRL_CLKSEL_EXTCLK_gc /*| CLKCTRL_CLKOUT_bm*/);
     ed6:	63 e0       	ldi	r22, 0x03	; 3
     ed8:	80 e6       	ldi	r24, 0x60	; 96
     eda:	90 e0       	ldi	r25, 0x00	; 0
     edc:	0e 94 de 2c 	call	0x59bc	; 0x59bc <ccp_write_io>

    /* Wait for system oscillator change to complete */
    while (CLKCTRL.MCLKSTATUS & CLKCTRL_SOSC_bm)
     ee0:	80 91 65 00 	lds	r24, 0x0065	; 0x800065 <__TEXT_REGION_LENGTH__+0x7f0065>
     ee4:	80 fd       	sbrc	r24, 0
     ee6:	fc cf       	rjmp	.-8      	; 0xee0 <CLOCK_XOSCHF_crystal_init+0x26>
    {
        /* Wait for the system clock to stabilize */
    }

    /* Disable RUNSTDBY for power saving during sleep */
    ccp_write_io((uint8_t *) &CLKCTRL.XOSCHFCTRLA, CLKCTRL.XOSCHFCTRLA & ~CLKCTRL_RUNSTDBY_bm);
     ee8:	60 91 80 00 	lds	r22, 0x0080	; 0x800080 <__TEXT_REGION_LENGTH__+0x7f0080>
     eec:	6f 77       	andi	r22, 0x7F	; 127
     eee:	80 e8       	ldi	r24, 0x80	; 128
     ef0:	90 e0       	ldi	r25, 0x00	; 0
     ef2:	0e 94 de 2c 	call	0x59bc	; 0x59bc <ccp_write_io>
     ef6:	08 95       	ret

00000ef8 <executeCommand>:
 * 
 * @param[in] command Pointer to the command string to be processed.
 */
void executeCommand(char *command) {
    // Extract tokens from the command string
    char *token = strtok(command, "|");
     ef8:	61 ec       	ldi	r22, 0xC1	; 193
     efa:	73 e6       	ldi	r23, 0x63	; 99
     efc:	0e 94 29 27 	call	0x4e52	; 0x4e52 <strtok>

    if (token != NULL) {
     f00:	00 97       	sbiw	r24, 0x00	; 0
     f02:	49 f1       	breq	.+82     	; 0xf56 <executeCommand+0x5e>
        // Parse the first token for date and time
        sscanf(token, "%4u%2u%2u%2u%2u%2u%1u", 
     f04:	23 e5       	ldi	r18, 0x53	; 83
     f06:	30 e6       	ldi	r19, 0x60	; 96
     f08:	3f 93       	push	r19
     f0a:	2f 93       	push	r18
     f0c:	21 e5       	ldi	r18, 0x51	; 81
     f0e:	30 e6       	ldi	r19, 0x60	; 96
     f10:	3f 93       	push	r19
     f12:	2f 93       	push	r18
     f14:	2f e4       	ldi	r18, 0x4F	; 79
     f16:	30 e6       	ldi	r19, 0x60	; 96
     f18:	3f 93       	push	r19
     f1a:	2f 93       	push	r18
     f1c:	2d e4       	ldi	r18, 0x4D	; 77
     f1e:	30 e6       	ldi	r19, 0x60	; 96
     f20:	3f 93       	push	r19
     f22:	2f 93       	push	r18
     f24:	2b e4       	ldi	r18, 0x4B	; 75
     f26:	30 e6       	ldi	r19, 0x60	; 96
     f28:	3f 93       	push	r19
     f2a:	2f 93       	push	r18
     f2c:	29 e4       	ldi	r18, 0x49	; 73
     f2e:	30 e6       	ldi	r19, 0x60	; 96
     f30:	3f 93       	push	r19
     f32:	2f 93       	push	r18
     f34:	27 e4       	ldi	r18, 0x47	; 71
     f36:	30 e6       	ldi	r19, 0x60	; 96
     f38:	3f 93       	push	r19
     f3a:	2f 93       	push	r18
     f3c:	23 ec       	ldi	r18, 0xC3	; 195
     f3e:	33 e6       	ldi	r19, 0x63	; 99
     f40:	3f 93       	push	r19
     f42:	2f 93       	push	r18
     f44:	9f 93       	push	r25
     f46:	8f 93       	push	r24
     f48:	0e 94 ba 27 	call	0x4f74	; 0x4f74 <sscanf>
     f4c:	8d b7       	in	r24, 0x3d	; 61
     f4e:	9e b7       	in	r25, 0x3e	; 62
     f50:	42 96       	adiw	r24, 0x12	; 18
     f52:	8d bf       	out	0x3d, r24	; 61
     f54:	9e bf       	out	0x3e, r25	; 62
            &Date_Clock.hour, &Date_Clock.minute, &Date_Clock.second, 
            &Date_Clock.hunderts);
    }

    // Parse additional tokens for solar angles, latitude, longitude, and timezone
    if ((token = strtok(NULL, "|")) != NULL) {
     f56:	61 ec       	ldi	r22, 0xC1	; 193
     f58:	73 e6       	ldi	r23, 0x63	; 99
     f5a:	80 e0       	ldi	r24, 0x00	; 0
     f5c:	90 e0       	ldi	r25, 0x00	; 0
     f5e:	0e 94 29 27 	call	0x4e52	; 0x4e52 <strtok>
     f62:	00 97       	sbiw	r24, 0x00	; 0
     f64:	51 f0       	breq	.+20     	; 0xf7a <executeCommand+0x82>
        SUN.azimuth = atof(token);
     f66:	0e 94 24 26 	call	0x4c48	; 0x4c48 <atof>
     f6a:	60 93 58 68 	sts	0x6858, r22	; 0x806858 <SUN+0x4>
     f6e:	70 93 59 68 	sts	0x6859, r23	; 0x806859 <SUN+0x5>
     f72:	80 93 5a 68 	sts	0x685A, r24	; 0x80685a <SUN+0x6>
     f76:	90 93 5b 68 	sts	0x685B, r25	; 0x80685b <SUN+0x7>
    }
    if ((token = strtok(NULL, "|")) != NULL) {
     f7a:	61 ec       	ldi	r22, 0xC1	; 193
     f7c:	73 e6       	ldi	r23, 0x63	; 99
     f7e:	80 e0       	ldi	r24, 0x00	; 0
     f80:	90 e0       	ldi	r25, 0x00	; 0
     f82:	0e 94 29 27 	call	0x4e52	; 0x4e52 <strtok>
     f86:	00 97       	sbiw	r24, 0x00	; 0
     f88:	51 f0       	breq	.+20     	; 0xf9e <executeCommand+0xa6>
        SUN.elevation = atof(token);
     f8a:	0e 94 24 26 	call	0x4c48	; 0x4c48 <atof>
     f8e:	60 93 54 68 	sts	0x6854, r22	; 0x806854 <SUN>
     f92:	70 93 55 68 	sts	0x6855, r23	; 0x806855 <SUN+0x1>
     f96:	80 93 56 68 	sts	0x6856, r24	; 0x806856 <SUN+0x2>
     f9a:	90 93 57 68 	sts	0x6857, r25	; 0x806857 <SUN+0x3>
    }
    if ((token = strtok(NULL, "|")) != NULL) {
     f9e:	61 ec       	ldi	r22, 0xC1	; 193
     fa0:	73 e6       	ldi	r23, 0x63	; 99
     fa2:	80 e0       	ldi	r24, 0x00	; 0
     fa4:	90 e0       	ldi	r25, 0x00	; 0
     fa6:	0e 94 29 27 	call	0x4e52	; 0x4e52 <strtok>
     faa:	00 97       	sbiw	r24, 0x00	; 0
     fac:	51 f0       	breq	.+20     	; 0xfc2 <executeCommand+0xca>
        Date_Clock.latitude = atof(token);
     fae:	0e 94 24 26 	call	0x4c48	; 0x4c48 <atof>
     fb2:	60 93 55 60 	sts	0x6055, r22	; 0x806055 <Date_Clock+0xe>
     fb6:	70 93 56 60 	sts	0x6056, r23	; 0x806056 <Date_Clock+0xf>
     fba:	80 93 57 60 	sts	0x6057, r24	; 0x806057 <Date_Clock+0x10>
     fbe:	90 93 58 60 	sts	0x6058, r25	; 0x806058 <Date_Clock+0x11>
    }
    if ((token = strtok(NULL, "|")) != NULL) {
     fc2:	61 ec       	ldi	r22, 0xC1	; 193
     fc4:	73 e6       	ldi	r23, 0x63	; 99
     fc6:	80 e0       	ldi	r24, 0x00	; 0
     fc8:	90 e0       	ldi	r25, 0x00	; 0
     fca:	0e 94 29 27 	call	0x4e52	; 0x4e52 <strtok>
     fce:	00 97       	sbiw	r24, 0x00	; 0
     fd0:	51 f0       	breq	.+20     	; 0xfe6 <executeCommand+0xee>
        Date_Clock.longitude = atof(token);
     fd2:	0e 94 24 26 	call	0x4c48	; 0x4c48 <atof>
     fd6:	60 93 59 60 	sts	0x6059, r22	; 0x806059 <Date_Clock+0x12>
     fda:	70 93 5a 60 	sts	0x605A, r23	; 0x80605a <Date_Clock+0x13>
     fde:	80 93 5b 60 	sts	0x605B, r24	; 0x80605b <Date_Clock+0x14>
     fe2:	90 93 5c 60 	sts	0x605C, r25	; 0x80605c <Date_Clock+0x15>
    }
    if ((token = strtok(NULL, "|")) != NULL) {
     fe6:	61 ec       	ldi	r22, 0xC1	; 193
     fe8:	73 e6       	ldi	r23, 0x63	; 99
     fea:	80 e0       	ldi	r24, 0x00	; 0
     fec:	90 e0       	ldi	r25, 0x00	; 0
     fee:	0e 94 29 27 	call	0x4e52	; 0x4e52 <strtok>
     ff2:	00 97       	sbiw	r24, 0x00	; 0
     ff4:	31 f0       	breq	.+12     	; 0x1002 <executeCommand+0x10a>
        Date_Clock.timezone = atoi(token);
     ff6:	0e 94 28 26 	call	0x4c50	; 0x4c50 <atoi>
     ffa:	80 93 5d 60 	sts	0x605D, r24	; 0x80605d <Date_Clock+0x16>
     ffe:	90 93 5e 60 	sts	0x605E, r25	; 0x80605e <Date_Clock+0x17>
    1002:	08 95       	ret

00001004 <ClockAndDataReader>:
 * @brief Reads and processes clock and data commands.
 * 
 * The function listens for data input, processes commands between `<` and `>` delimiters,
 * and handles error conditions related to data validity.
 */
void ClockAndDataReader() {
    1004:	0f 93       	push	r16
    1006:	1f 93       	push	r17
    1008:	cf 93       	push	r28
    100a:	df 93       	push	r29
    100c:	cd b7       	in	r28, 0x3d	; 61
    100e:	de b7       	in	r29, 0x3e	; 62
    1010:	ec 97       	sbiw	r28, 0x3c	; 60
    1012:	cd bf       	out	0x3d, r28	; 61
    1014:	de bf       	out	0x3e, r29	; 62
    uint8_t index = 0;
    char command[60] = {0};
    1016:	fe 01       	movw	r30, r28
    1018:	31 96       	adiw	r30, 0x01	; 1
    101a:	8c e3       	ldi	r24, 0x3C	; 60
    101c:	df 01       	movw	r26, r30
    101e:	1d 92       	st	X+, r1
    1020:	8a 95       	dec	r24
    1022:	e9 f7       	brne	.-6      	; 0x101e <ClockAndDataReader+0x1a>
    uint8_t start = 0;
    1024:	10 e0       	ldi	r17, 0x00	; 0
 * 
 * The function listens for data input, processes commands between `<` and `>` delimiters,
 * and handles error conditions related to data validity.
 */
void ClockAndDataReader() {
    uint8_t index = 0;
    1026:	00 e0       	ldi	r16, 0x00	; 0
    char command[60] = {0};
    uint8_t start = 0;

    while (1) {
        char c = USART1_readChar();
    1028:	0e 94 96 10 	call	0x212c	; 0x212c <USART1_readChar>

        if (!Date_Clock.warning) {
    102c:	90 91 63 60 	lds	r25, 0x6063	; 0x806063 <Date_Clock+0x1c>
    1030:	91 11       	cpse	r25, r1
    1032:	1f c0       	rjmp	.+62     	; 0x1072 <ClockAndDataReader+0x6e>
            if (start == 1) {
    1034:	11 30       	cpi	r17, 0x01	; 1
    1036:	79 f4       	brne	.+30     	; 0x1056 <ClockAndDataReader+0x52>
                if (c == '>') {
    1038:	8e 33       	cpi	r24, 0x3E	; 62
    103a:	29 f4       	brne	.+10     	; 0x1046 <ClockAndDataReader+0x42>
                    start = 0;
                    executeCommand(command);
    103c:	ce 01       	movw	r24, r28
    103e:	01 96       	adiw	r24, 0x01	; 1
    1040:	0e 94 7c 07 	call	0xef8	; 0xef8 <executeCommand>
                    index = 0;
                    break;
    1044:	29 c0       	rjmp	.+82     	; 0x1098 <ClockAndDataReader+0x94>
                } else {
                    command[index++] = c;
    1046:	e1 e0       	ldi	r30, 0x01	; 1
    1048:	f0 e0       	ldi	r31, 0x00	; 0
    104a:	ec 0f       	add	r30, r28
    104c:	fd 1f       	adc	r31, r29
    104e:	e0 0f       	add	r30, r16
    1050:	f1 1d       	adc	r31, r1
    1052:	80 83       	st	Z, r24
    1054:	0f 5f       	subi	r16, 0xFF	; 255
                }
            }
            if (c == '<') {
    1056:	8c 33       	cpi	r24, 0x3C	; 60
    1058:	09 f4       	brne	.+2      	; 0x105c <ClockAndDataReader+0x58>
                start = 1;
    105a:	11 e0       	ldi	r17, 0x01	; 1
            }
            if (Date_Clock.error == 1) {
    105c:	80 91 61 60 	lds	r24, 0x6061	; 0x806061 <Date_Clock+0x1a>
    1060:	81 30       	cpi	r24, 0x01	; 1
    1062:	11 f7       	brne	.-60     	; 0x1028 <ClockAndDataReader+0x24>
                screen_clear();
    1064:	0e 94 74 0f 	call	0x1ee8	; 0x1ee8 <screen_clear>
                Date_Clock.errorCounter = 0;
    1068:	e7 e4       	ldi	r30, 0x47	; 71
    106a:	f0 e6       	ldi	r31, 0x60	; 96
    106c:	13 8e       	std	Z+27, r1	; 0x1b
                Date_Clock.error = 0;
    106e:	12 8e       	std	Z+26, r1	; 0x1a
    1070:	db cf       	rjmp	.-74     	; 0x1028 <ClockAndDataReader+0x24>
            }
        } else {
            Date_Clock.warning = 0;
    1072:	e7 e4       	ldi	r30, 0x47	; 71
    1074:	f0 e6       	ldi	r31, 0x60	; 96
    1076:	14 8e       	std	Z+28, r1	; 0x1c
            if (Date_Clock.errorCounter < CountForError) {
    1078:	83 8d       	ldd	r24, Z+27	; 0x1b
    107a:	8a 30       	cpi	r24, 0x0A	; 10
    107c:	20 f4       	brcc	.+8      	; 0x1086 <ClockAndDataReader+0x82>
                Date_Clock.errorCounter += 1;
    107e:	8f 5f       	subi	r24, 0xFF	; 255
    1080:	80 93 62 60 	sts	0x6062, r24	; 0x806062 <Date_Clock+0x1b>
    1084:	09 c0       	rjmp	.+18     	; 0x1098 <ClockAndDataReader+0x94>
            } else {
                if (!Date_Clock.error) {
    1086:	80 91 61 60 	lds	r24, 0x6061	; 0x806061 <Date_Clock+0x1a>
    108a:	81 11       	cpse	r24, r1
    108c:	02 c0       	rjmp	.+4      	; 0x1092 <ClockAndDataReader+0x8e>
                    screen_clear();
    108e:	0e 94 74 0f 	call	0x1ee8	; 0x1ee8 <screen_clear>
                }
                Date_Clock.error = 1;
    1092:	81 e0       	ldi	r24, 0x01	; 1
    1094:	80 93 61 60 	sts	0x6061, r24	; 0x806061 <Date_Clock+0x1a>
            }
            break;
        }
    }
}
    1098:	ec 96       	adiw	r28, 0x3c	; 60
    109a:	cd bf       	out	0x3d, r28	; 61
    109c:	de bf       	out	0x3e, r29	; 62
    109e:	df 91       	pop	r29
    10a0:	cf 91       	pop	r28
    10a2:	1f 91       	pop	r17
    10a4:	0f 91       	pop	r16
    10a6:	08 95       	ret

000010a8 <isLeapYear>:
 * @brief Checks if a year is a leap year.
 * 
 * @param[in] year Year to check.
 * @return 1 if the year is a leap year, otherwise 0.
 */
uint8_t isLeapYear(uint16_t year) {
    10a8:	ac 01       	movw	r20, r24
    return (year % 4 == 0 && year % 100 != 0) || (year % 400 == 0);
    10aa:	83 70       	andi	r24, 0x03	; 3
    10ac:	99 27       	eor	r25, r25
    10ae:	89 2b       	or	r24, r25
    10b0:	a1 f4       	brne	.+40     	; 0x10da <isLeapYear+0x32>
    10b2:	9a 01       	movw	r18, r20
    10b4:	36 95       	lsr	r19
    10b6:	27 95       	ror	r18
    10b8:	36 95       	lsr	r19
    10ba:	27 95       	ror	r18
    10bc:	ab e7       	ldi	r26, 0x7B	; 123
    10be:	b4 e1       	ldi	r27, 0x14	; 20
    10c0:	0e 94 83 24 	call	0x4906	; 0x4906 <__umulhisi3>
    10c4:	96 95       	lsr	r25
    10c6:	87 95       	ror	r24
    10c8:	64 e6       	ldi	r22, 0x64	; 100
    10ca:	68 9f       	mul	r22, r24
    10cc:	90 01       	movw	r18, r0
    10ce:	69 9f       	mul	r22, r25
    10d0:	30 0d       	add	r19, r0
    10d2:	11 24       	eor	r1, r1
    10d4:	42 17       	cp	r20, r18
    10d6:	53 07       	cpc	r21, r19
    10d8:	d1 f4       	brne	.+52     	; 0x110e <isLeapYear+0x66>
    10da:	9a 01       	movw	r18, r20
    10dc:	32 95       	swap	r19
    10de:	22 95       	swap	r18
    10e0:	2f 70       	andi	r18, 0x0F	; 15
    10e2:	23 27       	eor	r18, r19
    10e4:	3f 70       	andi	r19, 0x0F	; 15
    10e6:	23 27       	eor	r18, r19
    10e8:	ae e3       	ldi	r26, 0x3E	; 62
    10ea:	ba e0       	ldi	r27, 0x0A	; 10
    10ec:	0e 94 83 24 	call	0x4906	; 0x4906 <__umulhisi3>
    10f0:	20 e9       	ldi	r18, 0x90	; 144
    10f2:	31 e0       	ldi	r19, 0x01	; 1
    10f4:	bc 01       	movw	r22, r24
    10f6:	62 9f       	mul	r22, r18
    10f8:	c0 01       	movw	r24, r0
    10fa:	63 9f       	mul	r22, r19
    10fc:	90 0d       	add	r25, r0
    10fe:	72 9f       	mul	r23, r18
    1100:	90 0d       	add	r25, r0
    1102:	11 24       	eor	r1, r1
    1104:	48 17       	cp	r20, r24
    1106:	59 07       	cpc	r21, r25
    1108:	21 f4       	brne	.+8      	; 0x1112 <isLeapYear+0x6a>
    110a:	81 e0       	ldi	r24, 0x01	; 1
    110c:	08 95       	ret
    110e:	81 e0       	ldi	r24, 0x01	; 1
    1110:	08 95       	ret
    1112:	80 e0       	ldi	r24, 0x00	; 0
}
    1114:	08 95       	ret

00001116 <isValidDateTime>:
 * @param[in] hour Hour value (0-23).
 * @param[in] minute Minute value (0-59).
 * @param[in] second Second value (0-59).
 * @return 0 if valid, otherwise 1.
 */
uint8_t isValidDateTime(uint16_t year, uint8_t month, uint8_t day, uint8_t hour, uint8_t minute, uint8_t second) {
    1116:	bf 92       	push	r11
    1118:	cf 92       	push	r12
    111a:	df 92       	push	r13
    111c:	ef 92       	push	r14
    111e:	ff 92       	push	r15
    1120:	0f 93       	push	r16
    1122:	1f 93       	push	r17
    1124:	cf 93       	push	r28
    1126:	df 93       	push	r29
    1128:	cd b7       	in	r28, 0x3d	; 61
    112a:	de b7       	in	r29, 0x3e	; 62
    112c:	68 97       	sbiw	r28, 0x18	; 24
    112e:	cd bf       	out	0x3d, r28	; 61
    1130:	de bf       	out	0x3e, r29	; 62
    1132:	6c 01       	movw	r12, r24
    int daysInMonth[] = { 31, 28, 31, 30, 31, 30, 31, 31, 30, 31, 30, 31 };
    1134:	98 e1       	ldi	r25, 0x18	; 24
    1136:	e9 ea       	ldi	r30, 0xA9	; 169
    1138:	f3 e6       	ldi	r31, 0x63	; 99
    113a:	de 01       	movw	r26, r28
    113c:	11 96       	adiw	r26, 0x01	; 1
    113e:	01 90       	ld	r0, Z+
    1140:	0d 92       	st	X+, r0
    1142:	9a 95       	dec	r25
    1144:	e1 f7       	brne	.-8      	; 0x113e <isValidDateTime+0x28>

    if (year < 1 || month < 1 || month > 12) {
    1146:	c1 14       	cp	r12, r1
    1148:	d1 04       	cpc	r13, r1
    114a:	71 f1       	breq	.+92     	; 0x11a8 <isValidDateTime+0x92>
    114c:	66 23       	and	r22, r22
    114e:	71 f1       	breq	.+92     	; 0x11ac <isValidDateTime+0x96>
    1150:	6d 30       	cpi	r22, 0x0D	; 13
    1152:	70 f5       	brcc	.+92     	; 0x11b0 <isValidDateTime+0x9a>
    1154:	f2 2e       	mov	r15, r18
    1156:	b4 2e       	mov	r11, r20
    1158:	16 2f       	mov	r17, r22
    115a:	c6 01       	movw	r24, r12
        return 1;
    }
    if (isLeapYear(year)) {
    115c:	0e 94 54 08 	call	0x10a8	; 0x10a8 <isLeapYear>
    1160:	88 23       	and	r24, r24
    1162:	21 f0       	breq	.+8      	; 0x116c <isValidDateTime+0x56>
        daysInMonth[1] = 29;
    1164:	8d e1       	ldi	r24, 0x1D	; 29
    1166:	90 e0       	ldi	r25, 0x00	; 0
    1168:	8b 83       	std	Y+3, r24	; 0x03
    116a:	9c 83       	std	Y+4, r25	; 0x04
    }
    if (day < 1 || day > daysInMonth[month - 1] || hour > 23 || minute > 59 || second > 59) {
    116c:	bb 20       	and	r11, r11
    116e:	11 f1       	breq	.+68     	; 0x11b4 <isValidDateTime+0x9e>
    1170:	4b 2d       	mov	r20, r11
    1172:	50 e0       	ldi	r21, 0x00	; 0
    1174:	e1 2f       	mov	r30, r17
    1176:	f0 e0       	ldi	r31, 0x00	; 0
    1178:	31 97       	sbiw	r30, 0x01	; 1
    117a:	ee 0f       	add	r30, r30
    117c:	ff 1f       	adc	r31, r31
    117e:	81 e0       	ldi	r24, 0x01	; 1
    1180:	90 e0       	ldi	r25, 0x00	; 0
    1182:	8c 0f       	add	r24, r28
    1184:	9d 1f       	adc	r25, r29
    1186:	e8 0f       	add	r30, r24
    1188:	f9 1f       	adc	r31, r25
    118a:	80 81       	ld	r24, Z
    118c:	91 81       	ldd	r25, Z+1	; 0x01
    118e:	84 17       	cp	r24, r20
    1190:	95 07       	cpc	r25, r21
    1192:	94 f0       	brlt	.+36     	; 0x11b8 <isValidDateTime+0xa2>
    1194:	97 e1       	ldi	r25, 0x17	; 23
    1196:	9f 15       	cp	r25, r15
    1198:	88 f0       	brcs	.+34     	; 0x11bc <isValidDateTime+0xa6>
    119a:	0c 33       	cpi	r16, 0x3C	; 60
    119c:	88 f4       	brcc	.+34     	; 0x11c0 <isValidDateTime+0xaa>
    119e:	8b e3       	ldi	r24, 0x3B	; 59
    11a0:	8e 15       	cp	r24, r14
    11a2:	80 f4       	brcc	.+32     	; 0x11c4 <isValidDateTime+0xae>
        return 1;
    11a4:	81 e0       	ldi	r24, 0x01	; 1
    11a6:	0f c0       	rjmp	.+30     	; 0x11c6 <isValidDateTime+0xb0>
 */
uint8_t isValidDateTime(uint16_t year, uint8_t month, uint8_t day, uint8_t hour, uint8_t minute, uint8_t second) {
    int daysInMonth[] = { 31, 28, 31, 30, 31, 30, 31, 31, 30, 31, 30, 31 };

    if (year < 1 || month < 1 || month > 12) {
        return 1;
    11a8:	81 e0       	ldi	r24, 0x01	; 1
    11aa:	0d c0       	rjmp	.+26     	; 0x11c6 <isValidDateTime+0xb0>
    11ac:	81 e0       	ldi	r24, 0x01	; 1
    11ae:	0b c0       	rjmp	.+22     	; 0x11c6 <isValidDateTime+0xb0>
    11b0:	81 e0       	ldi	r24, 0x01	; 1
    11b2:	09 c0       	rjmp	.+18     	; 0x11c6 <isValidDateTime+0xb0>
    }
    if (isLeapYear(year)) {
        daysInMonth[1] = 29;
    }
    if (day < 1 || day > daysInMonth[month - 1] || hour > 23 || minute > 59 || second > 59) {
        return 1;
    11b4:	81 e0       	ldi	r24, 0x01	; 1
    11b6:	07 c0       	rjmp	.+14     	; 0x11c6 <isValidDateTime+0xb0>
    11b8:	81 e0       	ldi	r24, 0x01	; 1
    11ba:	05 c0       	rjmp	.+10     	; 0x11c6 <isValidDateTime+0xb0>
    11bc:	81 e0       	ldi	r24, 0x01	; 1
    11be:	03 c0       	rjmp	.+6      	; 0x11c6 <isValidDateTime+0xb0>
    11c0:	81 e0       	ldi	r24, 0x01	; 1
    11c2:	01 c0       	rjmp	.+2      	; 0x11c6 <isValidDateTime+0xb0>
    }
    return 0;
    11c4:	80 e0       	ldi	r24, 0x00	; 0
}
    11c6:	68 96       	adiw	r28, 0x18	; 24
    11c8:	cd bf       	out	0x3d, r28	; 61
    11ca:	de bf       	out	0x3e, r29	; 62
    11cc:	df 91       	pop	r29
    11ce:	cf 91       	pop	r28
    11d0:	1f 91       	pop	r17
    11d2:	0f 91       	pop	r16
    11d4:	ff 90       	pop	r15
    11d6:	ef 90       	pop	r14
    11d8:	df 90       	pop	r13
    11da:	cf 90       	pop	r12
    11dc:	bf 90       	pop	r11
    11de:	08 95       	ret

000011e0 <isValidTimeZone>:
 * 
 * @param[in] timeZone Timezone value (-12 to +12).
 * @return 0 if valid, otherwise 1.
 */
uint8_t isValidTimeZone(int8_t timeZone) {
    return (timeZone < -12 || timeZone > 12) ? 1 : 0;
    11e0:	9c e0       	ldi	r25, 0x0C	; 12
    11e2:	98 0f       	add	r25, r24
    11e4:	81 e0       	ldi	r24, 0x01	; 1
    11e6:	99 31       	cpi	r25, 0x19	; 25
    11e8:	08 f4       	brcc	.+2      	; 0x11ec <isValidTimeZone+0xc>
    11ea:	80 e0       	ldi	r24, 0x00	; 0
}
    11ec:	08 95       	ret

000011ee <isValidAltitude>:
 * 
 * @param[in] altitude Altitude value in meters (-500 to 9000).
 * @return 0 if valid, otherwise 1.
 */
uint8_t isValidAltitude(int16_t altitude) {
    return (altitude < -500 || altitude > 9000) ? 1 : 0;
    11ee:	9c 01       	movw	r18, r24
    11f0:	2c 50       	subi	r18, 0x0C	; 12
    11f2:	3e 4f       	sbci	r19, 0xFE	; 254
    11f4:	81 e0       	ldi	r24, 0x01	; 1
    11f6:	2d 31       	cpi	r18, 0x1D	; 29
    11f8:	35 42       	sbci	r19, 0x25	; 37
    11fa:	08 f4       	brcc	.+2      	; 0x11fe <isValidAltitude+0x10>
    11fc:	80 e0       	ldi	r24, 0x00	; 0
}
    11fe:	08 95       	ret

00001200 <isValidLatitude>:
 * @brief Validates the given latitude.
 * 
 * @param[in] latitude Latitude value in degrees (-180 to +180).
 * @return 0 if valid, otherwise 1.
 */
uint8_t isValidLatitude(double latitude) {
    1200:	cf 92       	push	r12
    1202:	df 92       	push	r13
    1204:	ef 92       	push	r14
    1206:	ff 92       	push	r15
    1208:	6b 01       	movw	r12, r22
    120a:	7c 01       	movw	r14, r24
    return (latitude < -90.0 || latitude > 90.0) ? 1 : 0;
    120c:	20 e0       	ldi	r18, 0x00	; 0
    120e:	30 e0       	ldi	r19, 0x00	; 0
    1210:	44 eb       	ldi	r20, 0xB4	; 180
    1212:	52 ec       	ldi	r21, 0xC2	; 194
    1214:	0e 94 60 1c 	call	0x38c0	; 0x38c0 <__cmpsf2>
    1218:	88 23       	and	r24, r24
    121a:	64 f0       	brlt	.+24     	; 0x1234 <isValidLatitude+0x34>
    121c:	20 e0       	ldi	r18, 0x00	; 0
    121e:	30 e0       	ldi	r19, 0x00	; 0
    1220:	44 eb       	ldi	r20, 0xB4	; 180
    1222:	52 e4       	ldi	r21, 0x42	; 66
    1224:	c7 01       	movw	r24, r14
    1226:	b6 01       	movw	r22, r12
    1228:	0e 94 6d 1e 	call	0x3cda	; 0x3cda <__gesf2>
    122c:	18 16       	cp	r1, r24
    122e:	24 f4       	brge	.+8      	; 0x1238 <isValidLatitude+0x38>
    1230:	81 e0       	ldi	r24, 0x01	; 1
    1232:	03 c0       	rjmp	.+6      	; 0x123a <isValidLatitude+0x3a>
    1234:	81 e0       	ldi	r24, 0x01	; 1
    1236:	01 c0       	rjmp	.+2      	; 0x123a <isValidLatitude+0x3a>
    1238:	80 e0       	ldi	r24, 0x00	; 0
}
    123a:	ff 90       	pop	r15
    123c:	ef 90       	pop	r14
    123e:	df 90       	pop	r13
    1240:	cf 90       	pop	r12
    1242:	08 95       	ret

00001244 <isValidLongitude>:
 * @brief Validates the given longitude.
 * 
 * @param[in] longitude Longitude value in degrees (-90 to +90).
 * @return 0 if valid, otherwise 1.
 */
uint8_t isValidLongitude(double longitude) {
    1244:	cf 92       	push	r12
    1246:	df 92       	push	r13
    1248:	ef 92       	push	r14
    124a:	ff 92       	push	r15
    124c:	6b 01       	movw	r12, r22
    124e:	7c 01       	movw	r14, r24
    return (longitude < -180.0 || longitude > 180.0) ? 1 : 0;
    1250:	20 e0       	ldi	r18, 0x00	; 0
    1252:	30 e0       	ldi	r19, 0x00	; 0
    1254:	44 e3       	ldi	r20, 0x34	; 52
    1256:	53 ec       	ldi	r21, 0xC3	; 195
    1258:	0e 94 60 1c 	call	0x38c0	; 0x38c0 <__cmpsf2>
    125c:	88 23       	and	r24, r24
    125e:	64 f0       	brlt	.+24     	; 0x1278 <isValidLongitude+0x34>
    1260:	20 e0       	ldi	r18, 0x00	; 0
    1262:	30 e0       	ldi	r19, 0x00	; 0
    1264:	44 e3       	ldi	r20, 0x34	; 52
    1266:	53 e4       	ldi	r21, 0x43	; 67
    1268:	c7 01       	movw	r24, r14
    126a:	b6 01       	movw	r22, r12
    126c:	0e 94 6d 1e 	call	0x3cda	; 0x3cda <__gesf2>
    1270:	18 16       	cp	r1, r24
    1272:	24 f4       	brge	.+8      	; 0x127c <isValidLongitude+0x38>
    1274:	81 e0       	ldi	r24, 0x01	; 1
    1276:	03 c0       	rjmp	.+6      	; 0x127e <isValidLongitude+0x3a>
    1278:	81 e0       	ldi	r24, 0x01	; 1
    127a:	01 c0       	rjmp	.+2      	; 0x127e <isValidLongitude+0x3a>
    127c:	80 e0       	ldi	r24, 0x00	; 0
}
    127e:	ff 90       	pop	r15
    1280:	ef 90       	pop	r14
    1282:	df 90       	pop	r13
    1284:	cf 90       	pop	r12
    1286:	08 95       	ret

00001288 <Retransmitt>:

/**
 * @brief Reads clock data, processes solar angles, and retransmits formatted output.
 */
void Retransmitt() {
    1288:	ef 92       	push	r14
    128a:	ff 92       	push	r15
    128c:	0f 93       	push	r16
    128e:	1f 93       	push	r17
    1290:	cf 93       	push	r28
    1292:	df 93       	push	r29
    ClockAndDataReader();
    1294:	0e 94 02 08 	call	0x1004	; 0x1004 <ClockAndDataReader>
    correct_solar_angles();
    1298:	0e 94 a7 0a 	call	0x154e	; 0x154e <correct_solar_angles>
        Date_Clock.second,
        SUN.azimuth,
        SUN.adjelevation,
        SHT21.T,
        BMP280.Pressure,
        SHT21.RH
    129c:	e8 e6       	ldi	r30, 0x68	; 104
    129e:	f0 e6       	ldi	r31, 0x60	; 96
    12a0:	10 85       	ldd	r17, Z+8	; 0x08
    12a2:	01 85       	ldd	r16, Z+9	; 0x09
    12a4:	f2 84       	ldd	r15, Z+10	; 0x0a
    12a6:	e3 84       	ldd	r14, Z+11	; 0x0b
        Date_Clock.hour,
        Date_Clock.minute,
        Date_Clock.second,
        SUN.azimuth,
        SUN.adjelevation,
        SHT21.T,
    12a8:	a4 81       	ldd	r26, Z+4	; 0x04
    12aa:	b5 81       	ldd	r27, Z+5	; 0x05
    12ac:	c6 81       	ldd	r28, Z+6	; 0x06
    12ae:	d7 81       	ldd	r29, Z+7	; 0x07
        Date_Clock.day,
        Date_Clock.hour,
        Date_Clock.minute,
        Date_Clock.second,
        SUN.azimuth,
        SUN.adjelevation,
    12b0:	e4 e5       	ldi	r30, 0x54	; 84
    12b2:	f8 e6       	ldi	r31, 0x68	; 104
    12b4:	40 85       	ldd	r20, Z+8	; 0x08
    12b6:	51 85       	ldd	r21, Z+9	; 0x09
    12b8:	62 85       	ldd	r22, Z+10	; 0x0a
    12ba:	73 85       	ldd	r23, Z+11	; 0x0b
        Date_Clock.month,
        Date_Clock.day,
        Date_Clock.hour,
        Date_Clock.minute,
        Date_Clock.second,
        SUN.azimuth,
    12bc:	84 81       	ldd	r24, Z+4	; 0x04
    12be:	95 81       	ldd	r25, Z+5	; 0x05
    12c0:	26 81       	ldd	r18, Z+6	; 0x06
    12c2:	37 81       	ldd	r19, Z+7	; 0x07
 * @brief Reads clock data, processes solar angles, and retransmits formatted output.
 */
void Retransmitt() {
    ClockAndDataReader();
    correct_solar_angles();
    printf("%4d-%02d-%02d %02d:%02d:%02d: Az.: % 3.2f El.: % 3.2f T: %2.2fC P: %4.2fhPa RH: %2.2f%%\r\n",
    12c4:	ef 92       	push	r14
    12c6:	ff 92       	push	r15
    12c8:	0f 93       	push	r16
    12ca:	1f 93       	push	r17
    12cc:	ec e0       	ldi	r30, 0x0C	; 12
    12ce:	f0 e6       	ldi	r31, 0x60	; 96
    12d0:	10 85       	ldd	r17, Z+8	; 0x08
    12d2:	1f 93       	push	r17
    12d4:	17 81       	ldd	r17, Z+7	; 0x07
    12d6:	1f 93       	push	r17
    12d8:	16 81       	ldd	r17, Z+6	; 0x06
    12da:	1f 93       	push	r17
    12dc:	e5 81       	ldd	r30, Z+5	; 0x05
    12de:	ef 93       	push	r30
    12e0:	df 93       	push	r29
    12e2:	cf 93       	push	r28
    12e4:	bf 93       	push	r27
    12e6:	af 93       	push	r26
    12e8:	7f 93       	push	r23
    12ea:	6f 93       	push	r22
    12ec:	5f 93       	push	r21
    12ee:	4f 93       	push	r20
    12f0:	3f 93       	push	r19
    12f2:	2f 93       	push	r18
    12f4:	9f 93       	push	r25
    12f6:	8f 93       	push	r24
    12f8:	e7 e4       	ldi	r30, 0x47	; 71
    12fa:	f0 e6       	ldi	r31, 0x60	; 96
    12fc:	83 85       	ldd	r24, Z+11	; 0x0b
    12fe:	8f 93       	push	r24
    1300:	82 85       	ldd	r24, Z+10	; 0x0a
    1302:	8f 93       	push	r24
    1304:	81 85       	ldd	r24, Z+9	; 0x09
    1306:	8f 93       	push	r24
    1308:	80 85       	ldd	r24, Z+8	; 0x08
    130a:	8f 93       	push	r24
    130c:	87 81       	ldd	r24, Z+7	; 0x07
    130e:	8f 93       	push	r24
    1310:	86 81       	ldd	r24, Z+6	; 0x06
    1312:	8f 93       	push	r24
    1314:	85 81       	ldd	r24, Z+5	; 0x05
    1316:	8f 93       	push	r24
    1318:	84 81       	ldd	r24, Z+4	; 0x04
    131a:	8f 93       	push	r24
    131c:	83 81       	ldd	r24, Z+3	; 0x03
    131e:	8f 93       	push	r24
    1320:	82 81       	ldd	r24, Z+2	; 0x02
    1322:	8f 93       	push	r24
    1324:	81 81       	ldd	r24, Z+1	; 0x01
    1326:	8f 93       	push	r24
    1328:	80 81       	ld	r24, Z
    132a:	8f 93       	push	r24
    132c:	89 ed       	ldi	r24, 0xD9	; 217
    132e:	93 e6       	ldi	r25, 0x63	; 99
    1330:	9f 93       	push	r25
    1332:	8f 93       	push	r24
    1334:	0e 94 a4 27 	call	0x4f48	; 0x4f48 <printf>
        SUN.adjelevation,
        SHT21.T,
        BMP280.Pressure,
        SHT21.RH
    );
}
    1338:	8d b7       	in	r24, 0x3d	; 61
    133a:	9e b7       	in	r25, 0x3e	; 62
    133c:	82 96       	adiw	r24, 0x22	; 34
    133e:	8d bf       	out	0x3d, r24	; 61
    1340:	9e bf       	out	0x3e, r25	; 62
    1342:	df 91       	pop	r29
    1344:	cf 91       	pop	r28
    1346:	1f 91       	pop	r17
    1348:	0f 91       	pop	r16
    134a:	ff 90       	pop	r15
    134c:	ef 90       	pop	r14
    134e:	08 95       	ret

00001350 <CRC8MAXIM>:
 * the data (without the CRC). Otherwise, it returns 0 to indicate an error in the CRC.
 *
 * @param data 32-bit input data, where the last 8 bits represent the CRC value.
 * @return uint16_t Returns the 16-bit data if CRC is valid, 0 if the CRC is incorrect.
 */
uint16_t CRC8MAXIM(uint32_t data) {
    1350:	cf 92       	push	r12
    1352:	df 92       	push	r13
    1354:	ef 92       	push	r14
    1356:	ff 92       	push	r15
    1358:	0f 93       	push	r16
    135a:	1f 93       	push	r17
    // Extract the data and CRC
    uint32_t data_value = (data >> 8) & 0xFFFF; // First 16 bits
    135c:	c7 2e       	mov	r12, r23
    135e:	d8 2e       	mov	r13, r24
    1360:	e9 2e       	mov	r14, r25
    1362:	ff 24       	eor	r15, r15
    uint32_t received_crc = data & 0xFF;        // Last 8 bits (CRC)
    1364:	8b 01       	movw	r16, r22
    1366:	9c 01       	movw	r18, r24
    1368:	11 27       	eor	r17, r17
    136a:	22 27       	eor	r18, r18
    136c:	33 27       	eor	r19, r19

    // Calculate CRC
    uint32_t crc_calculated = 0x00;
    crc_calculated = crc8_table[crc_calculated ^ (data_value >> 8)];  // High 8 bits
    136e:	4d 2d       	mov	r20, r13
    1370:	50 e0       	ldi	r21, 0x00	; 0
    1372:	fa 01       	movw	r30, r20
    1374:	ed 5c       	subi	r30, 0xCD	; 205
    1376:	fb 49       	sbci	r31, 0x9B	; 155
    1378:	e0 81       	ld	r30, Z
    crc_calculated = crc8_table[crc_calculated ^ (data_value & 0xFF)]; // Low 8 bits
    137a:	b7 01       	movw	r22, r14
    137c:	a6 01       	movw	r20, r12
    137e:	55 27       	eor	r21, r21
    1380:	66 27       	eor	r22, r22
    1382:	77 27       	eor	r23, r23
    1384:	4e 27       	eor	r20, r30
    1386:	fa 01       	movw	r30, r20
    1388:	ed 5c       	subi	r30, 0xCD	; 205
    138a:	fb 49       	sbci	r31, 0x9B	; 155
    138c:	40 81       	ld	r20, Z
    138e:	50 e0       	ldi	r21, 0x00	; 0
    1390:	60 e0       	ldi	r22, 0x00	; 0
    1392:	70 e0       	ldi	r23, 0x00	; 0

    // Validate CRC
    if (crc_calculated != received_crc) {
    1394:	04 17       	cp	r16, r20
    1396:	15 07       	cpc	r17, r21
    1398:	26 07       	cpc	r18, r22
    139a:	37 07       	cpc	r19, r23
    139c:	11 f4       	brne	.+4      	; 0x13a2 <CRC8MAXIM+0x52>
        return 0; // CRC is incorrect
    }

    // Return the 16-bit data without CRC
    return data_value; // CRC is correct
    139e:	c6 01       	movw	r24, r12
    13a0:	02 c0       	rjmp	.+4      	; 0x13a6 <CRC8MAXIM+0x56>
    crc_calculated = crc8_table[crc_calculated ^ (data_value >> 8)];  // High 8 bits
    crc_calculated = crc8_table[crc_calculated ^ (data_value & 0xFF)]; // Low 8 bits

    // Validate CRC
    if (crc_calculated != received_crc) {
        return 0; // CRC is incorrect
    13a2:	80 e0       	ldi	r24, 0x00	; 0
    13a4:	90 e0       	ldi	r25, 0x00	; 0
    }

    // Return the 16-bit data without CRC
    return data_value; // CRC is correct
}
    13a6:	1f 91       	pop	r17
    13a8:	0f 91       	pop	r16
    13aa:	ff 90       	pop	r15
    13ac:	ef 90       	pop	r14
    13ae:	df 90       	pop	r13
    13b0:	cf 90       	pop	r12
    13b2:	08 95       	ret

000013b4 <calculate_refraction>:
 * elevation, pressure, and temperature.
 *
 * @return double The refraction correction in minutes. Returns 0 if the solar elevation is below 
 *                the horizon (i.e., less than or equal to 0 degrees).
 */
double calculate_refraction() {
    13b4:	8f 92       	push	r8
    13b6:	9f 92       	push	r9
    13b8:	af 92       	push	r10
    13ba:	bf 92       	push	r11
    13bc:	cf 92       	push	r12
    13be:	df 92       	push	r13
    13c0:	ef 92       	push	r14
    13c2:	ff 92       	push	r15
    13c4:	cf 93       	push	r28
    13c6:	df 93       	push	r29
    if (SUN.elevation <= 0)
    13c8:	c0 90 54 68 	lds	r12, 0x6854	; 0x806854 <SUN>
    13cc:	d0 90 55 68 	lds	r13, 0x6855	; 0x806855 <SUN+0x1>
    13d0:	e0 90 56 68 	lds	r14, 0x6856	; 0x806856 <SUN+0x2>
    13d4:	f0 90 57 68 	lds	r15, 0x6857	; 0x806857 <SUN+0x3>
    13d8:	20 e0       	ldi	r18, 0x00	; 0
    13da:	30 e0       	ldi	r19, 0x00	; 0
    13dc:	a9 01       	movw	r20, r18
    13de:	c7 01       	movw	r24, r14
    13e0:	b6 01       	movw	r22, r12
    13e2:	0e 94 60 1c 	call	0x38c0	; 0x38c0 <__cmpsf2>
    13e6:	18 16       	cp	r1, r24
    13e8:	0c f0       	brlt	.+2      	; 0x13ec <calculate_refraction+0x38>
    13ea:	9e c0       	rjmp	.+316    	; 0x1528 <calculate_refraction+0x174>
        return 0.0;  // No refraction needed if the sun is below the horizon

    double elevation_rad = SUN.elevation * M_PI / 180.0;  // Convert elevation to radians
    13ec:	2b ed       	ldi	r18, 0xDB	; 219
    13ee:	3f e0       	ldi	r19, 0x0F	; 15
    13f0:	49 e4       	ldi	r20, 0x49	; 73
    13f2:	50 e4       	ldi	r21, 0x40	; 64
    13f4:	c7 01       	movw	r24, r14
    13f6:	b6 01       	movw	r22, r12
    13f8:	0e 94 38 1f 	call	0x3e70	; 0x3e70 <__mulsf3>
    13fc:	20 e0       	ldi	r18, 0x00	; 0
    13fe:	30 e0       	ldi	r19, 0x00	; 0
    1400:	44 e3       	ldi	r20, 0x34	; 52
    1402:	53 e4       	ldi	r21, 0x43	; 67
    1404:	0e 94 65 1c 	call	0x38ca	; 0x38ca <__divsf3>
    1408:	4b 01       	movw	r8, r22
    140a:	5c 01       	movw	r10, r24
    // Adjust pressure for altitude (Date_Clock.altitude is in meters)
    if (Date_Clock.altitude > 0) 
    140c:	60 91 5f 60 	lds	r22, 0x605F	; 0x80605f <Date_Clock+0x18>
    1410:	70 91 60 60 	lds	r23, 0x6060	; 0x806060 <Date_Clock+0x19>
    1414:	16 16       	cp	r1, r22
    1416:	17 06       	cpc	r1, r23
    1418:	74 f5       	brge	.+92     	; 0x1476 <calculate_refraction+0xc2>
        BMP280.Pressure *= pow(1 - (0.0065 * Date_Clock.altitude / 288.15), 5.255); // Temperature lapse rate with altitude
    141a:	07 2e       	mov	r0, r23
    141c:	00 0c       	add	r0, r0
    141e:	88 0b       	sbc	r24, r24
    1420:	99 0b       	sbc	r25, r25
    1422:	0e 94 48 1d 	call	0x3a90	; 0x3a90 <__floatsisf>
    1426:	24 ef       	ldi	r18, 0xF4	; 244
    1428:	3d ef       	ldi	r19, 0xFD	; 253
    142a:	44 ed       	ldi	r20, 0xD4	; 212
    142c:	5b e3       	ldi	r21, 0x3B	; 59
    142e:	0e 94 38 1f 	call	0x3e70	; 0x3e70 <__mulsf3>
    1432:	23 e3       	ldi	r18, 0x33	; 51
    1434:	33 e1       	ldi	r19, 0x13	; 19
    1436:	40 e9       	ldi	r20, 0x90	; 144
    1438:	53 e4       	ldi	r21, 0x43	; 67
    143a:	0e 94 65 1c 	call	0x38ca	; 0x38ca <__divsf3>
    143e:	9b 01       	movw	r18, r22
    1440:	ac 01       	movw	r20, r24
    1442:	60 e0       	ldi	r22, 0x00	; 0
    1444:	70 e0       	ldi	r23, 0x00	; 0
    1446:	80 e8       	ldi	r24, 0x80	; 128
    1448:	9f e3       	ldi	r25, 0x3F	; 63
    144a:	0e 94 f3 1b 	call	0x37e6	; 0x37e6 <__subsf3>
    144e:	26 ef       	ldi	r18, 0xF6	; 246
    1450:	38 e2       	ldi	r19, 0x28	; 40
    1452:	48 ea       	ldi	r20, 0xA8	; 168
    1454:	50 e4       	ldi	r21, 0x40	; 64
    1456:	0e 94 a5 1f 	call	0x3f4a	; 0x3f4a <pow>
    145a:	9b 01       	movw	r18, r22
    145c:	ac 01       	movw	r20, r24
    145e:	cc e0       	ldi	r28, 0x0C	; 12
    1460:	d0 e6       	ldi	r29, 0x60	; 96
    1462:	6d 81       	ldd	r22, Y+5	; 0x05
    1464:	7e 81       	ldd	r23, Y+6	; 0x06
    1466:	8f 81       	ldd	r24, Y+7	; 0x07
    1468:	98 85       	ldd	r25, Y+8	; 0x08
    146a:	0e 94 38 1f 	call	0x3e70	; 0x3e70 <__mulsf3>
    146e:	6d 83       	std	Y+5, r22	; 0x05
    1470:	7e 83       	std	Y+6, r23	; 0x06
    1472:	8f 83       	std	Y+7, r24	; 0x07
    1474:	98 87       	std	Y+8, r25	; 0x08

    // Calculate refraction based on solar elevation and environmental factors
    double refraction = 0.0167 / tan(elevation_rad + (10.3 / (SUN.elevation + 5.11)));
    1476:	2f e1       	ldi	r18, 0x1F	; 31
    1478:	35 e8       	ldi	r19, 0x85	; 133
    147a:	43 ea       	ldi	r20, 0xA3	; 163
    147c:	50 e4       	ldi	r21, 0x40	; 64
    147e:	c7 01       	movw	r24, r14
    1480:	b6 01       	movw	r22, r12
    1482:	0e 94 f4 1b 	call	0x37e8	; 0x37e8 <__addsf3>
    1486:	9b 01       	movw	r18, r22
    1488:	ac 01       	movw	r20, r24
    148a:	6d ec       	ldi	r22, 0xCD	; 205
    148c:	7c ec       	ldi	r23, 0xCC	; 204
    148e:	84 e2       	ldi	r24, 0x24	; 36
    1490:	91 e4       	ldi	r25, 0x41	; 65
    1492:	0e 94 65 1c 	call	0x38ca	; 0x38ca <__divsf3>
    1496:	9b 01       	movw	r18, r22
    1498:	ac 01       	movw	r20, r24
    149a:	c5 01       	movw	r24, r10
    149c:	b4 01       	movw	r22, r8
    149e:	0e 94 f4 1b 	call	0x37e8	; 0x37e8 <__addsf3>
    14a2:	0e 94 19 20 	call	0x4032	; 0x4032 <tan>
    14a6:	9b 01       	movw	r18, r22
    14a8:	ac 01       	movw	r20, r24
    14aa:	60 e7       	ldi	r22, 0x70	; 112
    14ac:	7e ec       	ldi	r23, 0xCE	; 206
    14ae:	88 e8       	ldi	r24, 0x88	; 136
    14b0:	9c e3       	ldi	r25, 0x3C	; 60
    14b2:	0e 94 65 1c 	call	0x38ca	; 0x38ca <__divsf3>
    14b6:	6b 01       	movw	r12, r22
    14b8:	7c 01       	movw	r14, r24
    refraction *= (BMP280.Pressure / 1010.0) * (283.0 / (273.0 + SHT21.T));  // Adjust for pressure and temperature
    14ba:	60 91 11 60 	lds	r22, 0x6011	; 0x806011 <BMP280+0x5>
    14be:	70 91 12 60 	lds	r23, 0x6012	; 0x806012 <BMP280+0x6>
    14c2:	80 91 13 60 	lds	r24, 0x6013	; 0x806013 <BMP280+0x7>
    14c6:	90 91 14 60 	lds	r25, 0x6014	; 0x806014 <BMP280+0x8>
    14ca:	20 e0       	ldi	r18, 0x00	; 0
    14cc:	30 e8       	ldi	r19, 0x80	; 128
    14ce:	4c e7       	ldi	r20, 0x7C	; 124
    14d0:	54 e4       	ldi	r21, 0x44	; 68
    14d2:	0e 94 65 1c 	call	0x38ca	; 0x38ca <__divsf3>
    14d6:	4b 01       	movw	r8, r22
    14d8:	5c 01       	movw	r10, r24
    14da:	60 91 6c 60 	lds	r22, 0x606C	; 0x80606c <SHT21+0x4>
    14de:	70 91 6d 60 	lds	r23, 0x606D	; 0x80606d <SHT21+0x5>
    14e2:	80 91 6e 60 	lds	r24, 0x606E	; 0x80606e <SHT21+0x6>
    14e6:	90 91 6f 60 	lds	r25, 0x606F	; 0x80606f <SHT21+0x7>
    14ea:	20 e0       	ldi	r18, 0x00	; 0
    14ec:	30 e8       	ldi	r19, 0x80	; 128
    14ee:	48 e8       	ldi	r20, 0x88	; 136
    14f0:	53 e4       	ldi	r21, 0x43	; 67
    14f2:	0e 94 f4 1b 	call	0x37e8	; 0x37e8 <__addsf3>
    14f6:	9b 01       	movw	r18, r22
    14f8:	ac 01       	movw	r20, r24
    14fa:	60 e0       	ldi	r22, 0x00	; 0
    14fc:	70 e8       	ldi	r23, 0x80	; 128
    14fe:	8d e8       	ldi	r24, 0x8D	; 141
    1500:	93 e4       	ldi	r25, 0x43	; 67
    1502:	0e 94 65 1c 	call	0x38ca	; 0x38ca <__divsf3>
    1506:	9b 01       	movw	r18, r22
    1508:	ac 01       	movw	r20, r24
    150a:	c5 01       	movw	r24, r10
    150c:	b4 01       	movw	r22, r8
    150e:	0e 94 38 1f 	call	0x3e70	; 0x3e70 <__mulsf3>
    1512:	9b 01       	movw	r18, r22
    1514:	ac 01       	movw	r20, r24
    1516:	c7 01       	movw	r24, r14
    1518:	b6 01       	movw	r22, r12
    151a:	0e 94 38 1f 	call	0x3e70	; 0x3e70 <__mulsf3>
    return refraction;  // Return refraction in minutes
    151e:	56 2f       	mov	r21, r22
    1520:	47 2f       	mov	r20, r23
    1522:	38 2f       	mov	r19, r24
    1524:	29 2f       	mov	r18, r25
    1526:	04 c0       	rjmp	.+8      	; 0x1530 <calculate_refraction+0x17c>
 * @return double The refraction correction in minutes. Returns 0 if the solar elevation is below 
 *                the horizon (i.e., less than or equal to 0 degrees).
 */
double calculate_refraction() {
    if (SUN.elevation <= 0)
        return 0.0;  // No refraction needed if the sun is below the horizon
    1528:	50 e0       	ldi	r21, 0x00	; 0
    152a:	40 e0       	ldi	r20, 0x00	; 0
    152c:	30 e0       	ldi	r19, 0x00	; 0
    152e:	20 e0       	ldi	r18, 0x00	; 0

    // Calculate refraction based on solar elevation and environmental factors
    double refraction = 0.0167 / tan(elevation_rad + (10.3 / (SUN.elevation + 5.11)));
    refraction *= (BMP280.Pressure / 1010.0) * (283.0 / (273.0 + SHT21.T));  // Adjust for pressure and temperature
    return refraction;  // Return refraction in minutes
}
    1530:	65 2f       	mov	r22, r21
    1532:	74 2f       	mov	r23, r20
    1534:	83 2f       	mov	r24, r19
    1536:	92 2f       	mov	r25, r18
    1538:	df 91       	pop	r29
    153a:	cf 91       	pop	r28
    153c:	ff 90       	pop	r15
    153e:	ef 90       	pop	r14
    1540:	df 90       	pop	r13
    1542:	cf 90       	pop	r12
    1544:	bf 90       	pop	r11
    1546:	af 90       	pop	r10
    1548:	9f 90       	pop	r9
    154a:	8f 90       	pop	r8
    154c:	08 95       	ret

0000154e <correct_solar_angles>:
 * This function adjusts the solar elevation angle by applying the calculated refraction correction
 * if the sun is above the horizon. The azimuth is not corrected in this function.
 * 
 * If the solar elevation is below the horizon, the last known azimuth and elevation values are retained.
 */
void correct_solar_angles() {
    154e:	cf 92       	push	r12
    1550:	df 92       	push	r13
    1552:	ef 92       	push	r14
    1554:	ff 92       	push	r15
    if(SUN.elevation > 0){
    1556:	c0 90 54 68 	lds	r12, 0x6854	; 0x806854 <SUN>
    155a:	d0 90 55 68 	lds	r13, 0x6855	; 0x806855 <SUN+0x1>
    155e:	e0 90 56 68 	lds	r14, 0x6856	; 0x806856 <SUN+0x2>
    1562:	f0 90 57 68 	lds	r15, 0x6857	; 0x806857 <SUN+0x3>
    1566:	20 e0       	ldi	r18, 0x00	; 0
    1568:	30 e0       	ldi	r19, 0x00	; 0
    156a:	a9 01       	movw	r20, r18
    156c:	c7 01       	movw	r24, r14
    156e:	b6 01       	movw	r22, r12
    1570:	0e 94 6d 1e 	call	0x3cda	; 0x3cda <__gesf2>
    1574:	18 16       	cp	r1, r24
    1576:	e4 f4       	brge	.+56     	; 0x15b0 <correct_solar_angles+0x62>
        // Adjust the elevation by the refraction and keep the azimuth unchanged
        SUN.adjelevation = SUN.elevation + calculate_refraction() / 60.0;  
    1578:	0e 94 da 09 	call	0x13b4	; 0x13b4 <calculate_refraction>
    157c:	20 e0       	ldi	r18, 0x00	; 0
    157e:	30 e0       	ldi	r19, 0x00	; 0
    1580:	40 e7       	ldi	r20, 0x70	; 112
    1582:	52 e4       	ldi	r21, 0x42	; 66
    1584:	0e 94 65 1c 	call	0x38ca	; 0x38ca <__divsf3>
    1588:	9b 01       	movw	r18, r22
    158a:	ac 01       	movw	r20, r24
    158c:	c7 01       	movw	r24, r14
    158e:	b6 01       	movw	r22, r12
    1590:	0e 94 f4 1b 	call	0x37e8	; 0x37e8 <__addsf3>
    1594:	e4 e5       	ldi	r30, 0x54	; 84
    1596:	f8 e6       	ldi	r31, 0x68	; 104
    1598:	60 87       	std	Z+8, r22	; 0x08
    159a:	71 87       	std	Z+9, r23	; 0x09
    159c:	82 87       	std	Z+10, r24	; 0x0a
    159e:	93 87       	std	Z+11, r25	; 0x0b
        SUN.adjazimuth = SUN.azimuth;
    15a0:	84 81       	ldd	r24, Z+4	; 0x04
    15a2:	95 81       	ldd	r25, Z+5	; 0x05
    15a4:	a6 81       	ldd	r26, Z+6	; 0x06
    15a6:	b7 81       	ldd	r27, Z+7	; 0x07
    15a8:	84 87       	std	Z+12, r24	; 0x0c
    15aa:	95 87       	std	Z+13, r25	; 0x0d
    15ac:	a6 87       	std	Z+14, r26	; 0x0e
    15ae:	b7 87       	std	Z+15, r27	; 0x0f
    }
    // If the elevation is below the horizon, retain the last azimuth and elevation values
}
    15b0:	ff 90       	pop	r15
    15b2:	ef 90       	pop	r14
    15b4:	df 90       	pop	r13
    15b6:	cf 90       	pop	r12
    15b8:	08 95       	ret

000015ba <SunLevel>:
 *
 * This function configures the ADC and reads the raw value, which is then scaled down by a factor
 * of 4 and rounded to obtain the sun level. This is typically used to assess the intensity of sunlight.
 */
void SunLevel(){
    ADC0_SetupSLS();  // Set up the ADC for reading the sun level
    15ba:	0e 94 8a 01 	call	0x314	; 0x314 <ADC0_SetupSLS>
    SUN.sunlevel = round(ADC0_read()/4);  // Read ADC value, scale it, and round the result
    15be:	0e 94 90 01 	call	0x320	; 0x320 <ADC0_read>
    15c2:	96 95       	lsr	r25
    15c4:	87 95       	ror	r24
    15c6:	96 95       	lsr	r25
    15c8:	87 95       	ror	r24
    15ca:	bc 01       	movw	r22, r24
    15cc:	80 e0       	ldi	r24, 0x00	; 0
    15ce:	90 e0       	ldi	r25, 0x00	; 0
    15d0:	0e 94 46 1d 	call	0x3a8c	; 0x3a8c <__floatunsisf>
    15d4:	0e 94 f5 1f 	call	0x3fea	; 0x3fea <round>
    15d8:	0e 94 11 1d 	call	0x3a22	; 0x3a22 <__fixunssfsi>
    15dc:	60 93 64 68 	sts	0x6864, r22	; 0x806864 <SUN+0x10>
    15e0:	70 93 65 68 	sts	0x6865, r23	; 0x806865 <SUN+0x11>
    15e4:	08 95       	ret

000015e6 <GPIO_init>:
 * - Initializes keypad pins (rows and columns) for input.
 * - Configures ADC pins for wind speed, wind direction, and sun light sensor readings.
 * 
 * It also configures pull-up resistors for specific pins and sets the appropriate output logic levels.
 */
void GPIO_init(){
    15e6:	cf 93       	push	r28
    15e8:	df 93       	push	r29
    // Configure USART0 and USART1 pin routing
    PORTMUX.USARTROUTEA = PORTMUX_USART0_ALT1_gc | PORTMUX_USART1_DEFAULT_gc; // Set USART0 to alternative pins set 1, USART1 to default pins
    15ea:	e0 ee       	ldi	r30, 0xE0	; 224
    15ec:	f5 e0       	ldi	r31, 0x05	; 5
    15ee:	91 e0       	ldi	r25, 0x01	; 1
    15f0:	92 83       	std	Z+2, r25	; 0x02
    PORTMUX.TWIROUTEA = PORTMUX_TWI0_DEFAULT_gc; // Set TWI0 to default pins
    15f2:	16 82       	std	Z+6, r1	; 0x06

    // Configure Port A (PA) for I2C SDA, SCL, USART0 TX and XDIR
    PORTA.DIRSET = PIN2_bm | PIN3_bm | PIN4_bm | PIN7_bm; // Set PA2, PA3, PA4, PA7 as output (I2C SDA, SCL, USART0 TX, XDIR)
    15f4:	a0 e0       	ldi	r26, 0x00	; 0
    15f6:	b4 e0       	ldi	r27, 0x04	; 4
    15f8:	8c e9       	ldi	r24, 0x9C	; 156
    15fa:	11 96       	adiw	r26, 0x01	; 1
    15fc:	8c 93       	st	X, r24
    15fe:	11 97       	sbiw	r26, 0x01	; 1
    PORTA.DIRCLR = PIN5_bm; // Set PA5 as input (USART0 RX)
    1600:	80 e2       	ldi	r24, 0x20	; 32
    1602:	12 96       	adiw	r26, 0x02	; 2
    1604:	8c 93       	st	X, r24
    1606:	12 97       	sbiw	r26, 0x02	; 2
    PORTA.PIN4CTRL = PORT_PULLUPEN_bm; // Enable pull-up for PA4 (I2C SCL)
    1608:	88 e0       	ldi	r24, 0x08	; 8
    160a:	54 96       	adiw	r26, 0x14	; 20
    160c:	8c 93       	st	X, r24
    160e:	54 97       	sbiw	r26, 0x14	; 20
    PORTA.PIN5CTRL = PORT_PULLUPEN_bm; // Enable pull-up for PA5 (USART0 RX)
    1610:	55 96       	adiw	r26, 0x15	; 21
    1612:	8c 93       	st	X, r24
    1614:	55 97       	sbiw	r26, 0x15	; 21

    // Configure Port C (PC) for USART1 TX and RX
    PORTC.DIRSET = PIN0_bm; // Set PC0 as output (USART1 TX)
    1616:	e0 e4       	ldi	r30, 0x40	; 64
    1618:	f4 e0       	ldi	r31, 0x04	; 4
    161a:	91 83       	std	Z+1, r25	; 0x01
    PORTC.OUTCLR = PIN1_bm; // Set PC1 as input (USART1 RX)
    161c:	92 e0       	ldi	r25, 0x02	; 2
    161e:	96 83       	std	Z+6, r25	; 0x06
    PORTC.PIN0CTRL = PORT_PULLUPEN_bm; // Enable pull-up for PC0 (USART1 TX)
    1620:	80 8b       	std	Z+16, r24	; 0x10
    PORTC.PIN1CTRL = PORT_PULLUPEN_bm; // Enable pull-up for PC1 (USART1 RX)
    1622:	81 8b       	std	Z+17, r24	; 0x11

    // Configure Port F (PF) for Clock change output command
    PORTF.DIRSET = PIN2_bm; // Set PF2 as output (Clock change command)
    1624:	60 ea       	ldi	r22, 0xA0	; 160
    1626:	74 e0       	ldi	r23, 0x04	; 4
    1628:	24 e0       	ldi	r18, 0x04	; 4
    162a:	eb 01       	movw	r28, r22
    162c:	29 83       	std	Y+1, r18	; 0x01
    PORTF.OUTSET = PIN2_bm; // Set PF2 high (No action, to be controlled by software)
    162e:	2d 83       	std	Y+5, r18	; 0x05

    // Configure Port D (PD) for Keypad row and column control
    PORTD.DIRSET = PIN2_bm | PIN3_bm | PIN6_bm | PIN7_bm; // Set PD2, PD3, PD6, PD7 as output (Keypad rows)
    1630:	20 e6       	ldi	r18, 0x60	; 96
    1632:	34 e0       	ldi	r19, 0x04	; 4
    1634:	4c ec       	ldi	r20, 0xCC	; 204
    1636:	e9 01       	movw	r28, r18
    1638:	49 83       	std	Y+1, r20	; 0x01
    PORTD.OUTSET = PIN2_bm | PIN3_bm | PIN6_bm | PIN7_bm; // Set Keypad rows to high
    163a:	4d 83       	std	Y+5, r20	; 0x05
    PORTD.OUTCLR = PIN1_bm; // Set PD1 as low (Keypad column 1)
    163c:	9e 83       	std	Y+6, r25	; 0x06
    PORTF.OUTCLR = PIN4_bm | PIN3_bm; // Set PF4 and PF3 as low (Keypad columns 2-3)
    163e:	98 e1       	ldi	r25, 0x18	; 24
    1640:	eb 01       	movw	r28, r22
    1642:	9e 83       	std	Y+6, r25	; 0x06
    PORTD.PIN1CTRL = PORT_PULLUPEN_bm; // Enable pull-up for PD1 (Keypad column 1)
    1644:	e9 01       	movw	r28, r18
    1646:	89 8b       	std	Y+17, r24	; 0x11
    PORTF.PIN4CTRL = PORT_PULLUPEN_bm; // Enable pull-up for PF4 (Keypad column 2)
    1648:	eb 01       	movw	r28, r22
    164a:	8c 8b       	std	Y+20, r24	; 0x14
    PORTF.PIN3CTRL = PORT_PULLUPEN_bm; // Enable pull-up for PF3 (Keypad column 3)
    164c:	8b 8b       	std	Y+19, r24	; 0x13

    // Configure ADC pins for wind speed, wind direction, and sun light level sensors
    PORTC.PIN2CTRL &= ~PORT_ISC_gm; // Disable interrupt sense for PC2 (Wind speed sensor)
    164e:	82 89       	ldd	r24, Z+18	; 0x12
    1650:	88 7f       	andi	r24, 0xF8	; 248
    1652:	82 8b       	std	Z+18, r24	; 0x12
    PORTC.PIN2CTRL |= PORT_ISC_INPUT_DISABLE_gc; // Disable input sense for PC2
    1654:	82 89       	ldd	r24, Z+18	; 0x12
    1656:	84 60       	ori	r24, 0x04	; 4
    1658:	82 8b       	std	Z+18, r24	; 0x12
    PORTC.PIN2CTRL &= ~PORT_PULLUPEN_bm; // Disable pull-up for PC2
    165a:	82 89       	ldd	r24, Z+18	; 0x12
    165c:	87 7f       	andi	r24, 0xF7	; 247
    165e:	82 8b       	std	Z+18, r24	; 0x12
    PORTC.PIN3CTRL &= ~PORT_ISC_gm; // Disable interrupt sense for PC3 (Wind direction sensor)
    1660:	83 89       	ldd	r24, Z+19	; 0x13
    1662:	88 7f       	andi	r24, 0xF8	; 248
    1664:	83 8b       	std	Z+19, r24	; 0x13
    PORTC.PIN3CTRL |= PORT_ISC_INPUT_DISABLE_gc; // Disable input sense for PC3
    1666:	83 89       	ldd	r24, Z+19	; 0x13
    1668:	84 60       	ori	r24, 0x04	; 4
    166a:	83 8b       	std	Z+19, r24	; 0x13
    PORTC.PIN3CTRL &= ~PORT_PULLUPEN_bm; // Disable pull-up for PC3
    166c:	83 89       	ldd	r24, Z+19	; 0x13
    166e:	87 7f       	andi	r24, 0xF7	; 247
    1670:	83 8b       	std	Z+19, r24	; 0x13
    PORTA.PIN6CTRL &= ~PORT_ISC_gm; // Disable interrupt sense for PA6 (Sun light sensor)
    1672:	56 96       	adiw	r26, 0x16	; 22
    1674:	8c 91       	ld	r24, X
    1676:	56 97       	sbiw	r26, 0x16	; 22
    1678:	88 7f       	andi	r24, 0xF8	; 248
    167a:	56 96       	adiw	r26, 0x16	; 22
    167c:	8c 93       	st	X, r24
    167e:	56 97       	sbiw	r26, 0x16	; 22
    PORTA.PIN6CTRL |= PORT_ISC_INPUT_DISABLE_gc; // Disable input sense for PA6
    1680:	56 96       	adiw	r26, 0x16	; 22
    1682:	8c 91       	ld	r24, X
    1684:	56 97       	sbiw	r26, 0x16	; 22
    1686:	84 60       	ori	r24, 0x04	; 4
    1688:	56 96       	adiw	r26, 0x16	; 22
    168a:	8c 93       	st	X, r24
    168c:	56 97       	sbiw	r26, 0x16	; 22
    PORTA.PIN6CTRL &= ~PORT_PULLUPEN_bm; // Disable pull-up for PA6
    168e:	56 96       	adiw	r26, 0x16	; 22
    1690:	8c 91       	ld	r24, X
    1692:	56 97       	sbiw	r26, 0x16	; 22
    1694:	87 7f       	andi	r24, 0xF7	; 247
    1696:	56 96       	adiw	r26, 0x16	; 22
    1698:	8c 93       	st	X, r24
}
    169a:	df 91       	pop	r29
    169c:	cf 91       	pop	r28
    169e:	08 95       	ret

000016a0 <I2C_init>:
 * the SDA hold time, SDA setup time, and enabling the I2C master mode.
 * It also sets the baud rate for communication.
 */
void I2C_init(void) {
    // Configure SDA hold, SDA setup, and enable fast mode plus (FMP)
    TWI0.CTRLA = TWI_SDAHOLD_OFF_gc | TWI_SDASETUP_4CYC_gc | TWI_FMPEN_ON_gc;
    16a0:	e0 e0       	ldi	r30, 0x00	; 0
    16a2:	f9 e0       	ldi	r31, 0x09	; 9
    16a4:	82 e0       	ldi	r24, 0x02	; 2
    16a6:	80 83       	st	Z, r24

    // Set baud rate for the I2C bus
    TWI0.MBAUD = (uint8_t)TWI_BAUD;
    16a8:	85 e0       	ldi	r24, 0x05	; 5
    16aa:	86 83       	std	Z+6, r24	; 0x06

    // Enable TWI (I2C) module
    TWI0.MCTRLA = TWI_ENABLE_bm;
    16ac:	81 e0       	ldi	r24, 0x01	; 1
    16ae:	83 83       	std	Z+3, r24	; 0x03

    // Set bus state to idle
    TWI0.MSTATUS = TWI_BUSSTATE_IDLE_gc;
    16b0:	85 83       	std	Z+5, r24	; 0x05
    16b2:	08 95       	ret

000016b4 <TransmitAdd>:
 */
uint8_t TransmitAdd(uint8_t addr, uint8_t read) {
    uint8_t error = 0;

    // Set the address and read/write flag
    TWI0.MADDR = (addr << 1) | read;
    16b4:	90 e0       	ldi	r25, 0x00	; 0
    16b6:	88 0f       	add	r24, r24
    16b8:	99 1f       	adc	r25, r25
    16ba:	86 2b       	or	r24, r22
    16bc:	80 93 07 09 	sts	0x0907, r24	; 0x800907 <__TEXT_REGION_LENGTH__+0x7f0907>
    uint32_t timeout_counter = TIMEOUT_COUNTER;
    16c0:	40 e2       	ldi	r20, 0x20	; 32
    16c2:	51 ea       	ldi	r21, 0xA1	; 161
    16c4:	67 e0       	ldi	r22, 0x07	; 7
    16c6:	70 e0       	ldi	r23, 0x00	; 0

    // Wait for the write interrupt flag or read interrupt flag
    while (!(TWI0.MSTATUS & (TWI_WIF_bm | TWI_RIF_bm))) {
    16c8:	09 c0       	rjmp	.+18     	; 0x16dc <TransmitAdd+0x28>
        if (--timeout_counter == 0) { // Timeout condition
    16ca:	41 50       	subi	r20, 0x01	; 1
    16cc:	51 09       	sbc	r21, r1
    16ce:	61 09       	sbc	r22, r1
    16d0:	71 09       	sbc	r23, r1
    16d2:	21 f4       	brne	.+8      	; 0x16dc <TransmitAdd+0x28>
            error = Error_Timout;
            TWI0.MCTRLB = TWI_MCMD_STOP_gc; // Send STOP signal
    16d4:	83 e0       	ldi	r24, 0x03	; 3
    16d6:	80 93 04 09 	sts	0x0904, r24	; 0x800904 <__TEXT_REGION_LENGTH__+0x7f0904>
            break;
    16da:	05 c0       	rjmp	.+10     	; 0x16e6 <TransmitAdd+0x32>
    // Set the address and read/write flag
    TWI0.MADDR = (addr << 1) | read;
    uint32_t timeout_counter = TIMEOUT_COUNTER;

    // Wait for the write interrupt flag or read interrupt flag
    while (!(TWI0.MSTATUS & (TWI_WIF_bm | TWI_RIF_bm))) {
    16dc:	80 91 05 09 	lds	r24, 0x0905	; 0x800905 <__TEXT_REGION_LENGTH__+0x7f0905>
    16e0:	80 7c       	andi	r24, 0xC0	; 192
    16e2:	99 f3       	breq	.-26     	; 0x16ca <TransmitAdd+0x16>
 * 
 * This function transmits the 7-bit address of the slave device along with the 
 * read/write flag. It checks for errors such as timeout, NACK, or bus errors.
 */
uint8_t TransmitAdd(uint8_t addr, uint8_t read) {
    uint8_t error = 0;
    16e4:	80 e0       	ldi	r24, 0x00	; 0
            break;
        }
    }

    // Check for other errors (NACK or bus error)
    if (TWI0.MSTATUS & TWI_RXACK_bm) error = Error_NACK;
    16e6:	90 91 05 09 	lds	r25, 0x0905	; 0x800905 <__TEXT_REGION_LENGTH__+0x7f0905>
    16ea:	94 fd       	sbrc	r25, 4
    16ec:	81 e0       	ldi	r24, 0x01	; 1
    if (TWI0.MSTATUS & (TWI_ARBLOST_bm | TWI_BUSERR_bm)) error = Error_Bus;
    16ee:	90 91 05 09 	lds	r25, 0x0905	; 0x800905 <__TEXT_REGION_LENGTH__+0x7f0905>
    16f2:	9c 70       	andi	r25, 0x0C	; 12
    16f4:	09 f0       	breq	.+2      	; 0x16f8 <TransmitAdd+0x44>
    16f6:	82 e0       	ldi	r24, 0x02	; 2

    if (error != 0) TWI0.MCTRLB = TWI_MCMD_STOP_gc; // Send STOP signal on error
    16f8:	88 23       	and	r24, r24
    16fa:	19 f0       	breq	.+6      	; 0x1702 <TransmitAdd+0x4e>
    16fc:	93 e0       	ldi	r25, 0x03	; 3
    16fe:	90 93 04 09 	sts	0x0904, r25	; 0x800904 <__TEXT_REGION_LENGTH__+0x7f0904>

    I2C.error = error;
    1702:	80 93 66 68 	sts	0x6866, r24	; 0x806866 <I2C>
    return error;
}
    1706:	08 95       	ret

00001708 <TransmitByte>:
 * @return uint8_t Error code (0 for success, Error_NACK, or Error_Bus).
 * 
 * This function transmits a single byte of data and waits for the I2C bus to complete the transmission.
 * It checks for errors such as NACK or bus errors during transmission.
 */
uint8_t TransmitByte(uint8_t data) {
    1708:	28 2f       	mov	r18, r24
    uint8_t error = 0;

    // Check for NACK or bus error before transmitting
    if (TWI0.MSTATUS & TWI_RXACK_bm) error = Error_NACK;
    170a:	90 91 05 09 	lds	r25, 0x0905	; 0x800905 <__TEXT_REGION_LENGTH__+0x7f0905>
    170e:	94 fd       	sbrc	r25, 4
    1710:	02 c0       	rjmp	.+4      	; 0x1716 <TransmitByte+0xe>
 * 
 * This function transmits a single byte of data and waits for the I2C bus to complete the transmission.
 * It checks for errors such as NACK or bus errors during transmission.
 */
uint8_t TransmitByte(uint8_t data) {
    uint8_t error = 0;
    1712:	80 e0       	ldi	r24, 0x00	; 0
    1714:	01 c0       	rjmp	.+2      	; 0x1718 <TransmitByte+0x10>

    // Check for NACK or bus error before transmitting
    if (TWI0.MSTATUS & TWI_RXACK_bm) error = Error_NACK;
    1716:	81 e0       	ldi	r24, 0x01	; 1
    if (TWI0.MSTATUS & (TWI_ARBLOST_bm | TWI_BUSERR_bm)) error = Error_Bus;
    1718:	90 91 05 09 	lds	r25, 0x0905	; 0x800905 <__TEXT_REGION_LENGTH__+0x7f0905>
    171c:	9c 70       	andi	r25, 0x0C	; 12
    171e:	09 f0       	breq	.+2      	; 0x1722 <TransmitByte+0x1a>
    1720:	82 e0       	ldi	r24, 0x02	; 2

    if (error) {
    1722:	88 23       	and	r24, r24
    1724:	19 f0       	breq	.+6      	; 0x172c <TransmitByte+0x24>
        TWI0.MCTRLB = TWI_MCMD_STOP_gc;
    1726:	93 e0       	ldi	r25, 0x03	; 3
    1728:	90 93 04 09 	sts	0x0904, r25	; 0x800904 <__TEXT_REGION_LENGTH__+0x7f0904>
    }

    // Transmit data if no errors
    if (error == 0) {
    172c:	81 11       	cpse	r24, r1
    172e:	14 c0       	rjmp	.+40     	; 0x1758 <TransmitByte+0x50>
        TWI0.MDATA = data;
    1730:	20 93 08 09 	sts	0x0908, r18	; 0x800908 <__TEXT_REGION_LENGTH__+0x7f0908>
        uint32_t timeout_counter = TIMEOUT_COUNTER;
    1734:	40 e2       	ldi	r20, 0x20	; 32
    1736:	51 ea       	ldi	r21, 0xA1	; 161
    1738:	67 e0       	ldi	r22, 0x07	; 7
    173a:	70 e0       	ldi	r23, 0x00	; 0

        // Wait for the write interrupt flag to signal transmission completion
        while (!(TWI0.MSTATUS & TWI_WIF_bm)) {
    173c:	09 c0       	rjmp	.+18     	; 0x1750 <TransmitByte+0x48>
            if (--timeout_counter == 0) { // Timeout condition
    173e:	41 50       	subi	r20, 0x01	; 1
    1740:	51 09       	sbc	r21, r1
    1742:	61 09       	sbc	r22, r1
    1744:	71 09       	sbc	r23, r1
    1746:	21 f4       	brne	.+8      	; 0x1750 <TransmitByte+0x48>
                error = Error_Timout;
                TWI0.MCTRLB = TWI_MCMD_STOP_gc;
    1748:	83 e0       	ldi	r24, 0x03	; 3
    174a:	80 93 04 09 	sts	0x0904, r24	; 0x800904 <__TEXT_REGION_LENGTH__+0x7f0904>
                break;
    174e:	04 c0       	rjmp	.+8      	; 0x1758 <TransmitByte+0x50>
    if (error == 0) {
        TWI0.MDATA = data;
        uint32_t timeout_counter = TIMEOUT_COUNTER;

        // Wait for the write interrupt flag to signal transmission completion
        while (!(TWI0.MSTATUS & TWI_WIF_bm)) {
    1750:	90 91 05 09 	lds	r25, 0x0905	; 0x800905 <__TEXT_REGION_LENGTH__+0x7f0905>
    1754:	96 ff       	sbrs	r25, 6
    1756:	f3 cf       	rjmp	.-26     	; 0x173e <TransmitByte+0x36>
                break;
            }
        }
    }

    I2C.error = error;
    1758:	80 93 66 68 	sts	0x6866, r24	; 0x806866 <I2C>
    return error;
}
    175c:	08 95       	ret

0000175e <ReadByteInf>:
 * @param data Pointer to store the received byte of data.
 * 
 * This function reads a byte of data from the I2C bus and stores it in the provided data pointer.
 * It sets the ACK or NACK based on the provided flag and handles timeout errors.
 */
void ReadByteInf(uint8_t ack, uint8_t* data) {
    175e:	db 01       	movw	r26, r22
    uint32_t timeout_counter = TIMEOUT_COUNTER;
    1760:	40 e2       	ldi	r20, 0x20	; 32
    1762:	51 ea       	ldi	r21, 0xA1	; 161
    1764:	67 e0       	ldi	r22, 0x07	; 7
    1766:	70 e0       	ldi	r23, 0x00	; 0

    // Wait for the read interrupt flag or clock hold flag
    while (!(TWI0.MSTATUS & (TWI_CLKHOLD_bm | TWI_RIF_bm))) {
    1768:	09 c0       	rjmp	.+18     	; 0x177c <ReadByteInf+0x1e>
        if (--timeout_counter == 0) { // Timeout condition
    176a:	41 50       	subi	r20, 0x01	; 1
    176c:	51 09       	sbc	r21, r1
    176e:	61 09       	sbc	r22, r1
    1770:	71 09       	sbc	r23, r1
    1772:	21 f4       	brne	.+8      	; 0x177c <ReadByteInf+0x1e>
            I2C.error = Error_Timout;
    1774:	93 e0       	ldi	r25, 0x03	; 3
    1776:	90 93 66 68 	sts	0x6866, r25	; 0x806866 <I2C>
            break;
    177a:	04 c0       	rjmp	.+8      	; 0x1784 <ReadByteInf+0x26>
 */
void ReadByteInf(uint8_t ack, uint8_t* data) {
    uint32_t timeout_counter = TIMEOUT_COUNTER;

    // Wait for the read interrupt flag or clock hold flag
    while (!(TWI0.MSTATUS & (TWI_CLKHOLD_bm | TWI_RIF_bm))) {
    177c:	90 91 05 09 	lds	r25, 0x0905	; 0x800905 <__TEXT_REGION_LENGTH__+0x7f0905>
    1780:	90 7a       	andi	r25, 0xA0	; 160
    1782:	99 f3       	breq	.-26     	; 0x176a <ReadByteInf+0xc>
            break;
        }
    }

    // If no error, read the data byte
    if (!I2C.error) {
    1784:	90 91 66 68 	lds	r25, 0x6866	; 0x806866 <I2C>
    1788:	91 11       	cpse	r25, r1
    178a:	0a c0       	rjmp	.+20     	; 0x17a0 <ReadByteInf+0x42>
        TWI0.MCTRLB = ack ? TWI_MCMD_RECVTRANS_gc : TWI_ACKACT_NACK_gc;
    178c:	88 23       	and	r24, r24
    178e:	11 f0       	breq	.+4      	; 0x1794 <ReadByteInf+0x36>
    1790:	82 e0       	ldi	r24, 0x02	; 2
    1792:	01 c0       	rjmp	.+2      	; 0x1796 <ReadByteInf+0x38>
    1794:	84 e0       	ldi	r24, 0x04	; 4
    1796:	e0 e0       	ldi	r30, 0x00	; 0
    1798:	f9 e0       	ldi	r31, 0x09	; 9
    179a:	84 83       	std	Z+4, r24	; 0x04
        *data = TWI0.MDATA;
    179c:	80 85       	ldd	r24, Z+8	; 0x08
    179e:	8c 93       	st	X, r24
    17a0:	08 95       	ret

000017a2 <ReadReg>:
 * @param reg Register address to read from.
 * @return uint8_t The data read from the register.
 * 
 * This function writes the register address to the I2C device and reads the data from it.
 */
uint8_t ReadReg(uint8_t addr, uint8_t reg) {
    17a2:	0f 93       	push	r16
    17a4:	1f 93       	push	r17
    17a6:	cf 93       	push	r28
    17a8:	df 93       	push	r29
    17aa:	1f 92       	push	r1
    17ac:	cd b7       	in	r28, 0x3d	; 61
    17ae:	de b7       	in	r29, 0x3e	; 62
    17b0:	18 2f       	mov	r17, r24
    17b2:	06 2f       	mov	r16, r22
    uint8_t data = 0;
    17b4:	19 82       	std	Y+1, r1	; 0x01

    if (!TransmitAdd(addr, WRITE)) { // Transmit address for write
    17b6:	60 e0       	ldi	r22, 0x00	; 0
    17b8:	0e 94 5a 0b 	call	0x16b4	; 0x16b4 <TransmitAdd>
    17bc:	81 11       	cpse	r24, r1
    17be:	10 c0       	rjmp	.+32     	; 0x17e0 <ReadReg+0x3e>
        if (!TransmitByte(reg)) { // Write register address
    17c0:	80 2f       	mov	r24, r16
    17c2:	0e 94 84 0b 	call	0x1708	; 0x1708 <TransmitByte>
    17c6:	81 11       	cpse	r24, r1
    17c8:	0b c0       	rjmp	.+22     	; 0x17e0 <ReadReg+0x3e>
            if (!TransmitAdd(addr, READ)) { // Transmit address for read
    17ca:	61 e0       	ldi	r22, 0x01	; 1
    17cc:	81 2f       	mov	r24, r17
    17ce:	0e 94 5a 0b 	call	0x16b4	; 0x16b4 <TransmitAdd>
    17d2:	81 11       	cpse	r24, r1
    17d4:	05 c0       	rjmp	.+10     	; 0x17e0 <ReadReg+0x3e>
                ReadByteInf(0, &data); // Read the data with NACK
    17d6:	be 01       	movw	r22, r28
    17d8:	6f 5f       	subi	r22, 0xFF	; 255
    17da:	7f 4f       	sbci	r23, 0xFF	; 255
    17dc:	0e 94 af 0b 	call	0x175e	; 0x175e <ReadByteInf>
            }
        }
    }

    TWI0.MCTRLB |= TWI_MCMD_STOP_gc; // Send STOP signal to release the bus
    17e0:	e0 e0       	ldi	r30, 0x00	; 0
    17e2:	f9 e0       	ldi	r31, 0x09	; 9
    17e4:	84 81       	ldd	r24, Z+4	; 0x04
    17e6:	83 60       	ori	r24, 0x03	; 3
    17e8:	84 83       	std	Z+4, r24	; 0x04
    return data;
}
    17ea:	89 81       	ldd	r24, Y+1	; 0x01
    17ec:	0f 90       	pop	r0
    17ee:	df 91       	pop	r29
    17f0:	cf 91       	pop	r28
    17f2:	1f 91       	pop	r17
    17f4:	0f 91       	pop	r16
    17f6:	08 95       	ret

000017f8 <WriteToReg>:
 * @param reg Register address to write to.
 * @param data Data to write to the register.
 * 
 * This function writes the data to a specific register of an I2C device.
 */
void WriteToReg(uint8_t addr, uint8_t reg, uint8_t data) {
    17f8:	cf 93       	push	r28
    17fa:	df 93       	push	r29
    17fc:	c6 2f       	mov	r28, r22
    17fe:	d4 2f       	mov	r29, r20
    if (!TransmitAdd(addr, WRITE)) { // Transmit address for write
    1800:	60 e0       	ldi	r22, 0x00	; 0
    1802:	0e 94 5a 0b 	call	0x16b4	; 0x16b4 <TransmitAdd>
    1806:	81 11       	cpse	r24, r1
    1808:	08 c0       	rjmp	.+16     	; 0x181a <WriteToReg+0x22>
        if (!TransmitByte(reg)) { // Write register address
    180a:	8c 2f       	mov	r24, r28
    180c:	0e 94 84 0b 	call	0x1708	; 0x1708 <TransmitByte>
    1810:	81 11       	cpse	r24, r1
    1812:	03 c0       	rjmp	.+6      	; 0x181a <WriteToReg+0x22>
            TransmitByte(data); // Write the data with STOP
    1814:	8d 2f       	mov	r24, r29
    1816:	0e 94 84 0b 	call	0x1708	; 0x1708 <TransmitByte>
        }
    }

    TWI0.MCTRLB |= TWI_MCMD_STOP_gc; // Send STOP signal
    181a:	e0 e0       	ldi	r30, 0x00	; 0
    181c:	f9 e0       	ldi	r31, 0x09	; 9
    181e:	84 81       	ldd	r24, Z+4	; 0x04
    1820:	83 60       	ori	r24, 0x03	; 3
    1822:	84 83       	std	Z+4, r24	; 0x04
}
    1824:	df 91       	pop	r29
    1826:	cf 91       	pop	r28
    1828:	08 95       	ret

0000182a <ReadMulti>:
 * @return uint64_t The data read from the device.
 * 
 * This function reads multiple bytes of data from an I2C device and combines them into a 64-bit value.
 * It handles multiple bytes with proper ACK/NACK handling.
 */
uint64_t ReadMulti(uint8_t addr, uint8_t reg, uint8_t bytes) {
    182a:	4f 92       	push	r4
    182c:	5f 92       	push	r5
    182e:	6f 92       	push	r6
    1830:	7f 92       	push	r7
    1832:	8f 92       	push	r8
    1834:	9f 92       	push	r9
    1836:	af 92       	push	r10
    1838:	bf 92       	push	r11
    183a:	cf 92       	push	r12
    183c:	df 92       	push	r13
    183e:	ef 92       	push	r14
    1840:	ff 92       	push	r15
    1842:	0f 93       	push	r16
    1844:	1f 93       	push	r17
    1846:	cf 93       	push	r28
    1848:	df 93       	push	r29
    184a:	1f 92       	push	r1
    184c:	cd b7       	in	r28, 0x3d	; 61
    184e:	de b7       	in	r29, 0x3e	; 62
    uint64_t data = 0;
    if (bytes == 0 || bytes > 8) return 0; // Validate byte count
    1850:	9f ef       	ldi	r25, 0xFF	; 255
    1852:	94 0f       	add	r25, r20
    1854:	98 30       	cpi	r25, 0x08	; 8
    1856:	08 f0       	brcs	.+2      	; 0x185a <ReadMulti+0x30>
    1858:	7b c0       	rjmp	.+246    	; 0x1950 <ReadMulti+0x126>
    185a:	44 2e       	mov	r4, r20
    185c:	f6 2e       	mov	r15, r22
    185e:	18 2f       	mov	r17, r24

    if (!TransmitAdd(addr, WRITE)) { // Transmit address for write
    1860:	60 e0       	ldi	r22, 0x00	; 0
    1862:	0e 94 5a 0b 	call	0x16b4	; 0x16b4 <TransmitAdd>
    1866:	81 11       	cpse	r24, r1
    1868:	54 c0       	rjmp	.+168    	; 0x1912 <ReadMulti+0xe8>
        if (!TransmitByte(reg)) { // Write register address
    186a:	8f 2d       	mov	r24, r15
    186c:	0e 94 84 0b 	call	0x1708	; 0x1708 <TransmitByte>
    1870:	81 11       	cpse	r24, r1
    1872:	58 c0       	rjmp	.+176    	; 0x1924 <ReadMulti+0xfa>
            if (!TransmitAdd(addr, READ)) { // Transmit address for read
    1874:	61 e0       	ldi	r22, 0x01	; 1
    1876:	81 2f       	mov	r24, r17
    1878:	0e 94 5a 0b 	call	0x16b4	; 0x16b4 <TransmitAdd>
    187c:	88 23       	and	r24, r24
    187e:	c9 f1       	breq	.+114    	; 0x18f2 <ReadMulti+0xc8>
 * 
 * This function reads multiple bytes of data from an I2C device and combines them into a 64-bit value.
 * It handles multiple bytes with proper ACK/NACK handling.
 */
uint64_t ReadMulti(uint8_t addr, uint8_t reg, uint8_t bytes) {
    uint64_t data = 0;
    1880:	51 2c       	mov	r5, r1
    1882:	61 2c       	mov	r6, r1
    1884:	71 2c       	mov	r7, r1
    1886:	c1 2c       	mov	r12, r1
    1888:	d1 2c       	mov	r13, r1
    188a:	e1 2c       	mov	r14, r1
    188c:	f1 2c       	mov	r15, r1
    188e:	10 e0       	ldi	r17, 0x00	; 0
    1890:	51 c0       	rjmp	.+162    	; 0x1934 <ReadMulti+0x10a>

    if (!TransmitAdd(addr, WRITE)) { // Transmit address for write
        if (!TransmitByte(reg)) { // Write register address
            if (!TransmitAdd(addr, READ)) { // Transmit address for read
                for (int i = 0; i < bytes; i++) {
                    uint8_t byte = 0;
    1892:	19 82       	std	Y+1, r1	; 0x01
                    ReadByteInf(i < bytes - 1 ? 1 : 0, &byte); // Use ACK for all but the last byte
    1894:	81 e0       	ldi	r24, 0x01	; 1
    1896:	a8 1a       	sub	r10, r24
    1898:	b1 08       	sbc	r11, r1
    189a:	81 e0       	ldi	r24, 0x01	; 1
    189c:	8a 14       	cp	r8, r10
    189e:	9b 04       	cpc	r9, r11
    18a0:	0c f0       	brlt	.+2      	; 0x18a4 <ReadMulti+0x7a>
    18a2:	80 e0       	ldi	r24, 0x00	; 0
    18a4:	be 01       	movw	r22, r28
    18a6:	6f 5f       	subi	r22, 0xFF	; 255
    18a8:	7f 4f       	sbci	r23, 0xFF	; 255
    18aa:	0e 94 af 0b 	call	0x175e	; 0x175e <ReadByteInf>
                    if (I2C.error)
    18ae:	80 91 66 68 	lds	r24, 0x6866	; 0x806866 <I2C>
    18b2:	81 11       	cpse	r24, r1
    18b4:	3f c0       	rjmp	.+126    	; 0x1934 <ReadMulti+0x10a>
                        break;
                    else
                        data |= ((uint64_t)byte << (8 * (bytes - 1 - i))); // Combine bytes into 64-bit value
    18b6:	29 81       	ldd	r18, Y+1	; 0x01
    18b8:	a8 18       	sub	r10, r8
    18ba:	b9 08       	sbc	r11, r9
    18bc:	aa 0c       	add	r10, r10
    18be:	bb 1c       	adc	r11, r11
    18c0:	aa 0c       	add	r10, r10
    18c2:	bb 1c       	adc	r11, r11
    18c4:	aa 0c       	add	r10, r10
    18c6:	bb 1c       	adc	r11, r11
    18c8:	30 e0       	ldi	r19, 0x00	; 0
    18ca:	40 e0       	ldi	r20, 0x00	; 0
    18cc:	50 e0       	ldi	r21, 0x00	; 0
    18ce:	60 e0       	ldi	r22, 0x00	; 0
    18d0:	70 e0       	ldi	r23, 0x00	; 0
    18d2:	90 e0       	ldi	r25, 0x00	; 0
    18d4:	0a 2d       	mov	r16, r10
    18d6:	0e 94 cf 25 	call	0x4b9e	; 0x4b9e <__ashldi3>
    18da:	52 2a       	or	r5, r18
    18dc:	63 2a       	or	r6, r19
    18de:	74 2a       	or	r7, r20
    18e0:	c5 2a       	or	r12, r21
    18e2:	d6 2a       	or	r13, r22
    18e4:	e7 2a       	or	r14, r23
    18e6:	f8 2a       	or	r15, r24
    18e8:	19 2b       	or	r17, r25
    if (bytes == 0 || bytes > 8) return 0; // Validate byte count

    if (!TransmitAdd(addr, WRITE)) { // Transmit address for write
        if (!TransmitByte(reg)) { // Write register address
            if (!TransmitAdd(addr, READ)) { // Transmit address for read
                for (int i = 0; i < bytes; i++) {
    18ea:	8f ef       	ldi	r24, 0xFF	; 255
    18ec:	88 1a       	sub	r8, r24
    18ee:	98 0a       	sbc	r9, r24
    18f0:	0a c0       	rjmp	.+20     	; 0x1906 <ReadMulti+0xdc>
    18f2:	81 2c       	mov	r8, r1
    18f4:	91 2c       	mov	r9, r1
    18f6:	51 2c       	mov	r5, r1
    18f8:	61 2c       	mov	r6, r1
    18fa:	71 2c       	mov	r7, r1
    18fc:	c1 2c       	mov	r12, r1
    18fe:	d1 2c       	mov	r13, r1
    1900:	e1 2c       	mov	r14, r1
    1902:	f1 2c       	mov	r15, r1
    1904:	10 e0       	ldi	r17, 0x00	; 0
    1906:	a4 2c       	mov	r10, r4
    1908:	b1 2c       	mov	r11, r1
    190a:	8a 14       	cp	r8, r10
    190c:	9b 04       	cpc	r9, r11
    190e:	0c f2       	brlt	.-126    	; 0x1892 <ReadMulti+0x68>
    1910:	11 c0       	rjmp	.+34     	; 0x1934 <ReadMulti+0x10a>
 * 
 * This function reads multiple bytes of data from an I2C device and combines them into a 64-bit value.
 * It handles multiple bytes with proper ACK/NACK handling.
 */
uint64_t ReadMulti(uint8_t addr, uint8_t reg, uint8_t bytes) {
    uint64_t data = 0;
    1912:	51 2c       	mov	r5, r1
    1914:	61 2c       	mov	r6, r1
    1916:	71 2c       	mov	r7, r1
    1918:	c1 2c       	mov	r12, r1
    191a:	d1 2c       	mov	r13, r1
    191c:	e1 2c       	mov	r14, r1
    191e:	f1 2c       	mov	r15, r1
    1920:	10 e0       	ldi	r17, 0x00	; 0
    1922:	08 c0       	rjmp	.+16     	; 0x1934 <ReadMulti+0x10a>
    1924:	51 2c       	mov	r5, r1
    1926:	61 2c       	mov	r6, r1
    1928:	71 2c       	mov	r7, r1
    192a:	c1 2c       	mov	r12, r1
    192c:	d1 2c       	mov	r13, r1
    192e:	e1 2c       	mov	r14, r1
    1930:	f1 2c       	mov	r15, r1
    1932:	10 e0       	ldi	r17, 0x00	; 0
                }
            }
        }
    }

    TWI0.MCTRLB |= TWI_MCMD_STOP_gc; // Send STOP signal
    1934:	e0 e0       	ldi	r30, 0x00	; 0
    1936:	f9 e0       	ldi	r31, 0x09	; 9
    1938:	84 81       	ldd	r24, Z+4	; 0x04
    193a:	83 60       	ori	r24, 0x03	; 3
    193c:	84 83       	std	Z+4, r24	; 0x04
    return data;
    193e:	25 2d       	mov	r18, r5
    1940:	36 2d       	mov	r19, r6
    1942:	47 2d       	mov	r20, r7
    1944:	5c 2d       	mov	r21, r12
    1946:	6d 2d       	mov	r22, r13
    1948:	7e 2d       	mov	r23, r14
    194a:	8f 2d       	mov	r24, r15
    194c:	91 2f       	mov	r25, r17
    194e:	08 c0       	rjmp	.+16     	; 0x1960 <ReadMulti+0x136>
 * This function reads multiple bytes of data from an I2C device and combines them into a 64-bit value.
 * It handles multiple bytes with proper ACK/NACK handling.
 */
uint64_t ReadMulti(uint8_t addr, uint8_t reg, uint8_t bytes) {
    uint64_t data = 0;
    if (bytes == 0 || bytes > 8) return 0; // Validate byte count
    1950:	20 e0       	ldi	r18, 0x00	; 0
    1952:	30 e0       	ldi	r19, 0x00	; 0
    1954:	40 e0       	ldi	r20, 0x00	; 0
    1956:	50 e0       	ldi	r21, 0x00	; 0
    1958:	60 e0       	ldi	r22, 0x00	; 0
    195a:	70 e0       	ldi	r23, 0x00	; 0
    195c:	80 e0       	ldi	r24, 0x00	; 0
    195e:	90 e0       	ldi	r25, 0x00	; 0
        }
    }

    TWI0.MCTRLB |= TWI_MCMD_STOP_gc; // Send STOP signal
    return data;
}
    1960:	0f 90       	pop	r0
    1962:	df 91       	pop	r29
    1964:	cf 91       	pop	r28
    1966:	1f 91       	pop	r17
    1968:	0f 91       	pop	r16
    196a:	ff 90       	pop	r15
    196c:	ef 90       	pop	r14
    196e:	df 90       	pop	r13
    1970:	cf 90       	pop	r12
    1972:	bf 90       	pop	r11
    1974:	af 90       	pop	r10
    1976:	9f 90       	pop	r9
    1978:	8f 90       	pop	r8
    197a:	7f 90       	pop	r7
    197c:	6f 90       	pop	r6
    197e:	5f 90       	pop	r5
    1980:	4f 90       	pop	r4
    1982:	08 95       	ret

00001984 <scan_keypad>:
	#else
		//round up by default
		__ticks_dc = (uint32_t)(ceil(fabs(__tmp)));
	#endif

	__builtin_avr_delay_cycles(__ticks_dc);
    1984:	cf 93       	push	r28
    1986:	df 93       	push	r29
    1988:	cd b7       	in	r28, 0x3d	; 61
    198a:	de b7       	in	r29, 0x3e	; 62
    198c:	27 97       	sbiw	r28, 0x07	; 7
    198e:	cd bf       	out	0x3d, r28	; 61
    1990:	de bf       	out	0x3e, r29	; 62
    1992:	80 e8       	ldi	r24, 0x80	; 128
    1994:	89 83       	std	Y+1, r24	; 0x01
    1996:	80 e4       	ldi	r24, 0x40	; 64
    1998:	8a 83       	std	Y+2, r24	; 0x02
    199a:	88 e0       	ldi	r24, 0x08	; 8
    199c:	8b 83       	std	Y+3, r24	; 0x03
    199e:	94 e0       	ldi	r25, 0x04	; 4
    19a0:	9c 83       	std	Y+4, r25	; 0x04
    19a2:	92 e0       	ldi	r25, 0x02	; 2
    19a4:	9d 83       	std	Y+5, r25	; 0x05
    19a6:	90 e1       	ldi	r25, 0x10	; 16
    19a8:	9e 83       	std	Y+6, r25	; 0x06
    19aa:	8f 83       	std	Y+7, r24	; 0x07
    19ac:	80 e0       	ldi	r24, 0x00	; 0
    19ae:	41 c0       	rjmp	.+130    	; 0x1a32 <scan_keypad+0xae>
    19b0:	68 2f       	mov	r22, r24
    19b2:	70 e0       	ldi	r23, 0x00	; 0
    19b4:	e1 e0       	ldi	r30, 0x01	; 1
    19b6:	f0 e0       	ldi	r31, 0x00	; 0
    19b8:	ec 0f       	add	r30, r28
    19ba:	fd 1f       	adc	r31, r29
    19bc:	e6 0f       	add	r30, r22
    19be:	f7 1f       	adc	r31, r23
    19c0:	40 81       	ld	r20, Z
    19c2:	40 93 66 04 	sts	0x0466, r20	; 0x800466 <__TEXT_REGION_LENGTH__+0x7f0466>
    19c6:	90 e0       	ldi	r25, 0x00	; 0
    19c8:	2f c0       	rjmp	.+94     	; 0x1a28 <scan_keypad+0xa4>
    19ca:	91 11       	cpse	r25, r1
    19cc:	0e c0       	rjmp	.+28     	; 0x19ea <scan_keypad+0x66>
    19ce:	30 91 68 04 	lds	r19, 0x0468	; 0x800468 <__TEXT_REGION_LENGTH__+0x7f0468>
    19d2:	e5 e0       	ldi	r30, 0x05	; 5
    19d4:	f0 e0       	ldi	r31, 0x00	; 0
    19d6:	ec 0f       	add	r30, r28
    19d8:	fd 1f       	adc	r31, r29
    19da:	e9 0f       	add	r30, r25
    19dc:	f1 1d       	adc	r31, r1
    19de:	20 81       	ld	r18, Z
    19e0:	32 23       	and	r19, r18
    19e2:	21 e0       	ldi	r18, 0x01	; 1
    19e4:	79 f0       	breq	.+30     	; 0x1a04 <scan_keypad+0x80>
    19e6:	20 e0       	ldi	r18, 0x00	; 0
    19e8:	0d c0       	rjmp	.+26     	; 0x1a04 <scan_keypad+0x80>
    19ea:	30 91 a8 04 	lds	r19, 0x04A8	; 0x8004a8 <__TEXT_REGION_LENGTH__+0x7f04a8>
    19ee:	e5 e0       	ldi	r30, 0x05	; 5
    19f0:	f0 e0       	ldi	r31, 0x00	; 0
    19f2:	ec 0f       	add	r30, r28
    19f4:	fd 1f       	adc	r31, r29
    19f6:	e9 0f       	add	r30, r25
    19f8:	f1 1d       	adc	r31, r1
    19fa:	20 81       	ld	r18, Z
    19fc:	32 23       	and	r19, r18
    19fe:	21 e0       	ldi	r18, 0x01	; 1
    1a00:	09 f0       	breq	.+2      	; 0x1a04 <scan_keypad+0x80>
    1a02:	20 e0       	ldi	r18, 0x00	; 0
    1a04:	22 23       	and	r18, r18
    1a06:	79 f0       	breq	.+30     	; 0x1a26 <scan_keypad+0xa2>
    1a08:	e1 e0       	ldi	r30, 0x01	; 1
    1a0a:	f0 e0       	ldi	r31, 0x00	; 0
    1a0c:	ec 0f       	add	r30, r28
    1a0e:	fd 1f       	adc	r31, r29
    1a10:	e6 0f       	add	r30, r22
    1a12:	f7 1f       	adc	r31, r23
    1a14:	20 81       	ld	r18, Z
    1a16:	20 93 65 04 	sts	0x0465, r18	; 0x800465 <__TEXT_REGION_LENGTH__+0x7f0465>
    1a1a:	28 2f       	mov	r18, r24
    1a1c:	22 0f       	add	r18, r18
    1a1e:	82 0f       	add	r24, r18
    1a20:	89 0f       	add	r24, r25
    1a22:	8f 5f       	subi	r24, 0xFF	; 255
    1a24:	0a c0       	rjmp	.+20     	; 0x1a3a <scan_keypad+0xb6>
    1a26:	9f 5f       	subi	r25, 0xFF	; 255
    1a28:	93 30       	cpi	r25, 0x03	; 3
    1a2a:	78 f2       	brcs	.-98     	; 0x19ca <scan_keypad+0x46>
    1a2c:	40 93 65 04 	sts	0x0465, r20	; 0x800465 <__TEXT_REGION_LENGTH__+0x7f0465>
    1a30:	8f 5f       	subi	r24, 0xFF	; 255
    1a32:	84 30       	cpi	r24, 0x04	; 4
    1a34:	08 f4       	brcc	.+2      	; 0x1a38 <scan_keypad+0xb4>
    1a36:	bc cf       	rjmp	.-136    	; 0x19b0 <scan_keypad+0x2c>
    1a38:	80 e0       	ldi	r24, 0x00	; 0
    1a3a:	27 96       	adiw	r28, 0x07	; 7
    1a3c:	cd bf       	out	0x3d, r28	; 61
    1a3e:	de bf       	out	0x3e, r29	; 62
    1a40:	df 91       	pop	r29
    1a42:	cf 91       	pop	r28
    1a44:	08 95       	ret

00001a46 <keypad>:
 * 
 * This function manages the scanning of the keypad and updates the key state 
 * while handling debouncing and detecting long key presses. The state is updated 
 * and saved in the global `Keypad3x4.key` and `Keypad3x4.key_held` variables.
 */
void keypad() {
    1a46:	cf 93       	push	r28
    static uint8_t last_key = 0; ///< Last pressed key (used for debouncing)
    static uint16_t hold_counter = 0; ///< Counter for long press detection

    uint8_t key = scan_keypad(); ///< Scan the keypad for the current key
    1a48:	0e 94 c2 0c 	call	0x1984	; 0x1984 <scan_keypad>
    1a4c:	c8 2f       	mov	r28, r24

    // Update key state based on current and previous key states
    if ((key == last_key) && (key != 0)) {
    1a4e:	80 91 69 68 	lds	r24, 0x6869	; 0x806869 <last_key.4546>
    1a52:	c8 13       	cpse	r28, r24
    1a54:	1f c0       	rjmp	.+62     	; 0x1a94 <keypad+0x4e>
    1a56:	cc 23       	and	r28, r28
    1a58:	e9 f0       	breq	.+58     	; 0x1a94 <keypad+0x4e>
        hold_counter += DEBOUNCE_DELAY;
    1a5a:	80 91 67 68 	lds	r24, 0x6867	; 0x806867 <hold_counter.4547>
    1a5e:	90 91 68 68 	lds	r25, 0x6868	; 0x806868 <hold_counter.4547+0x1>
    1a62:	0a 96       	adiw	r24, 0x0a	; 10
    1a64:	80 93 67 68 	sts	0x6867, r24	; 0x806867 <hold_counter.4547>
    1a68:	90 93 68 68 	sts	0x6868, r25	; 0x806868 <hold_counter.4547+0x1>
        if (hold_counter == HOLD_THRESHOLD) {
    1a6c:	c2 97       	sbiw	r24, 0x32	; 50
    1a6e:	79 f4       	brne	.+30     	; 0x1a8e <keypad+0x48>
            screen_clear(); // Clear screen on long press detection
    1a70:	0e 94 74 0f 	call	0x1ee8	; 0x1ee8 <screen_clear>
            Keypad3x4.key_held = key + LONG_PRESS_ADD; // Key is held down
    1a74:	ea e6       	ldi	r30, 0x6A	; 106
    1a76:	f8 e6       	ldi	r31, 0x68	; 104
    1a78:	84 e1       	ldi	r24, 0x14	; 20
    1a7a:	8c 0f       	add	r24, r28
    1a7c:	81 83       	std	Z+1, r24	; 0x01
            Keypad3x4.key = 0; // Reset key state to prevent repeated actions
    1a7e:	10 82       	st	Z, r1
            hold_counter = HOLD_THRESHOLD + 1;
    1a80:	83 e3       	ldi	r24, 0x33	; 51
    1a82:	90 e0       	ldi	r25, 0x00	; 0
    1a84:	80 93 67 68 	sts	0x6867, r24	; 0x806867 <hold_counter.4547>
    1a88:	90 93 68 68 	sts	0x6868, r25	; 0x806868 <hold_counter.4547+0x1>
    1a8c:	09 c0       	rjmp	.+18     	; 0x1aa0 <keypad+0x5a>
        } else {
            Keypad3x4.key = key; // Key is pressed for a short time
    1a8e:	c0 93 6a 68 	sts	0x686A, r28	; 0x80686a <Keypad3x4>
    1a92:	06 c0       	rjmp	.+12     	; 0x1aa0 <keypad+0x5a>
        }
    } else {
        hold_counter = 0;
    1a94:	10 92 67 68 	sts	0x6867, r1	; 0x806867 <hold_counter.4547>
    1a98:	10 92 68 68 	sts	0x6868, r1	; 0x806868 <hold_counter.4547+0x1>
        Keypad3x4.key = key;
    1a9c:	c0 93 6a 68 	sts	0x686A, r28	; 0x80686a <Keypad3x4>
    }

    last_key = key; // Update the last key state
    1aa0:	c0 93 69 68 	sts	0x6869, r28	; 0x806869 <last_key.4546>
    1aa4:	8f e5       	ldi	r24, 0x5F	; 95
    1aa6:	9a ee       	ldi	r25, 0xEA	; 234
    1aa8:	01 97       	sbiw	r24, 0x01	; 1
    1aaa:	f1 f7       	brne	.-4      	; 0x1aa8 <keypad+0x62>
    1aac:	00 c0       	rjmp	.+0      	; 0x1aae <keypad+0x68>
    1aae:	00 00       	nop
    _delay_ms(DEBOUNCE_DELAY); // Debounce delay
}
    1ab0:	cf 91       	pop	r28
    1ab2:	08 95       	ret

00001ab4 <main>:
#include "Settings.h"

int main(void)
{
    // Initialize system clock, GPIO, I2C, ADC, USART, and screen
    CLOCK_XOSCHF_crystal_init();
    1ab4:	0e 94 5d 07 	call	0xeba	; 0xeba <CLOCK_XOSCHF_crystal_init>
    GPIO_init();
    1ab8:	0e 94 f3 0a 	call	0x15e6	; 0x15e6 <GPIO_init>
    I2C_init();
    1abc:	0e 94 50 0b 	call	0x16a0	; 0x16a0 <I2C_init>
    ADC0_init();
    1ac0:	0e 94 74 01 	call	0x2e8	; 0x2e8 <ADC0_init>
    USART0_init();
    1ac4:	0e 94 36 10 	call	0x206c	; 0x206c <USART0_init>
    USART1_init();
    1ac8:	0e 94 66 10 	call	0x20cc	; 0x20cc <USART1_init>
    screen_init();
    1acc:	0e 94 20 0f 	call	0x1e40	; 0x1e40 <screen_init>

    // Configure SHT21 sensor settings
    SHT21.Resolution = RH_12b_T_14b; // Set resolution for RH and temperature measurements
    1ad0:	e8 e6       	ldi	r30, 0x68	; 104
    1ad2:	f0 e6       	ldi	r31, 0x60	; 96
    1ad4:	12 82       	std	Z+2, r1	; 0x02
    SHT21.Heater = OFF; // Disable heater (adds ~0.5-1.5C)
    1ad6:	11 82       	std	Z+1, r1	; 0x01
    SHT21.OTP_DISABLE = ON; // Keep changed settings
    1ad8:	c1 e0       	ldi	r28, 0x01	; 1
    1ada:	c0 83       	st	Z, r28
    SHT21.Battery = OFF; // Disable battery detection
    1adc:	13 82       	std	Z+3, r1	; 0x03
    SHT21_Settings_Write(); // Apply the settings
    1ade:	0e 94 cb 0d 	call	0x1b96	; 0x1b96 <SHT21_Settings_Write>

    // Configure BMP280 sensor settings
    BMP280.Config.osrs_p = BMP280_Pressure_UHR; // Set oversampling for pressure
    1ae2:	ec e0       	ldi	r30, 0x0C	; 12
    1ae4:	f0 e6       	ldi	r31, 0x60	; 96
    1ae6:	85 e0       	ldi	r24, 0x05	; 5
    1ae8:	87 ab       	std	Z+55, r24	; 0x37
    BMP280.Config.osrs_t = BMP280_Temperature_Os_x16; // Set oversampling for temperature
    1aea:	86 ab       	std	Z+54, r24	; 0x36
    BMP280.Config.Mode = BMP280_Mode_Normal; // Set normal mode
    1aec:	83 e0       	ldi	r24, 0x03	; 3
    1aee:	80 af       	std	Z+56, r24	; 0x38
    BMP280.Config.t_sb = BMP280_StanBy_0m5; // Set standby time
    1af0:	13 aa       	std	Z+51, r1	; 0x33
    BMP280.Config.filter = BMP280_Filter_16; // Set filter
    1af2:	84 e0       	ldi	r24, 0x04	; 4
    1af4:	84 ab       	std	Z+52, r24	; 0x34
    BMP280.Config.spi3w_en = BMP280_SPI_Mode_3w; // Set SPI mode
    1af6:	c5 ab       	std	Z+53, r28	; 0x35
    WriteBMP280Config(); // Write configuration to BMP280
    1af8:	0e 94 30 04 	call	0x860	; 0x860 <WriteBMP280Config>
    ReadBMP280Calibration(); // Read BMP280 calibration values
    1afc:	0e 94 7c 02 	call	0x4f8	; 0x4f8 <ReadBMP280Calibration>

    screen_clear(); // Clear the screen
    1b00:	0e 94 74 0f 	call	0x1ee8	; 0x1ee8 <screen_clear>

    while (1) 
    {
        // Read and process sensor data
        ReadBMP280TP(); // Read temperature and pressure from BMP280
    1b04:	0e 94 62 04 	call	0x8c4	; 0x8c4 <ReadBMP280TP>
        CalcTrueTemp(); // Calculate true temperature from BMP280
    1b08:	0e 94 8d 04 	call	0x91a	; 0x91a <CalcTrueTemp>
        // BMP280.CalibrationValues.t_fine = SHT21.T * 5120.0; // Uncomment if you want to use SHT21 temperature instead of BMP280 for pressure calculations
        CalcTruePres(); // Calculate true pressure
    1b0c:	0e 94 39 05 	call	0xa72	; 0xa72 <CalcTruePres>

        // Read humidity and temperature from SHT21
        Separator(SHT21_Read(HOLD_MASTER_RH_MES)); // Read humidity from SHT21
    1b10:	85 ee       	ldi	r24, 0xE5	; 229
    1b12:	0e 94 df 0d 	call	0x1bbe	; 0x1bbe <SHT21_Read>
    1b16:	0e 94 c9 0e 	call	0x1d92	; 0x1d92 <Separator>
        Separator(SHT21_Read(HOLD_MASTER_T_MES)); // Read temperature from SHT21
    1b1a:	83 ee       	ldi	r24, 0xE3	; 227
    1b1c:	0e 94 df 0d 	call	0x1bbe	; 0x1bbe <SHT21_Read>
    1b20:	0e 94 c9 0e 	call	0x1d92	; 0x1d92 <Separator>

        // Retransmit data from the clock device via USART1
        Retransmitt();
    1b24:	0e 94 44 09 	call	0x1288	; 0x1288 <Retransmitt>

        // Read and process additional environmental parameters
        WindSpeed(); // Calculate wind speed
    1b28:	0e 94 df 10 	call	0x21be	; 0x21be <WindSpeed>
        WindDirection(); // Calculate wind direction
    1b2c:	0e 94 f3 10 	call	0x21e6	; 0x21e6 <WindDirection>
        SunLevel(); // Calculate sun level
    1b30:	0e 94 dd 0a 	call	0x15ba	; 0x15ba <SunLevel>
        AltitudeAverage(); // Calculate altitude based on pressure
    1b34:	0e 94 31 02 	call	0x462	; 0x462 <AltitudeAverage>

        // Handle keypad input
        keypad();
    1b38:	0e 94 23 0d 	call	0x1a46	; 0x1a46 <keypad>

        // Display data on screen based on selected window
        windows();
    1b3c:	0e 94 e4 1b 	call	0x37c8	; 0x37c8 <windows>

        // Send data over USART (e.g., sun azimuth, wind speed, etc.)
        USART_printf(0, "{%.2f|%.2f|%d|%d|%d}\r\n", 
                     SUN.adjazimuth, SUN.adjelevation, 
                     Wind.speed, Wind.direction, 
    1b40:	ec e6       	ldi	r30, 0x6C	; 108
    1b42:	f8 e6       	ldi	r31, 0x68	; 104
    1b44:	b1 81       	ldd	r27, Z+1	; 0x01
    1b46:	a0 81       	ld	r26, Z
        // Display data on screen based on selected window
        windows();

        // Send data over USART (e.g., sun azimuth, wind speed, etc.)
        USART_printf(0, "{%.2f|%.2f|%d|%d|%d}\r\n", 
                     SUN.adjazimuth, SUN.adjelevation, 
    1b48:	e4 e5       	ldi	r30, 0x54	; 84
    1b4a:	f8 e6       	ldi	r31, 0x68	; 104
    1b4c:	40 85       	ldd	r20, Z+8	; 0x08
    1b4e:	51 85       	ldd	r21, Z+9	; 0x09
    1b50:	62 85       	ldd	r22, Z+10	; 0x0a
    1b52:	73 85       	ldd	r23, Z+11	; 0x0b
    1b54:	84 85       	ldd	r24, Z+12	; 0x0c
    1b56:	95 85       	ldd	r25, Z+13	; 0x0d
    1b58:	26 85       	ldd	r18, Z+14	; 0x0e
    1b5a:	37 85       	ldd	r19, Z+15	; 0x0f

        // Display data on screen based on selected window
        windows();

        // Send data over USART (e.g., sun azimuth, wind speed, etc.)
        USART_printf(0, "{%.2f|%.2f|%d|%d|%d}\r\n", 
    1b5c:	c1 89       	ldd	r28, Z+17	; 0x11
    1b5e:	cf 93       	push	r28
    1b60:	e0 89       	ldd	r30, Z+16	; 0x10
    1b62:	ef 93       	push	r30
    1b64:	1f 92       	push	r1
    1b66:	bf 93       	push	r27
    1b68:	1f 92       	push	r1
    1b6a:	af 93       	push	r26
    1b6c:	7f 93       	push	r23
    1b6e:	6f 93       	push	r22
    1b70:	5f 93       	push	r21
    1b72:	4f 93       	push	r20
    1b74:	3f 93       	push	r19
    1b76:	2f 93       	push	r18
    1b78:	9f 93       	push	r25
    1b7a:	8f 93       	push	r24
    1b7c:	83 e3       	ldi	r24, 0x33	; 51
    1b7e:	95 e6       	ldi	r25, 0x65	; 101
    1b80:	9f 93       	push	r25
    1b82:	8f 93       	push	r24
    1b84:	1f 92       	push	r1
    1b86:	0e 94 ad 10 	call	0x215a	; 0x215a <USART_printf>
    1b8a:	8d b7       	in	r24, 0x3d	; 61
    1b8c:	9e b7       	in	r25, 0x3e	; 62
    1b8e:	41 96       	adiw	r24, 0x11	; 17
    1b90:	8d bf       	out	0x3d, r24	; 61
    1b92:	9e bf       	out	0x3e, r25	; 62
    1b94:	b7 cf       	rjmp	.-146    	; 0x1b04 <main+0x50>

00001b96 <SHT21_Settings_Write>:
 * This function writes the current settings stored in the global `SHT21` 
 * structure back to the SHT21 sensor, configuring the resolution, heater, 
 * OTP disable, and battery settings.
 */
void SHT21_Settings_Write(){
	WriteToReg(SHT21_ADD, W_USER_REG, SHT21.Resolution + (SHT21.Heater << HEATER_ADD) + (SHT21.OTP_DISABLE << OTP_ADD) + (SHT21.Battery << BATTERY_ADD));
    1b96:	e8 e6       	ldi	r30, 0x68	; 104
    1b98:	f0 e6       	ldi	r31, 0x60	; 96
    1b9a:	92 81       	ldd	r25, Z+2	; 0x02
    1b9c:	41 81       	ldd	r20, Z+1	; 0x01
    1b9e:	80 81       	ld	r24, Z
    1ba0:	23 81       	ldd	r18, Z+3	; 0x03
    1ba2:	44 0f       	add	r20, r20
    1ba4:	44 0f       	add	r20, r20
    1ba6:	49 0f       	add	r20, r25
    1ba8:	88 0f       	add	r24, r24
    1baa:	48 0f       	add	r20, r24
    1bac:	80 e4       	ldi	r24, 0x40	; 64
    1bae:	28 9f       	mul	r18, r24
    1bb0:	40 0d       	add	r20, r0
    1bb2:	11 24       	eor	r1, r1
    1bb4:	66 ee       	ldi	r22, 0xE6	; 230
    1bb6:	80 e4       	ldi	r24, 0x40	; 64
    1bb8:	0e 94 fc 0b 	call	0x17f8	; 0x17f8 <WriteToReg>
    1bbc:	08 95       	ret

00001bbe <SHT21_Read>:
 * communicates with the sensor.
 *
 * @param mode The mode of measurement: temperature or humidity.
 * @return The raw sensor data (32-bit).
 */
uint32_t SHT21_Read(uint8_t mode){
    1bbe:	cf 92       	push	r12
    1bc0:	df 92       	push	r13
    1bc2:	ef 92       	push	r14
    1bc4:	ff 92       	push	r15
    1bc6:	0f 93       	push	r16
    1bc8:	1f 93       	push	r17
    1bca:	cf 93       	push	r28
    1bcc:	df 93       	push	r29
    1bce:	1f 92       	push	r1
    1bd0:	cd b7       	in	r28, 0x3d	; 61
    1bd2:	de b7       	in	r29, 0x3e	; 62
    1bd4:	18 2f       	mov	r17, r24
	// Faster read for hold modes (temperature or humidity measurement)
	if((mode == HOLD_MASTER_T_MES) || (mode == HOLD_MASTER_RH_MES)){
    1bd6:	83 3e       	cpi	r24, 0xE3	; 227
    1bd8:	11 f0       	breq	.+4      	; 0x1bde <SHT21_Read+0x20>
    1bda:	85 3e       	cpi	r24, 0xE5	; 229
    1bdc:	51 f4       	brne	.+20     	; 0x1bf2 <SHT21_Read+0x34>
		return (uint32_t)ReadMulti(SHT21_ADD, mode, 3);
    1bde:	43 e0       	ldi	r20, 0x03	; 3
    1be0:	61 2f       	mov	r22, r17
    1be2:	80 e4       	ldi	r24, 0x40	; 64
    1be4:	0e 94 15 0c 	call	0x182a	; 0x182a <ReadMulti>
    1be8:	62 2f       	mov	r22, r18
    1bea:	73 2f       	mov	r23, r19
    1bec:	84 2f       	mov	r24, r20
    1bee:	95 2f       	mov	r25, r21
    1bf0:	c6 c0       	rjmp	.+396    	; 0x1d7e <SHT21_Read+0x1c0>
	}
	// Slower read for no hold modes (temperature or humidity measurement)
	else if((mode == NO_HOLD_MASTER_T_MES) || (mode == NO_HOLD_MASTER_RH_MES)){
    1bf2:	83 3f       	cpi	r24, 0xF3	; 243
    1bf4:	19 f0       	breq	.+6      	; 0x1bfc <SHT21_Read+0x3e>
    1bf6:	85 3f       	cpi	r24, 0xF5	; 245
    1bf8:	09 f0       	breq	.+2      	; 0x1bfc <SHT21_Read+0x3e>
    1bfa:	b3 c0       	rjmp	.+358    	; 0x1d62 <SHT21_Read+0x1a4>
		if(!TransmitAdd(SHT21_ADD, WRITE)){
    1bfc:	60 e0       	ldi	r22, 0x00	; 0
    1bfe:	80 e4       	ldi	r24, 0x40	; 64
    1c00:	0e 94 5a 0b 	call	0x16b4	; 0x16b4 <TransmitAdd>
    1c04:	81 11       	cpse	r24, r1
    1c06:	b2 c0       	rjmp	.+356    	; 0x1d6c <SHT21_Read+0x1ae>
			if(!TransmitByte(mode)){
    1c08:	81 2f       	mov	r24, r17
    1c0a:	0e 94 84 0b 	call	0x1708	; 0x1708 <TransmitByte>
    1c0e:	81 11       	cpse	r24, r1
    1c10:	b2 c0       	rjmp	.+356    	; 0x1d76 <SHT21_Read+0x1b8>
	#else
		//round up by default
		__ticks_dc = (uint32_t)(ceil(fabs(__tmp)));
	#endif

	__builtin_avr_delay_cycles(__ticks_dc);
    1c12:	20 ea       	ldi	r18, 0xA0	; 160
    1c14:	2a 95       	dec	r18
    1c16:	f1 f7       	brne	.-4      	; 0x1c14 <SHT21_Read+0x56>
				_delay_us(20); // Wait for the measurement to complete
				TWI0.MCTRLB = TWI_MCMD_STOP_gc; // Stop condition to finish the transmission
    1c18:	83 e0       	ldi	r24, 0x03	; 3
    1c1a:	80 93 04 09 	sts	0x0904, r24	; 0x800904 <__TEXT_REGION_LENGTH__+0x7f0904>
				// Handle different resolutions for different measurement delays
				switch(SHT21.Resolution){
    1c1e:	80 91 6a 60 	lds	r24, 0x606A	; 0x80606a <SHT21+0x2>
    1c22:	80 38       	cpi	r24, 0x80	; 128
    1c24:	d9 f0       	breq	.+54     	; 0x1c5c <SHT21_Read+0x9e>
    1c26:	81 38       	cpi	r24, 0x81	; 129
    1c28:	19 f0       	breq	.+6      	; 0x1c30 <SHT21_Read+0x72>
    1c2a:	81 30       	cpi	r24, 0x01	; 1
    1c2c:	e9 f5       	brne	.+122    	; 0x1ca8 <SHT21_Read+0xea>
    1c2e:	29 c0       	rjmp	.+82     	; 0x1c82 <SHT21_Read+0xc4>
					case RH_11b_T_11b:
						if(mode == NO_HOLD_MASTER_T_MES)
    1c30:	13 3f       	cpi	r17, 0xF3	; 243
    1c32:	51 f4       	brne	.+20     	; 0x1c48 <SHT21_Read+0x8a>
	#else
		//round up by default
		__ticks_dc = (uint32_t)(ceil(fabs(__tmp)));
	#endif

	__builtin_avr_delay_cycles(__ticks_dc);
    1c34:	8f e3       	ldi	r24, 0x3F	; 63
    1c36:	9e ec       	ldi	r25, 0xCE	; 206
    1c38:	20 e0       	ldi	r18, 0x00	; 0
    1c3a:	81 50       	subi	r24, 0x01	; 1
    1c3c:	90 40       	sbci	r25, 0x00	; 0
    1c3e:	20 40       	sbci	r18, 0x00	; 0
    1c40:	e1 f7       	brne	.-8      	; 0x1c3a <SHT21_Read+0x7c>
    1c42:	00 c0       	rjmp	.+0      	; 0x1c44 <SHT21_Read+0x86>
    1c44:	00 00       	nop
    1c46:	45 c0       	rjmp	.+138    	; 0x1cd2 <SHT21_Read+0x114>
    1c48:	8f e3       	ldi	r24, 0x3F	; 63
    1c4a:	99 e1       	ldi	r25, 0x19	; 25
    1c4c:	21 e0       	ldi	r18, 0x01	; 1
    1c4e:	81 50       	subi	r24, 0x01	; 1
    1c50:	90 40       	sbci	r25, 0x00	; 0
    1c52:	20 40       	sbci	r18, 0x00	; 0
    1c54:	e1 f7       	brne	.-8      	; 0x1c4e <SHT21_Read+0x90>
    1c56:	00 c0       	rjmp	.+0      	; 0x1c58 <SHT21_Read+0x9a>
    1c58:	00 00       	nop
    1c5a:	3b c0       	rjmp	.+118    	; 0x1cd2 <SHT21_Read+0x114>
							_delay_ms(11);
						else
							_delay_ms(15);
						break;
					case RH_10b_T_13b:
						if(mode == NO_HOLD_MASTER_T_MES)
    1c5c:	13 3f       	cpi	r17, 0xF3	; 243
    1c5e:	51 f4       	brne	.+20     	; 0x1c74 <SHT21_Read+0xb6>
    1c60:	8f e3       	ldi	r24, 0x3F	; 63
    1c62:	96 e2       	ldi	r25, 0x26	; 38
    1c64:	23 e0       	ldi	r18, 0x03	; 3
    1c66:	81 50       	subi	r24, 0x01	; 1
    1c68:	90 40       	sbci	r25, 0x00	; 0
    1c6a:	20 40       	sbci	r18, 0x00	; 0
    1c6c:	e1 f7       	brne	.-8      	; 0x1c66 <SHT21_Read+0xa8>
    1c6e:	00 c0       	rjmp	.+0      	; 0x1c70 <SHT21_Read+0xb2>
    1c70:	00 00       	nop
    1c72:	2f c0       	rjmp	.+94     	; 0x1cd2 <SHT21_Read+0x114>
    1c74:	8f ee       	ldi	r24, 0xEF	; 239
    1c76:	92 ed       	ldi	r25, 0xD2	; 210
    1c78:	01 97       	sbiw	r24, 0x01	; 1
    1c7a:	f1 f7       	brne	.-4      	; 0x1c78 <SHT21_Read+0xba>
    1c7c:	00 c0       	rjmp	.+0      	; 0x1c7e <SHT21_Read+0xc0>
    1c7e:	00 00       	nop
    1c80:	28 c0       	rjmp	.+80     	; 0x1cd2 <SHT21_Read+0x114>
							_delay_ms(43);
						else
							_delay_ms(9);
						break;
					case RH_8b_T_12b:
						if(mode == NO_HOLD_MASTER_T_MES)
    1c82:	13 3f       	cpi	r17, 0xF3	; 243
    1c84:	51 f4       	brne	.+20     	; 0x1c9a <SHT21_Read+0xdc>
    1c86:	9f e7       	ldi	r25, 0x7F	; 127
    1c88:	2c e9       	ldi	r18, 0x9C	; 156
    1c8a:	81 e0       	ldi	r24, 0x01	; 1
    1c8c:	91 50       	subi	r25, 0x01	; 1
    1c8e:	20 40       	sbci	r18, 0x00	; 0
    1c90:	80 40       	sbci	r24, 0x00	; 0
    1c92:	e1 f7       	brne	.-8      	; 0x1c8c <SHT21_Read+0xce>
    1c94:	00 c0       	rjmp	.+0      	; 0x1c96 <SHT21_Read+0xd8>
    1c96:	00 00       	nop
    1c98:	1c c0       	rjmp	.+56     	; 0x1cd2 <SHT21_Read+0x114>
    1c9a:	8f eb       	ldi	r24, 0xBF	; 191
    1c9c:	9d e5       	ldi	r25, 0x5D	; 93
    1c9e:	01 97       	sbiw	r24, 0x01	; 1
    1ca0:	f1 f7       	brne	.-4      	; 0x1c9e <SHT21_Read+0xe0>
    1ca2:	00 c0       	rjmp	.+0      	; 0x1ca4 <SHT21_Read+0xe6>
    1ca4:	00 00       	nop
    1ca6:	15 c0       	rjmp	.+42     	; 0x1cd2 <SHT21_Read+0x114>
							_delay_ms(22);
						else
							_delay_ms(4);
						break;
					default:
						if(mode == NO_HOLD_MASTER_T_MES)
    1ca8:	13 3f       	cpi	r17, 0xF3	; 243
    1caa:	51 f4       	brne	.+20     	; 0x1cc0 <SHT21_Read+0x102>
    1cac:	9f eb       	ldi	r25, 0xBF	; 191
    1cae:	29 e3       	ldi	r18, 0x39	; 57
    1cb0:	86 e0       	ldi	r24, 0x06	; 6
    1cb2:	91 50       	subi	r25, 0x01	; 1
    1cb4:	20 40       	sbci	r18, 0x00	; 0
    1cb6:	80 40       	sbci	r24, 0x00	; 0
    1cb8:	e1 f7       	brne	.-8      	; 0x1cb2 <SHT21_Read+0xf4>
    1cba:	00 c0       	rjmp	.+0      	; 0x1cbc <SHT21_Read+0xfe>
    1cbc:	00 00       	nop
    1cbe:	09 c0       	rjmp	.+18     	; 0x1cd2 <SHT21_Read+0x114>
    1cc0:	9f eb       	ldi	r25, 0xBF	; 191
    1cc2:	2f e1       	ldi	r18, 0x1F	; 31
    1cc4:	82 e0       	ldi	r24, 0x02	; 2
    1cc6:	91 50       	subi	r25, 0x01	; 1
    1cc8:	20 40       	sbci	r18, 0x00	; 0
    1cca:	80 40       	sbci	r24, 0x00	; 0
    1ccc:	e1 f7       	brne	.-8      	; 0x1cc6 <SHT21_Read+0x108>
    1cce:	00 c0       	rjmp	.+0      	; 0x1cd0 <SHT21_Read+0x112>
    1cd0:	00 00       	nop
						else
							_delay_ms(29);
						break;
				}
				uint32_t data = 0;
				if(!TransmitAdd(SHT21_ADD, READ)){
    1cd2:	61 e0       	ldi	r22, 0x01	; 1
    1cd4:	80 e4       	ldi	r24, 0x40	; 64
    1cd6:	0e 94 5a 0b 	call	0x16b4	; 0x16b4 <TransmitAdd>
    1cda:	88 23       	and	r24, r24
    1cdc:	81 f1       	breq	.+96     	; 0x1d3e <SHT21_Read+0x180>
					return data;
				}
			}
		}
	}
	return 0; // Return 0 if read failed
    1cde:	60 e0       	ldi	r22, 0x00	; 0
    1ce0:	70 e0       	ldi	r23, 0x00	; 0
    1ce2:	80 e0       	ldi	r24, 0x00	; 0
    1ce4:	90 e0       	ldi	r25, 0x00	; 0
    1ce6:	4b c0       	rjmp	.+150    	; 0x1d7e <SHT21_Read+0x1c0>
				}
				uint32_t data = 0;
				if(!TransmitAdd(SHT21_ADD, READ)){
					// Read the data byte by byte and reconstruct the 32-bit result
					for (int i = 0; i < 3; i++) {
						uint8_t byte = 0;
    1ce8:	19 82       	std	Y+1, r1	; 0x01
						ReadByteInf(i < 2 ? 1 : 0, &byte); // ACK for first two bytes, NACK for last byte
    1cea:	81 e0       	ldi	r24, 0x01	; 1
    1cec:	02 30       	cpi	r16, 0x02	; 2
    1cee:	11 05       	cpc	r17, r1
    1cf0:	0c f0       	brlt	.+2      	; 0x1cf4 <SHT21_Read+0x136>
    1cf2:	80 e0       	ldi	r24, 0x00	; 0
    1cf4:	be 01       	movw	r22, r28
    1cf6:	6f 5f       	subi	r22, 0xFF	; 255
    1cf8:	7f 4f       	sbci	r23, 0xFF	; 255
    1cfa:	0e 94 af 0b 	call	0x175e	; 0x175e <ReadByteInf>
						if(I2C.error)
    1cfe:	80 91 66 68 	lds	r24, 0x6866	; 0x806866 <I2C>
    1d02:	81 11       	cpse	r24, r1
    1d04:	24 c0       	rjmp	.+72     	; 0x1d4e <SHT21_Read+0x190>
							break;
						else
							data |= ((uint32_t)byte << (8 * (2 - i))); // Insert byte into the correct position
    1d06:	89 81       	ldd	r24, Y+1	; 0x01
    1d08:	90 e0       	ldi	r25, 0x00	; 0
    1d0a:	a0 e0       	ldi	r26, 0x00	; 0
    1d0c:	b0 e0       	ldi	r27, 0x00	; 0
    1d0e:	22 e0       	ldi	r18, 0x02	; 2
    1d10:	30 e0       	ldi	r19, 0x00	; 0
    1d12:	20 1b       	sub	r18, r16
    1d14:	31 0b       	sbc	r19, r17
    1d16:	22 0f       	add	r18, r18
    1d18:	33 1f       	adc	r19, r19
    1d1a:	22 0f       	add	r18, r18
    1d1c:	33 1f       	adc	r19, r19
    1d1e:	22 0f       	add	r18, r18
    1d20:	33 1f       	adc	r19, r19
    1d22:	04 c0       	rjmp	.+8      	; 0x1d2c <SHT21_Read+0x16e>
    1d24:	88 0f       	add	r24, r24
    1d26:	99 1f       	adc	r25, r25
    1d28:	aa 1f       	adc	r26, r26
    1d2a:	bb 1f       	adc	r27, r27
    1d2c:	2a 95       	dec	r18
    1d2e:	d2 f7       	brpl	.-12     	; 0x1d24 <SHT21_Read+0x166>
    1d30:	c8 2a       	or	r12, r24
    1d32:	d9 2a       	or	r13, r25
    1d34:	ea 2a       	or	r14, r26
    1d36:	fb 2a       	or	r15, r27
						break;
				}
				uint32_t data = 0;
				if(!TransmitAdd(SHT21_ADD, READ)){
					// Read the data byte by byte and reconstruct the 32-bit result
					for (int i = 0; i < 3; i++) {
    1d38:	0f 5f       	subi	r16, 0xFF	; 255
    1d3a:	1f 4f       	sbci	r17, 0xFF	; 255
    1d3c:	05 c0       	rjmp	.+10     	; 0x1d48 <SHT21_Read+0x18a>
    1d3e:	00 e0       	ldi	r16, 0x00	; 0
    1d40:	10 e0       	ldi	r17, 0x00	; 0
    1d42:	c1 2c       	mov	r12, r1
    1d44:	d1 2c       	mov	r13, r1
    1d46:	76 01       	movw	r14, r12
    1d48:	03 30       	cpi	r16, 0x03	; 3
    1d4a:	11 05       	cpc	r17, r1
    1d4c:	6c f2       	brlt	.-102    	; 0x1ce8 <SHT21_Read+0x12a>
						if(I2C.error)
							break;
						else
							data |= ((uint32_t)byte << (8 * (2 - i))); // Insert byte into the correct position
					}
					TWI0.MCTRLB |= TWI_MCMD_STOP_gc; // Send stop condition
    1d4e:	e0 e0       	ldi	r30, 0x00	; 0
    1d50:	f9 e0       	ldi	r31, 0x09	; 9
    1d52:	84 81       	ldd	r24, Z+4	; 0x04
    1d54:	83 60       	ori	r24, 0x03	; 3
    1d56:	84 83       	std	Z+4, r24	; 0x04
					return data;
    1d58:	6c 2d       	mov	r22, r12
    1d5a:	7d 2d       	mov	r23, r13
    1d5c:	8e 2d       	mov	r24, r14
    1d5e:	9f 2d       	mov	r25, r15
    1d60:	0e c0       	rjmp	.+28     	; 0x1d7e <SHT21_Read+0x1c0>
				}
			}
		}
	}
	return 0; // Return 0 if read failed
    1d62:	60 e0       	ldi	r22, 0x00	; 0
    1d64:	70 e0       	ldi	r23, 0x00	; 0
    1d66:	80 e0       	ldi	r24, 0x00	; 0
    1d68:	90 e0       	ldi	r25, 0x00	; 0
    1d6a:	09 c0       	rjmp	.+18     	; 0x1d7e <SHT21_Read+0x1c0>
    1d6c:	60 e0       	ldi	r22, 0x00	; 0
    1d6e:	70 e0       	ldi	r23, 0x00	; 0
    1d70:	80 e0       	ldi	r24, 0x00	; 0
    1d72:	90 e0       	ldi	r25, 0x00	; 0
    1d74:	04 c0       	rjmp	.+8      	; 0x1d7e <SHT21_Read+0x1c0>
    1d76:	60 e0       	ldi	r22, 0x00	; 0
    1d78:	70 e0       	ldi	r23, 0x00	; 0
    1d7a:	80 e0       	ldi	r24, 0x00	; 0
    1d7c:	90 e0       	ldi	r25, 0x00	; 0
}
    1d7e:	0f 90       	pop	r0
    1d80:	df 91       	pop	r29
    1d82:	cf 91       	pop	r28
    1d84:	1f 91       	pop	r17
    1d86:	0f 91       	pop	r16
    1d88:	ff 90       	pop	r15
    1d8a:	ef 90       	pop	r14
    1d8c:	df 90       	pop	r13
    1d8e:	cf 90       	pop	r12
    1d90:	08 95       	ret

00001d92 <Separator>:
 * @param data The raw sensor data.
 * @return 0 (always returns 0, but could be used for error codes in future).
 */
uint8_t Separator(uint32_t data){
	// Ignoring CRC for speed but sacrificing reliability
	uint32_t reader = CRC8MAXIM(data); // CRC check
    1d92:	0e 94 a8 09 	call	0x1350	; 0x1350 <CRC8MAXIM>
    1d96:	ac 01       	movw	r20, r24
    1d98:	60 e0       	ldi	r22, 0x00	; 0
    1d9a:	70 e0       	ldi	r23, 0x00	; 0
	float result = 0.00;
	if(reader & 2){ // After CRC check, calculate humidity percentage
    1d9c:	81 ff       	sbrs	r24, 1
    1d9e:	23 c0       	rjmp	.+70     	; 0x1de6 <Separator+0x54>
		result = (float)(reader - 2) / 65536;
    1da0:	cb 01       	movw	r24, r22
    1da2:	ba 01       	movw	r22, r20
    1da4:	62 50       	subi	r22, 0x02	; 2
    1da6:	71 09       	sbc	r23, r1
    1da8:	81 09       	sbc	r24, r1
    1daa:	91 09       	sbc	r25, r1
    1dac:	0e 94 46 1d 	call	0x3a8c	; 0x3a8c <__floatunsisf>
    1db0:	20 e0       	ldi	r18, 0x00	; 0
    1db2:	30 e0       	ldi	r19, 0x00	; 0
    1db4:	40 e8       	ldi	r20, 0x80	; 128
    1db6:	57 e3       	ldi	r21, 0x37	; 55
    1db8:	0e 94 38 1f 	call	0x3e70	; 0x3e70 <__mulsf3>
		SHT21.RH = (result * 125) - 6; // Convert to humidity in percentage
    1dbc:	20 e0       	ldi	r18, 0x00	; 0
    1dbe:	30 e0       	ldi	r19, 0x00	; 0
    1dc0:	4a ef       	ldi	r20, 0xFA	; 250
    1dc2:	52 e4       	ldi	r21, 0x42	; 66
    1dc4:	0e 94 38 1f 	call	0x3e70	; 0x3e70 <__mulsf3>
    1dc8:	20 e0       	ldi	r18, 0x00	; 0
    1dca:	30 e0       	ldi	r19, 0x00	; 0
    1dcc:	40 ec       	ldi	r20, 0xC0	; 192
    1dce:	50 e4       	ldi	r21, 0x40	; 64
    1dd0:	0e 94 f3 1b 	call	0x37e6	; 0x37e6 <__subsf3>
    1dd4:	60 93 70 60 	sts	0x6070, r22	; 0x806070 <SHT21+0x8>
    1dd8:	70 93 71 60 	sts	0x6071, r23	; 0x806071 <SHT21+0x9>
    1ddc:	80 93 72 60 	sts	0x6072, r24	; 0x806072 <SHT21+0xa>
    1de0:	90 93 73 60 	sts	0x6073, r25	; 0x806073 <SHT21+0xb>
    1de4:	1f c0       	rjmp	.+62     	; 0x1e24 <Separator+0x92>
	}
	else{ // Calculate temperature in Centigrade
		result = (float)reader / 65536;
    1de6:	bc 01       	movw	r22, r24
    1de8:	80 e0       	ldi	r24, 0x00	; 0
    1dea:	90 e0       	ldi	r25, 0x00	; 0
    1dec:	0e 94 46 1d 	call	0x3a8c	; 0x3a8c <__floatunsisf>
    1df0:	20 e0       	ldi	r18, 0x00	; 0
    1df2:	30 e0       	ldi	r19, 0x00	; 0
    1df4:	40 e8       	ldi	r20, 0x80	; 128
    1df6:	57 e3       	ldi	r21, 0x37	; 55
    1df8:	0e 94 38 1f 	call	0x3e70	; 0x3e70 <__mulsf3>
		SHT21.T = (result * 175.72) - 46.85; // Convert to temperature in Centigrade
    1dfc:	22 e5       	ldi	r18, 0x52	; 82
    1dfe:	38 eb       	ldi	r19, 0xB8	; 184
    1e00:	4f e2       	ldi	r20, 0x2F	; 47
    1e02:	53 e4       	ldi	r21, 0x43	; 67
    1e04:	0e 94 38 1f 	call	0x3e70	; 0x3e70 <__mulsf3>
    1e08:	26 e6       	ldi	r18, 0x66	; 102
    1e0a:	36 e6       	ldi	r19, 0x66	; 102
    1e0c:	4b e3       	ldi	r20, 0x3B	; 59
    1e0e:	52 e4       	ldi	r21, 0x42	; 66
    1e10:	0e 94 f3 1b 	call	0x37e6	; 0x37e6 <__subsf3>
    1e14:	60 93 6c 60 	sts	0x606C, r22	; 0x80606c <SHT21+0x4>
    1e18:	70 93 6d 60 	sts	0x606D, r23	; 0x80606d <SHT21+0x5>
    1e1c:	80 93 6e 60 	sts	0x606E, r24	; 0x80606e <SHT21+0x6>
    1e20:	90 93 6f 60 	sts	0x606F, r25	; 0x80606f <SHT21+0x7>
	}
	return 0; // Return 0, could be used for error handling
}
    1e24:	80 e0       	ldi	r24, 0x00	; 0
    1e26:	08 95       	ret

00001e28 <screen_command>:
            for (uint8_t i = 0; i < 2; i++) {
                TransmitByte(dat[i]);  ///< Send image data byte
            }
        }
    }
}
    1e28:	48 2f       	mov	r20, r24
    1e2a:	60 e0       	ldi	r22, 0x00	; 0
    1e2c:	8f e3       	ldi	r24, 0x3F	; 63
    1e2e:	0e 94 fc 0b 	call	0x17f8	; 0x17f8 <WriteToReg>
    1e32:	08 95       	ret

00001e34 <screen_data>:
    1e34:	48 2f       	mov	r20, r24
    1e36:	60 e4       	ldi	r22, 0x40	; 64
    1e38:	8f e3       	ldi	r24, 0x3F	; 63
    1e3a:	0e 94 fc 0b 	call	0x17f8	; 0x17f8 <WriteToReg>
    1e3e:	08 95       	ret

00001e40 <screen_init>:
    1e40:	cf 93       	push	r28
    1e42:	60 e0       	ldi	r22, 0x00	; 0
    1e44:	8f e3       	ldi	r24, 0x3F	; 63
    1e46:	0e 94 5a 0b 	call	0x16b4	; 0x16b4 <TransmitAdd>
    1e4a:	c0 e0       	ldi	r28, 0x00	; 0
    1e4c:	08 c0       	rjmp	.+16     	; 0x1e5e <screen_init+0x1e>
    1e4e:	ec 2f       	mov	r30, r28
    1e50:	f0 e0       	ldi	r31, 0x00	; 0
    1e52:	e2 56       	subi	r30, 0x62	; 98
    1e54:	fc 49       	sbci	r31, 0x9C	; 156
    1e56:	80 81       	ld	r24, Z
    1e58:	0e 94 84 0b 	call	0x1708	; 0x1708 <TransmitByte>
    1e5c:	cf 5f       	subi	r28, 0xFF	; 255
    1e5e:	cb 30       	cpi	r28, 0x0B	; 11
    1e60:	b0 f3       	brcs	.-20     	; 0x1e4e <screen_init+0xe>
    1e62:	cf 91       	pop	r28
    1e64:	08 95       	ret

00001e66 <screen_draw_char>:
 * This function draws a single character on the display using the font array. If the 
 * character is out of range, it substitutes a question mark (ASCII 63).
 * 
 * @param c The character to draw.
 */
void screen_draw_char(char c) {
    1e66:	1f 93       	push	r17
    1e68:	cf 93       	push	r28
    1e6a:	df 93       	push	r29
    1e6c:	d8 2f       	mov	r29, r24
    if ((c < 32 || c > 127) && (c != 176) && (c < 192)) {
    1e6e:	80 ee       	ldi	r24, 0xE0	; 224
    1e70:	8d 0f       	add	r24, r29
    1e72:	80 36       	cpi	r24, 0x60	; 96
    1e74:	28 f0       	brcs	.+10     	; 0x1e80 <screen_draw_char+0x1a>
    1e76:	d0 3b       	cpi	r29, 0xB0	; 176
    1e78:	19 f0       	breq	.+6      	; 0x1e80 <screen_draw_char+0x1a>
    1e7a:	d0 3c       	cpi	r29, 0xC0	; 192
    1e7c:	08 f4       	brcc	.+2      	; 0x1e80 <screen_draw_char+0x1a>
        c = 32;  ///< If character is unsupported, use a space
    1e7e:	d0 e2       	ldi	r29, 0x20	; 32
    }

    uint8_t minus = 32;  ///< Default offset for printable characters (ASCII 32-127)
    
    if (c == 176) {
    1e80:	d0 3b       	cpi	r29, 0xB0	; 176
    1e82:	21 f0       	breq	.+8      	; 0x1e8c <screen_draw_char+0x26>
        minus = 80;  ///< Special character 176 uses a different offset
    } else if (c > 191) {
    1e84:	d0 3c       	cpi	r29, 0xC0	; 192
    1e86:	20 f4       	brcc	.+8      	; 0x1e90 <screen_draw_char+0x2a>
void screen_draw_char(char c) {
    if ((c < 32 || c > 127) && (c != 176) && (c < 192)) {
        c = 32;  ///< If character is unsupported, use a space
    }

    uint8_t minus = 32;  ///< Default offset for printable characters (ASCII 32-127)
    1e88:	10 e2       	ldi	r17, 0x20	; 32
    1e8a:	03 c0       	rjmp	.+6      	; 0x1e92 <screen_draw_char+0x2c>
    
    if (c == 176) {
        minus = 80;  ///< Special character 176 uses a different offset
    1e8c:	10 e5       	ldi	r17, 0x50	; 80
    1e8e:	01 c0       	rjmp	.+2      	; 0x1e92 <screen_draw_char+0x2c>
    } else if (c > 191) {
        minus = 95;  ///< Characters from 192-255 start from index 97
    1e90:	1f e5       	ldi	r17, 0x5F	; 95
    }

    // Draw the character using the font data
    for (uint8_t i = 0; i < 5; i++) {
    1e92:	c0 e0       	ldi	r28, 0x00	; 0
    1e94:	13 c0       	rjmp	.+38     	; 0x1ebc <screen_draw_char+0x56>
        uint8_t line = font[c - minus][i];  ///< Get the corresponding font byte
    1e96:	8d 2f       	mov	r24, r29
    1e98:	90 e0       	ldi	r25, 0x00	; 0
    1e9a:	81 1b       	sub	r24, r17
    1e9c:	91 09       	sbc	r25, r1
    1e9e:	fc 01       	movw	r30, r24
    1ea0:	ee 0f       	add	r30, r30
    1ea2:	ff 1f       	adc	r31, r31
    1ea4:	ee 0f       	add	r30, r30
    1ea6:	ff 1f       	adc	r31, r31
    1ea8:	e8 0f       	add	r30, r24
    1eaa:	f9 1f       	adc	r31, r25
    1eac:	e7 58       	subi	r30, 0x87	; 135
    1eae:	ff 49       	sbci	r31, 0x9F	; 159
    1eb0:	ec 0f       	add	r30, r28
    1eb2:	f1 1d       	adc	r31, r1
        screen_data(line);  ///< Display the character line by line
    1eb4:	80 81       	ld	r24, Z
    1eb6:	0e 94 1a 0f 	call	0x1e34	; 0x1e34 <screen_data>
    } else if (c > 191) {
        minus = 95;  ///< Characters from 192-255 start from index 97
    }

    // Draw the character using the font data
    for (uint8_t i = 0; i < 5; i++) {
    1eba:	cf 5f       	subi	r28, 0xFF	; 255
    1ebc:	c5 30       	cpi	r28, 0x05	; 5
    1ebe:	58 f3       	brcs	.-42     	; 0x1e96 <screen_draw_char+0x30>
        uint8_t line = font[c - minus][i];  ///< Get the corresponding font byte
        screen_data(line);  ///< Display the character line by line
    }

    screen_data(0x00);  ///< Add space between characters
    1ec0:	80 e0       	ldi	r24, 0x00	; 0
    1ec2:	0e 94 1a 0f 	call	0x1e34	; 0x1e34 <screen_data>
}
    1ec6:	df 91       	pop	r29
    1ec8:	cf 91       	pop	r28
    1eca:	1f 91       	pop	r17
    1ecc:	08 95       	ret

00001ece <screen_contrast>:
 * This function sets the contrast level of the LCD display, where the maximum value 
 * is 63 (0x3F).
 * 
 * @param contrast The contrast level (0 to 63).
 */
void screen_contrast(uint8_t contrast) {
    1ece:	cf 93       	push	r28
    1ed0:	c8 2f       	mov	r28, r24
    if (contrast > 0x3f) {
    1ed2:	80 34       	cpi	r24, 0x40	; 64
    1ed4:	08 f0       	brcs	.+2      	; 0x1ed8 <screen_contrast+0xa>
        contrast = 0x3f;  ///< Ensure contrast does not exceed maximum
    1ed6:	cf e3       	ldi	r28, 0x3F	; 63
    }
    screen_command(0x81);  ///< Send command to set contrast
    1ed8:	81 e8       	ldi	r24, 0x81	; 129
    1eda:	0e 94 14 0f 	call	0x1e28	; 0x1e28 <screen_command>
    screen_command(contrast);  ///< Set the contrast value
    1ede:	8c 2f       	mov	r24, r28
    1ee0:	0e 94 14 0f 	call	0x1e28	; 0x1e28 <screen_command>
}
    1ee4:	cf 91       	pop	r28
    1ee6:	08 95       	ret

00001ee8 <screen_clear>:
 * @brief Clears the ST7567S display.
 * 
 * This function clears the entire display by setting all pixels to 0 and restoring 
 * the default contrast.
 */
void screen_clear() {
    1ee8:	0f 93       	push	r16
    1eea:	1f 93       	push	r17
    1eec:	cf 93       	push	r28
    1eee:	df 93       	push	r29
    for (int page = 0; page < 8; page++) {
    1ef0:	00 e0       	ldi	r16, 0x00	; 0
    1ef2:	10 e0       	ldi	r17, 0x00	; 0
    1ef4:	16 c0       	rjmp	.+44     	; 0x1f22 <screen_clear+0x3a>
        screen_command(0xB0 + page);  ///< Select page
    1ef6:	80 eb       	ldi	r24, 0xB0	; 176
    1ef8:	80 0f       	add	r24, r16
    1efa:	0e 94 14 0f 	call	0x1e28	; 0x1e28 <screen_command>
        screen_command(0x00);  ///< Set column address
    1efe:	80 e0       	ldi	r24, 0x00	; 0
    1f00:	0e 94 14 0f 	call	0x1e28	; 0x1e28 <screen_command>
        screen_command(0x10);  ///< Set column address
    1f04:	80 e1       	ldi	r24, 0x10	; 16
    1f06:	0e 94 14 0f 	call	0x1e28	; 0x1e28 <screen_command>

        for (int column = 0; column < 128; column++) {
    1f0a:	c0 e0       	ldi	r28, 0x00	; 0
    1f0c:	d0 e0       	ldi	r29, 0x00	; 0
    1f0e:	04 c0       	rjmp	.+8      	; 0x1f18 <screen_clear+0x30>
            screen_data(0x00);  ///< Clear each column
    1f10:	80 e0       	ldi	r24, 0x00	; 0
    1f12:	0e 94 1a 0f 	call	0x1e34	; 0x1e34 <screen_data>
    for (int page = 0; page < 8; page++) {
        screen_command(0xB0 + page);  ///< Select page
        screen_command(0x00);  ///< Set column address
        screen_command(0x10);  ///< Set column address

        for (int column = 0; column < 128; column++) {
    1f16:	21 96       	adiw	r28, 0x01	; 1
    1f18:	c0 38       	cpi	r28, 0x80	; 128
    1f1a:	d1 05       	cpc	r29, r1
    1f1c:	cc f3       	brlt	.-14     	; 0x1f10 <screen_clear+0x28>
 * 
 * This function clears the entire display by setting all pixels to 0 and restoring 
 * the default contrast.
 */
void screen_clear() {
    for (int page = 0; page < 8; page++) {
    1f1e:	0f 5f       	subi	r16, 0xFF	; 255
    1f20:	1f 4f       	sbci	r17, 0xFF	; 255
    1f22:	08 30       	cpi	r16, 0x08	; 8
    1f24:	11 05       	cpc	r17, r1
    1f26:	3c f3       	brlt	.-50     	; 0x1ef6 <screen_clear+0xe>

        for (int column = 0; column < 128; column++) {
            screen_data(0x00);  ///< Clear each column
        }
    }
    screen_contrast(ST7567S_CONTRAST);  ///< Restore contrast
    1f28:	80 e2       	ldi	r24, 0x20	; 32
    1f2a:	0e 94 67 0f 	call	0x1ece	; 0x1ece <screen_contrast>
}
    1f2e:	df 91       	pop	r29
    1f30:	cf 91       	pop	r28
    1f32:	1f 91       	pop	r17
    1f34:	0f 91       	pop	r16
    1f36:	08 95       	ret

00001f38 <screen_draw_text>:
 * the maximum allowed characters are displayed.
 * 
 * @param text A pointer to the text string to draw.
 * @param max_length The maximum number of characters to display.
 */
void screen_draw_text(char *text, uint8_t max_length) {
    1f38:	0f 93       	push	r16
    1f3a:	1f 93       	push	r17
    1f3c:	cf 93       	push	r28
    1f3e:	df 93       	push	r29
    1f40:	8c 01       	movw	r16, r24
    1f42:	d6 2f       	mov	r29, r22
    uint8_t length = 0;
    1f44:	c0 e0       	ldi	r28, 0x00	; 0
    while (*text && length < max_length) {
    1f46:	05 c0       	rjmp	.+10     	; 0x1f52 <screen_draw_text+0x1a>
        screen_draw_char(*text);  ///< Draw each character in the string
    1f48:	0e 94 33 0f 	call	0x1e66	; 0x1e66 <screen_draw_char>
        text++;
    1f4c:	0f 5f       	subi	r16, 0xFF	; 255
    1f4e:	1f 4f       	sbci	r17, 0xFF	; 255
        length++;
    1f50:	cf 5f       	subi	r28, 0xFF	; 255
 * @param text A pointer to the text string to draw.
 * @param max_length The maximum number of characters to display.
 */
void screen_draw_text(char *text, uint8_t max_length) {
    uint8_t length = 0;
    while (*text && length < max_length) {
    1f52:	f8 01       	movw	r30, r16
    1f54:	80 81       	ld	r24, Z
    1f56:	88 23       	and	r24, r24
    1f58:	39 f0       	breq	.+14     	; 0x1f68 <screen_draw_text+0x30>
    1f5a:	cd 17       	cp	r28, r29
    1f5c:	a8 f3       	brcs	.-22     	; 0x1f48 <screen_draw_text+0x10>
    1f5e:	04 c0       	rjmp	.+8      	; 0x1f68 <screen_draw_text+0x30>
        screen_draw_char(*text);  ///< Draw each character in the string
        text++;
        length++;
    }
    while (length < max_length) {
        screen_draw_char(' ');  ///< Fill remaining space with spaces
    1f60:	80 e2       	ldi	r24, 0x20	; 32
    1f62:	0e 94 33 0f 	call	0x1e66	; 0x1e66 <screen_draw_char>
        length++;
    1f66:	cf 5f       	subi	r28, 0xFF	; 255
    while (*text && length < max_length) {
        screen_draw_char(*text);  ///< Draw each character in the string
        text++;
        length++;
    }
    while (length < max_length) {
    1f68:	cd 17       	cp	r28, r29
    1f6a:	d0 f3       	brcs	.-12     	; 0x1f60 <screen_draw_text+0x28>
        screen_draw_char(' ');  ///< Fill remaining space with spaces
        length++;
    }
}
    1f6c:	df 91       	pop	r29
    1f6e:	cf 91       	pop	r28
    1f70:	1f 91       	pop	r17
    1f72:	0f 91       	pop	r16
    1f74:	08 95       	ret

00001f76 <screen_write_text>:
 * 
 * @param text A pointer to the text string to write.
 * @param line The line (page) where the text will be written.
 * @param start_pixel The starting pixel column for the text.
 */
void screen_write_text(char *text, uint8_t line, uint8_t start_pixel) {
    1f76:	0f 93       	push	r16
    1f78:	1f 93       	push	r17
    1f7a:	cf 93       	push	r28
    1f7c:	df 93       	push	r29
    1f7e:	8c 01       	movw	r16, r24
    1f80:	26 2f       	mov	r18, r22
    1f82:	c4 2f       	mov	r28, r20
    uint8_t max_chars = (128 - start_pixel) / 6;  ///< Calculate max characters per line
    1f84:	80 e8       	ldi	r24, 0x80	; 128
    1f86:	90 e0       	ldi	r25, 0x00	; 0
    1f88:	84 1b       	sub	r24, r20
    1f8a:	91 09       	sbc	r25, r1
    1f8c:	66 e0       	ldi	r22, 0x06	; 6
    1f8e:	70 e0       	ldi	r23, 0x00	; 0
    1f90:	0e 94 47 24 	call	0x488e	; 0x488e <__divmodhi4>
    1f94:	d6 2f       	mov	r29, r22
    screen_command(0xB0 | line);  ///< Set the page (line)
    1f96:	82 2f       	mov	r24, r18
    1f98:	80 6b       	ori	r24, 0xB0	; 176
    1f9a:	0e 94 14 0f 	call	0x1e28	; 0x1e28 <screen_command>
    screen_command(0x10 | (start_pixel >> 4));  ///< Set high byte of column address
    1f9e:	8c 2f       	mov	r24, r28
    1fa0:	82 95       	swap	r24
    1fa2:	8f 70       	andi	r24, 0x0F	; 15
    1fa4:	80 61       	ori	r24, 0x10	; 16
    1fa6:	0e 94 14 0f 	call	0x1e28	; 0x1e28 <screen_command>
    screen_command(0x00 | (start_pixel & 0x0F));  ///< Set low byte of column address
    1faa:	8c 2f       	mov	r24, r28
    1fac:	8f 70       	andi	r24, 0x0F	; 15
    1fae:	0e 94 14 0f 	call	0x1e28	; 0x1e28 <screen_command>
    screen_draw_text(text, max_chars);  ///< Draw the text
    1fb2:	6d 2f       	mov	r22, r29
    1fb4:	c8 01       	movw	r24, r16
    1fb6:	0e 94 9c 0f 	call	0x1f38	; 0x1f38 <screen_draw_text>
}
    1fba:	df 91       	pop	r29
    1fbc:	cf 91       	pop	r28
    1fbe:	1f 91       	pop	r17
    1fc0:	0f 91       	pop	r16
    1fc2:	08 95       	ret

00001fc4 <calculate_start_pixel>:
 * @param max_length The maximum number of characters.
 * @param alignment The desired text alignment (left, center, right).
 * 
 * @return The starting pixel for the text.
 */
uint8_t calculate_start_pixel(char *text, alignment_t alignment) {
    1fc4:	ac 01       	movw	r20, r24
    uint8_t text_length = 0;
    1fc6:	90 e0       	ldi	r25, 0x00	; 0
    while (text[text_length] != '\0') {
    1fc8:	01 c0       	rjmp	.+2      	; 0x1fcc <calculate_start_pixel+0x8>
        text_length++;
    1fca:	9f 5f       	subi	r25, 0xFF	; 255
 * 
 * @return The starting pixel for the text.
 */
uint8_t calculate_start_pixel(char *text, alignment_t alignment) {
    uint8_t text_length = 0;
    while (text[text_length] != '\0') {
    1fcc:	fa 01       	movw	r30, r20
    1fce:	e9 0f       	add	r30, r25
    1fd0:	f1 1d       	adc	r31, r1
    1fd2:	20 81       	ld	r18, Z
    1fd4:	21 11       	cpse	r18, r1
    1fd6:	f9 cf       	rjmp	.-14     	; 0x1fca <calculate_start_pixel+0x6>
        text_length++;
    }

    uint8_t text_width = text_length * 6;  ///< Calculate the width of the text in pixels
    1fd8:	89 2f       	mov	r24, r25
    1fda:	88 0f       	add	r24, r24
    1fdc:	98 0f       	add	r25, r24
    1fde:	29 2f       	mov	r18, r25
    1fe0:	22 0f       	add	r18, r18

    switch (alignment) {
    1fe2:	61 30       	cpi	r22, 0x01	; 1
    1fe4:	19 f0       	breq	.+6      	; 0x1fec <calculate_start_pixel+0x28>
    1fe6:	62 30       	cpi	r22, 0x02	; 2
    1fe8:	69 f0       	breq	.+26     	; 0x2004 <__DATA_REGION_LENGTH__+0x4>
    1fea:	0f c0       	rjmp	.+30     	; 0x200a <__DATA_REGION_LENGTH__+0xa>
        case ALIGN_CENTER:
            return (128 - text_width) / 2;  ///< Center the text
    1fec:	80 e8       	ldi	r24, 0x80	; 128
    1fee:	90 e0       	ldi	r25, 0x00	; 0
    1ff0:	ac 01       	movw	r20, r24
    1ff2:	42 1b       	sub	r20, r18
    1ff4:	51 09       	sbc	r21, r1
    1ff6:	ca 01       	movw	r24, r20
    1ff8:	99 23       	and	r25, r25
    1ffa:	0c f4       	brge	.+2      	; 0x1ffe <calculate_start_pixel+0x3a>
    1ffc:	01 96       	adiw	r24, 0x01	; 1
    1ffe:	95 95       	asr	r25
    2000:	87 95       	ror	r24
    2002:	08 95       	ret
        case ALIGN_RIGHT:
            return (128 - text_width);  ///< Right-align the text
    2004:	80 e8       	ldi	r24, 0x80	; 128
    2006:	82 1b       	sub	r24, r18
    2008:	08 95       	ret
        case ALIGN_LEFT:
        default:
            return 0;  ///< Left-align the text
    200a:	80 e0       	ldi	r24, 0x00	; 0
    }
}
    200c:	08 95       	ret

0000200e <screen_write_text_aligned>:
 * 
 * @param text A pointer to the text string to write.
 * @param line The line (page) where the text will be written.
 * @param alignment The desired text alignment (left, center, right).
 */
void screen_write_text_aligned(char *text, uint8_t line, alignment_t alignment) {
    200e:	1f 93       	push	r17
    2010:	cf 93       	push	r28
    2012:	df 93       	push	r29
    2014:	ec 01       	movw	r28, r24
    2016:	16 2f       	mov	r17, r22
	uint8_t start_pixel = calculate_start_pixel(text, alignment);  ///< Calculate start pixel
    2018:	64 2f       	mov	r22, r20
    201a:	0e 94 e2 0f 	call	0x1fc4	; 0x1fc4 <calculate_start_pixel>
	screen_write_text(text, line, start_pixel);
    201e:	48 2f       	mov	r20, r24
    2020:	61 2f       	mov	r22, r17
    2022:	ce 01       	movw	r24, r28
    2024:	0e 94 bb 0f 	call	0x1f76	; 0x1f76 <screen_write_text>
}
    2028:	df 91       	pop	r29
    202a:	cf 91       	pop	r28
    202c:	1f 91       	pop	r17
    202e:	08 95       	ret

00002030 <screen_write_formatted_text>:
 * 
 * @param format The format string for the text.
 * @param line The line (page) where the text will be written.
 * @param alignment The desired text alignment (left, center, right).
 */
void screen_write_formatted_text(const char *format, uint8_t line, alignment_t alignment, ...) {
    2030:	cf 93       	push	r28
    2032:	df 93       	push	r29
    2034:	cd b7       	in	r28, 0x3d	; 61
    2036:	de b7       	in	r29, 0x3e	; 62
    2038:	e2 97       	sbiw	r28, 0x32	; 50
    203a:	cd bf       	out	0x3d, r28	; 61
    203c:	de bf       	out	0x3e, r29	; 62
    char textStorage[MAX_TEXT_LENGTH];  ///< Buffer for storing formatted text
    va_list args;  ///< Variable argument list

    va_start(args, alignment);  ///< Start reading variable arguments
    vsnprintf(textStorage, MAX_TEXT_LENGTH, format, args);  ///< Format the text
    203e:	9e 01       	movw	r18, r28
    2040:	25 5c       	subi	r18, 0xC5	; 197
    2042:	3f 4f       	sbci	r19, 0xFF	; 255
    2044:	4f a9       	ldd	r20, Y+55	; 0x37
    2046:	58 ad       	ldd	r21, Y+56	; 0x38
    2048:	62 e3       	ldi	r22, 0x32	; 50
    204a:	70 e0       	ldi	r23, 0x00	; 0
    204c:	ce 01       	movw	r24, r28
    204e:	01 96       	adiw	r24, 0x01	; 1
    2050:	0e 94 d3 27 	call	0x4fa6	; 0x4fa6 <vsnprintf>
    va_end(args);  ///< End reading variable arguments

    screen_write_text_aligned(textStorage, line, alignment);  ///< Write formatted text to display
    2054:	4a ad       	ldd	r20, Y+58	; 0x3a
    2056:	69 ad       	ldd	r22, Y+57	; 0x39
    2058:	ce 01       	movw	r24, r28
    205a:	01 96       	adiw	r24, 0x01	; 1
    205c:	0e 94 07 10 	call	0x200e	; 0x200e <screen_write_text_aligned>
}
    2060:	e2 96       	adiw	r28, 0x32	; 50
    2062:	cd bf       	out	0x3d, r28	; 61
    2064:	de bf       	out	0x3e, r29	; 62
    2066:	df 91       	pop	r29
    2068:	cf 91       	pop	r28
    206a:	08 95       	ret

0000206c <USART0_init>:
 * @return 0 on success.
 */
int USART1_printChar(char c, FILE *stream) {
	USART1_sendChar(c); // Send character
	return 0;
}
    206c:	e0 e0       	ldi	r30, 0x00	; 0
    206e:	f8 e0       	ldi	r31, 0x08	; 8
    2070:	8d e4       	ldi	r24, 0x4D	; 77
    2072:	90 e0       	ldi	r25, 0x00	; 0
    2074:	80 87       	std	Z+8, r24	; 0x08
    2076:	91 87       	std	Z+9, r25	; 0x09
    2078:	82 ec       	ldi	r24, 0xC2	; 194
    207a:	86 83       	std	Z+6, r24	; 0x06
    207c:	83 e0       	ldi	r24, 0x03	; 3
    207e:	87 83       	std	Z+7, r24	; 0x07
    2080:	08 95       	ret

00002082 <USART0_sendChar>:
    2082:	90 91 04 08 	lds	r25, 0x0804	; 0x800804 <__TEXT_REGION_LENGTH__+0x7f0804>
    2086:	95 ff       	sbrs	r25, 5
    2088:	fc cf       	rjmp	.-8      	; 0x2082 <USART0_sendChar>
    208a:	80 93 02 08 	sts	0x0802, r24	; 0x800802 <__TEXT_REGION_LENGTH__+0x7f0802>
    208e:	08 95       	ret

00002090 <USART0_sendString>:
    2090:	0f 93       	push	r16
    2092:	1f 93       	push	r17
    2094:	cf 93       	push	r28
    2096:	df 93       	push	r29
    2098:	8c 01       	movw	r16, r24
    209a:	c0 e0       	ldi	r28, 0x00	; 0
    209c:	d0 e0       	ldi	r29, 0x00	; 0
    209e:	07 c0       	rjmp	.+14     	; 0x20ae <USART0_sendString+0x1e>
    20a0:	f8 01       	movw	r30, r16
    20a2:	ec 0f       	add	r30, r28
    20a4:	fd 1f       	adc	r31, r29
    20a6:	80 81       	ld	r24, Z
    20a8:	0e 94 41 10 	call	0x2082	; 0x2082 <USART0_sendChar>
    20ac:	21 96       	adiw	r28, 0x01	; 1
    20ae:	f8 01       	movw	r30, r16
    20b0:	01 90       	ld	r0, Z+
    20b2:	00 20       	and	r0, r0
    20b4:	e9 f7       	brne	.-6      	; 0x20b0 <USART0_sendString+0x20>
    20b6:	31 97       	sbiw	r30, 0x01	; 1
    20b8:	e0 1b       	sub	r30, r16
    20ba:	f1 0b       	sbc	r31, r17
    20bc:	ce 17       	cp	r28, r30
    20be:	df 07       	cpc	r29, r31
    20c0:	78 f3       	brcs	.-34     	; 0x20a0 <USART0_sendString+0x10>
    20c2:	df 91       	pop	r29
    20c4:	cf 91       	pop	r28
    20c6:	1f 91       	pop	r17
    20c8:	0f 91       	pop	r16
    20ca:	08 95       	ret

000020cc <USART1_init>:
    20cc:	e0 e2       	ldi	r30, 0x20	; 32
    20ce:	f8 e0       	ldi	r31, 0x08	; 8
    20d0:	8d e4       	ldi	r24, 0x4D	; 77
    20d2:	90 e0       	ldi	r25, 0x00	; 0
    20d4:	80 87       	std	Z+8, r24	; 0x08
    20d6:	91 87       	std	Z+9, r25	; 0x09
    20d8:	82 ec       	ldi	r24, 0xC2	; 194
    20da:	86 83       	std	Z+6, r24	; 0x06
    20dc:	83 e0       	ldi	r24, 0x03	; 3
    20de:	87 83       	std	Z+7, r24	; 0x07
    20e0:	08 95       	ret

000020e2 <USART1_sendChar>:
    20e2:	90 91 24 08 	lds	r25, 0x0824	; 0x800824 <__TEXT_REGION_LENGTH__+0x7f0824>
    20e6:	95 ff       	sbrs	r25, 5
    20e8:	fc cf       	rjmp	.-8      	; 0x20e2 <USART1_sendChar>
    20ea:	80 93 22 08 	sts	0x0822, r24	; 0x800822 <__TEXT_REGION_LENGTH__+0x7f0822>
    20ee:	08 95       	ret

000020f0 <USART1_sendString>:
    20f0:	0f 93       	push	r16
    20f2:	1f 93       	push	r17
    20f4:	cf 93       	push	r28
    20f6:	df 93       	push	r29
    20f8:	8c 01       	movw	r16, r24
    20fa:	c0 e0       	ldi	r28, 0x00	; 0
    20fc:	d0 e0       	ldi	r29, 0x00	; 0
    20fe:	07 c0       	rjmp	.+14     	; 0x210e <USART1_sendString+0x1e>
    2100:	f8 01       	movw	r30, r16
    2102:	ec 0f       	add	r30, r28
    2104:	fd 1f       	adc	r31, r29
    2106:	80 81       	ld	r24, Z
    2108:	0e 94 71 10 	call	0x20e2	; 0x20e2 <USART1_sendChar>
    210c:	21 96       	adiw	r28, 0x01	; 1
    210e:	f8 01       	movw	r30, r16
    2110:	01 90       	ld	r0, Z+
    2112:	00 20       	and	r0, r0
    2114:	e9 f7       	brne	.-6      	; 0x2110 <USART1_sendString+0x20>
    2116:	31 97       	sbiw	r30, 0x01	; 1
    2118:	e0 1b       	sub	r30, r16
    211a:	f1 0b       	sbc	r31, r17
    211c:	ce 17       	cp	r28, r30
    211e:	df 07       	cpc	r29, r31
    2120:	78 f3       	brcs	.-34     	; 0x2100 <USART1_sendString+0x10>
    2122:	df 91       	pop	r29
    2124:	cf 91       	pop	r28
    2126:	1f 91       	pop	r17
    2128:	0f 91       	pop	r16
    212a:	08 95       	ret

0000212c <USART1_readChar>:
 * If a timeout occurs, it returns a predefined warning.
 * 
 * @return The received character.
 */
char USART1_readChar() {
	USART1.STATUS = USART_RXCIF_bm; // Clear buffer before reading
    212c:	80 e8       	ldi	r24, 0x80	; 128
    212e:	80 93 24 08 	sts	0x0824, r24	; 0x800824 <__TEXT_REGION_LENGTH__+0x7f0824>
	uint32_t timeout_counter = TIMEOUT_COUNTER; // Set a timeout counter
    2132:	80 e2       	ldi	r24, 0x20	; 32
    2134:	91 ea       	ldi	r25, 0xA1	; 161
    2136:	a7 e0       	ldi	r26, 0x07	; 7
    2138:	b0 e0       	ldi	r27, 0x00	; 0
	while (!(USART1.STATUS & USART_RXCIF_bm)) { // Wait for data to be received
    213a:	08 c0       	rjmp	.+16     	; 0x214c <USART1_readChar+0x20>
		if (--timeout_counter == 0) { // Timeout condition
    213c:	01 97       	sbiw	r24, 0x01	; 1
    213e:	a1 09       	sbc	r26, r1
    2140:	b1 09       	sbc	r27, r1
    2142:	21 f4       	brne	.+8      	; 0x214c <USART1_readChar+0x20>
			Date_Clock.warning = 3; // Set warning if timeout occurs
    2144:	83 e0       	ldi	r24, 0x03	; 3
    2146:	80 93 63 60 	sts	0x6063, r24	; 0x806063 <Date_Clock+0x1c>
			break;
    214a:	04 c0       	rjmp	.+8      	; 0x2154 <USART1_readChar+0x28>
 * @return The received character.
 */
char USART1_readChar() {
	USART1.STATUS = USART_RXCIF_bm; // Clear buffer before reading
	uint32_t timeout_counter = TIMEOUT_COUNTER; // Set a timeout counter
	while (!(USART1.STATUS & USART_RXCIF_bm)) { // Wait for data to be received
    214c:	20 91 24 08 	lds	r18, 0x0824	; 0x800824 <__TEXT_REGION_LENGTH__+0x7f0824>
    2150:	22 23       	and	r18, r18
    2152:	a4 f7       	brge	.-24     	; 0x213c <USART1_readChar+0x10>
		if (--timeout_counter == 0) { // Timeout condition
			Date_Clock.warning = 3; // Set warning if timeout occurs
			break;
		}
	}
	return USART1.RXDATAL; // Return received character
    2154:	80 91 20 08 	lds	r24, 0x0820	; 0x800820 <__TEXT_REGION_LENGTH__+0x7f0820>
}
    2158:	08 95       	ret

0000215a <USART_printf>:
 * 
 * @param usart_number The USART number (0 or 1).
 * @param format The format string.
 * @param ... The arguments to be formatted into the string.
 */
void USART_printf(uint8_t usart_number, const char *format, ...) {
    215a:	1f 93       	push	r17
    215c:	cf 93       	push	r28
    215e:	df 93       	push	r29
    2160:	cd b7       	in	r28, 0x3d	; 61
    2162:	de b7       	in	r29, 0x3e	; 62
    2164:	c0 58       	subi	r28, 0x80	; 128
    2166:	d1 09       	sbc	r29, r1
    2168:	cd bf       	out	0x3d, r28	; 61
    216a:	de bf       	out	0x3e, r29	; 62
    216c:	ca 57       	subi	r28, 0x7A	; 122
    216e:	df 4f       	sbci	r29, 0xFF	; 255
    2170:	18 81       	ld	r17, Y
    2172:	c6 58       	subi	r28, 0x86	; 134
    2174:	d0 40       	sbci	r29, 0x00	; 0
	char buffer[128]; // Temporary buffer for formatted message
	va_list args;
	va_start(args, format);
	vsnprintf(buffer, sizeof(buffer), format, args); // Format the message into the buffer
    2176:	9e 01       	movw	r18, r28
    2178:	27 57       	subi	r18, 0x77	; 119
    217a:	3f 4f       	sbci	r19, 0xFF	; 255
    217c:	c9 57       	subi	r28, 0x79	; 121
    217e:	df 4f       	sbci	r29, 0xFF	; 255
    2180:	48 81       	ld	r20, Y
    2182:	59 81       	ldd	r21, Y+1	; 0x01
    2184:	c7 58       	subi	r28, 0x87	; 135
    2186:	d0 40       	sbci	r29, 0x00	; 0
    2188:	60 e8       	ldi	r22, 0x80	; 128
    218a:	70 e0       	ldi	r23, 0x00	; 0
    218c:	ce 01       	movw	r24, r28
    218e:	01 96       	adiw	r24, 0x01	; 1
    2190:	0e 94 d3 27 	call	0x4fa6	; 0x4fa6 <vsnprintf>
	va_end(args);

	// Select the USART channel for sending the formatted string
	if (usart_number == 0) {
    2194:	11 11       	cpse	r17, r1
    2196:	05 c0       	rjmp	.+10     	; 0x21a2 <USART_printf+0x48>
		USART0_sendString(buffer); // Use USART0 for sending
    2198:	ce 01       	movw	r24, r28
    219a:	01 96       	adiw	r24, 0x01	; 1
    219c:	0e 94 48 10 	call	0x2090	; 0x2090 <USART0_sendString>
    21a0:	06 c0       	rjmp	.+12     	; 0x21ae <USART_printf+0x54>
	} else if (usart_number == 1) {
    21a2:	11 30       	cpi	r17, 0x01	; 1
    21a4:	21 f4       	brne	.+8      	; 0x21ae <USART_printf+0x54>
		USART1_sendString(buffer); // Use USART1 for sending
    21a6:	ce 01       	movw	r24, r28
    21a8:	01 96       	adiw	r24, 0x01	; 1
    21aa:	0e 94 78 10 	call	0x20f0	; 0x20f0 <USART1_sendString>
	} else {
		// Handle invalid USART number  add error management if needed
	}
}
    21ae:	c0 58       	subi	r28, 0x80	; 128
    21b0:	df 4f       	sbci	r29, 0xFF	; 255
    21b2:	cd bf       	out	0x3d, r28	; 61
    21b4:	de bf       	out	0x3e, r29	; 62
    21b6:	df 91       	pop	r29
    21b8:	cf 91       	pop	r28
    21ba:	1f 91       	pop	r17
    21bc:	08 95       	ret

000021be <WindSpeed>:
 * The wind speed is calculated based on the ADC value and the scaling factor. The scaling factor is 
 * determined by the sensor's characteristics (in this case, 0.00732421875). This function updates the 
 * global variable `Wind.speed` with the calculated value.
 */
void WindSpeed(){
	ADC0_SetupWS();
    21be:	0e 94 7c 01 	call	0x2f8	; 0x2f8 <ADC0_SetupWS>
	Wind.speed = (ADC0_read()* 0.00732421875); // same as *30m/s /4096 = 0.00732421875 //and rounding to lower side
    21c2:	0e 94 90 01 	call	0x320	; 0x320 <ADC0_read>
    21c6:	bc 01       	movw	r22, r24
    21c8:	80 e0       	ldi	r24, 0x00	; 0
    21ca:	90 e0       	ldi	r25, 0x00	; 0
    21cc:	0e 94 46 1d 	call	0x3a8c	; 0x3a8c <__floatunsisf>
    21d0:	20 e0       	ldi	r18, 0x00	; 0
    21d2:	30 e0       	ldi	r19, 0x00	; 0
    21d4:	40 ef       	ldi	r20, 0xF0	; 240
    21d6:	5b e3       	ldi	r21, 0x3B	; 59
    21d8:	0e 94 38 1f 	call	0x3e70	; 0x3e70 <__mulsf3>
    21dc:	0e 94 11 1d 	call	0x3a22	; 0x3a22 <__fixunssfsi>
    21e0:	60 93 6c 68 	sts	0x686C, r22	; 0x80686c <Wind>
    21e4:	08 95       	ret

000021e6 <WindDirection>:
 * 
 * The wind direction is determined by reading the ADC value and comparing it to predefined thresholds. 
 * Based on the comparison, the corresponding direction is stored in the global variable `Wind.direction`.
 */
void WindDirection(){
	ADC0_SetupWD();
    21e6:	0e 94 83 01 	call	0x306	; 0x306 <ADC0_SetupWD>
	uint16_t rawDirect = 0;
	rawDirect = ADC0_read();
    21ea:	0e 94 90 01 	call	0x320	; 0x320 <ADC0_read>
    21ee:	9c 01       	movw	r18, r24

    if (rawDirect < WINDADCHALFSTEP)
    21f0:	24 32       	cpi	r18, 0x24	; 36
    21f2:	81 e0       	ldi	r24, 0x01	; 1
    21f4:	38 07       	cpc	r19, r24
    21f6:	18 f4       	brcc	.+6      	; 0x21fe <WindDirection+0x18>
	    Wind.direction = 0; // Position 0
    21f8:	10 92 6d 68 	sts	0x686D, r1	; 0x80686d <Wind+0x1>
    21fc:	08 95       	ret
	else if (rawDirect > WINDADCRES - WINDADCHALFSTEP)
    21fe:	2c 3d       	cpi	r18, 0xDC	; 220
    2200:	8e e0       	ldi	r24, 0x0E	; 14
    2202:	38 07       	cpc	r19, r24
    2204:	20 f0       	brcs	.+8      	; 0x220e <WindDirection+0x28>
	    Wind.direction = 7; // Position 7
    2206:	87 e0       	ldi	r24, 0x07	; 7
    2208:	80 93 6d 68 	sts	0x686D, r24	; 0x80686d <Wind+0x1>
    220c:	08 95       	ret
	else { //Positions 1-6
	    uint8_t position = (rawDirect + WINDADCHALFSTEP) / WINDADCSTEP;
    220e:	e9 e4       	ldi	r30, 0x49	; 73
    2210:	f2 e0       	ldi	r31, 0x02	; 2
    2212:	c9 01       	movw	r24, r18
    2214:	8c 5d       	subi	r24, 0xDC	; 220
    2216:	9e 4f       	sbci	r25, 0xFE	; 254
    2218:	bf 01       	movw	r22, r30
    221a:	0e 94 33 24 	call	0x4866	; 0x4866 <__udivmodhi4>
	    uint16_t center = position * WINDADCSTEP;
    221e:	6e 9f       	mul	r22, r30
    2220:	c0 01       	movw	r24, r0
    2222:	6f 9f       	mul	r22, r31
    2224:	90 0d       	add	r25, r0
    2226:	11 24       	eor	r1, r1
	    if (rawDirect >= center - WINDDIRTOLERANCE && rawDirect <= center + WINDDIRTOLERANCE)
    2228:	ac 01       	movw	r20, r24
    222a:	42 59       	subi	r20, 0x92	; 146
    222c:	51 09       	sbc	r21, r1
    222e:	24 17       	cp	r18, r20
    2230:	35 07       	cpc	r19, r21
    2232:	38 f0       	brcs	.+14     	; 0x2242 <WindDirection+0x5c>
    2234:	8e 56       	subi	r24, 0x6E	; 110
    2236:	9f 4f       	sbci	r25, 0xFF	; 255
    2238:	82 17       	cp	r24, r18
    223a:	93 07       	cpc	r25, r19
    223c:	10 f0       	brcs	.+4      	; 0x2242 <WindDirection+0x5c>
		    Wind.direction = position;
    223e:	60 93 6d 68 	sts	0x686D, r22	; 0x80686d <Wind+0x1>
    2242:	08 95       	ret

00002244 <WindDirNames>:
 * (Southwest), W (West), NW (Northwest), and N (North). The names are returned as a string.
 * 
 * @return A string representing the short name of the wind direction.
 */
const char * WindDirNames(){ // return wind direction short name
	switch(Wind.direction) {
    2244:	e0 91 6d 68 	lds	r30, 0x686D	; 0x80686d <Wind+0x1>
    2248:	8e 2f       	mov	r24, r30
    224a:	90 e0       	ldi	r25, 0x00	; 0
    224c:	fc 01       	movw	r30, r24
    224e:	31 97       	sbiw	r30, 0x01	; 1
    2250:	e7 30       	cpi	r30, 0x07	; 7
    2252:	f1 05       	cpc	r31, r1
    2254:	b0 f4       	brcc	.+44     	; 0x2282 <WindDirNames+0x3e>
    2256:	e8 5b       	subi	r30, 0xB8	; 184
    2258:	ff 4f       	sbci	r31, 0xFF	; 255
    225a:	0c 94 7d 24 	jmp	0x48fa	; 0x48fa <__tablejump2__>
		case 3: return "PR";
		case 4: return "P ";
		case 5: return "PV";
		case 6: return "V ";
		case 7: return "V";*/
		case 1: return "NE";  // Northeast
    225e:	8a e4       	ldi	r24, 0x4A	; 74
    2260:	95 e6       	ldi	r25, 0x65	; 101
    2262:	08 95       	ret
		case 2: return "E ";  // East
		case 3: return "SE"; // Southeast
    2264:	80 e5       	ldi	r24, 0x50	; 80
    2266:	95 e6       	ldi	r25, 0x65	; 101
    2268:	08 95       	ret
		case 4: return "S ";  // South
    226a:	83 e5       	ldi	r24, 0x53	; 83
    226c:	95 e6       	ldi	r25, 0x65	; 101
    226e:	08 95       	ret
		case 5: return "SW"; // Southwest
    2270:	86 e5       	ldi	r24, 0x56	; 86
    2272:	95 e6       	ldi	r25, 0x65	; 101
    2274:	08 95       	ret
		case 6: return "W ";  // West
    2276:	89 e5       	ldi	r24, 0x59	; 89
    2278:	95 e6       	ldi	r25, 0x65	; 101
    227a:	08 95       	ret
		case 7: return "NW"; // Northwest
    227c:	8c e5       	ldi	r24, 0x5C	; 92
    227e:	95 e6       	ldi	r25, 0x65	; 101
    2280:	08 95       	ret
	}
	//return " "; // Lithuanian: North
	return "N ";  // English: North
    2282:	8f e5       	ldi	r24, 0x5F	; 95
    2284:	95 e6       	ldi	r25, 0x65	; 101
    2286:	08 95       	ret
		case 4: return "P ";
		case 5: return "PV";
		case 6: return "V ";
		case 7: return "V";*/
		case 1: return "NE";  // Northeast
		case 2: return "E ";  // East
    2288:	8d e4       	ldi	r24, 0x4D	; 77
    228a:	95 e6       	ldi	r25, 0x65	; 101
		case 6: return "W ";  // West
		case 7: return "NW"; // Northwest
	}
	//return " "; // Lithuanian: North
	return "N ";  // English: North
}
    228c:	08 95       	ret

0000228e <displayDateTimeAndLocation>:
 * 
 * @param newTimeAndPlace Array containing the digits of time and place data.
 * @param arrow Array to display arrows ('^' or 's') indicating the current field to be edited.
 * @param step The index of the current field being edited.
 */
void displayDateTimeAndLocation(uint8_t *newTimeAndPlace, char *arrow, uint8_t *step) {
    228e:	9f 92       	push	r9
    2290:	af 92       	push	r10
    2292:	bf 92       	push	r11
    2294:	cf 92       	push	r12
    2296:	df 92       	push	r13
    2298:	ef 92       	push	r14
    229a:	ff 92       	push	r15
    229c:	0f 93       	push	r16
    229e:	1f 93       	push	r17
    22a0:	cf 93       	push	r28
    22a2:	df 93       	push	r29
    22a4:	7c 01       	movw	r14, r24
    22a6:	eb 01       	movw	r28, r22
    22a8:	8a 01       	movw	r16, r20
    // Display date and time information in the format: t:YYYY-MM-DD HH:MM:SS
    screen_write_formatted_text("t:%d%d%d%d-%d%d-%d%d %d%d:%d%d:%d%d", 0, ALIGN_CENTER,
        newTimeAndPlace[0], newTimeAndPlace[1], newTimeAndPlace[2], newTimeAndPlace[3],
        newTimeAndPlace[4], newTimeAndPlace[5], newTimeAndPlace[6], newTimeAndPlace[7],
        newTimeAndPlace[8], newTimeAndPlace[9], newTimeAndPlace[10], newTimeAndPlace[11],
        newTimeAndPlace[12], newTimeAndPlace[13], 0); //last 0 for hunderts of seconds
    22aa:	fc 01       	movw	r30, r24
    22ac:	c5 84       	ldd	r12, Z+13	; 0x0d
    22ae:	d4 84       	ldd	r13, Z+12	; 0x0c

    // Display date and time information in the format: t:YYYY-MM-DD HH:MM:SS
    screen_write_formatted_text("t:%d%d%d%d-%d%d-%d%d %d%d:%d%d:%d%d", 0, ALIGN_CENTER,
        newTimeAndPlace[0], newTimeAndPlace[1], newTimeAndPlace[2], newTimeAndPlace[3],
        newTimeAndPlace[4], newTimeAndPlace[5], newTimeAndPlace[6], newTimeAndPlace[7],
        newTimeAndPlace[8], newTimeAndPlace[9], newTimeAndPlace[10], newTimeAndPlace[11],
    22b0:	b3 85       	ldd	r27, Z+11	; 0x0b
    22b2:	a2 85       	ldd	r26, Z+10	; 0x0a
    22b4:	b1 84       	ldd	r11, Z+9	; 0x09
    22b6:	a0 84       	ldd	r10, Z+8	; 0x08
    uint8_t simbol = 0, simbol2 = 0;

    // Display date and time information in the format: t:YYYY-MM-DD HH:MM:SS
    screen_write_formatted_text("t:%d%d%d%d-%d%d-%d%d %d%d:%d%d:%d%d", 0, ALIGN_CENTER,
        newTimeAndPlace[0], newTimeAndPlace[1], newTimeAndPlace[2], newTimeAndPlace[3],
        newTimeAndPlace[4], newTimeAndPlace[5], newTimeAndPlace[6], newTimeAndPlace[7],
    22b8:	77 81       	ldd	r23, Z+7	; 0x07
    22ba:	66 81       	ldd	r22, Z+6	; 0x06
    22bc:	55 81       	ldd	r21, Z+5	; 0x05
    22be:	44 81       	ldd	r20, Z+4	; 0x04
void displayDateTimeAndLocation(uint8_t *newTimeAndPlace, char *arrow, uint8_t *step) {
    uint8_t simbol = 0, simbol2 = 0;

    // Display date and time information in the format: t:YYYY-MM-DD HH:MM:SS
    screen_write_formatted_text("t:%d%d%d%d-%d%d-%d%d %d%d:%d%d:%d%d", 0, ALIGN_CENTER,
        newTimeAndPlace[0], newTimeAndPlace[1], newTimeAndPlace[2], newTimeAndPlace[3],
    22c0:	33 81       	ldd	r19, Z+3	; 0x03
    22c2:	22 81       	ldd	r18, Z+2	; 0x02
    22c4:	91 81       	ldd	r25, Z+1	; 0x01
    22c6:	80 81       	ld	r24, Z
 */
void displayDateTimeAndLocation(uint8_t *newTimeAndPlace, char *arrow, uint8_t *step) {
    uint8_t simbol = 0, simbol2 = 0;

    // Display date and time information in the format: t:YYYY-MM-DD HH:MM:SS
    screen_write_formatted_text("t:%d%d%d%d-%d%d-%d%d %d%d:%d%d:%d%d", 0, ALIGN_CENTER,
    22c8:	1f 92       	push	r1
    22ca:	1f 92       	push	r1
    22cc:	1f 92       	push	r1
    22ce:	cf 92       	push	r12
    22d0:	1f 92       	push	r1
    22d2:	df 92       	push	r13
    22d4:	1f 92       	push	r1
    22d6:	bf 93       	push	r27
    22d8:	1f 92       	push	r1
    22da:	af 93       	push	r26
    22dc:	1f 92       	push	r1
    22de:	bf 92       	push	r11
    22e0:	1f 92       	push	r1
    22e2:	af 92       	push	r10
    22e4:	1f 92       	push	r1
    22e6:	7f 93       	push	r23
    22e8:	1f 92       	push	r1
    22ea:	6f 93       	push	r22
    22ec:	1f 92       	push	r1
    22ee:	5f 93       	push	r21
    22f0:	1f 92       	push	r1
    22f2:	4f 93       	push	r20
    22f4:	1f 92       	push	r1
    22f6:	3f 93       	push	r19
    22f8:	1f 92       	push	r1
    22fa:	2f 93       	push	r18
    22fc:	1f 92       	push	r1
    22fe:	9f 93       	push	r25
    2300:	1f 92       	push	r1
    2302:	8f 93       	push	r24
    2304:	dd 24       	eor	r13, r13
    2306:	d3 94       	inc	r13
    2308:	df 92       	push	r13
    230a:	1f 92       	push	r1
    230c:	82 e6       	ldi	r24, 0x62	; 98
    230e:	95 e6       	ldi	r25, 0x65	; 101
    2310:	9f 93       	push	r25
    2312:	8f 93       	push	r24
    2314:	0e 94 18 10 	call	0x2030	; 0x2030 <screen_write_formatted_text>
        newTimeAndPlace[12], newTimeAndPlace[13], 0); //last 0 for hunderts of seconds

    // Display arrows indicating current step for time and date
    screen_write_formatted_text("  %c%c%c%c %c%c %c%c %c%c %c%c %c%c", 1, ALIGN_CENTER,
        arrow[0], arrow[1], arrow[2], arrow[3], arrow[4], arrow[5], arrow[6], arrow[7],
        arrow[8], arrow[9], arrow[10], arrow[11], arrow[12], arrow[13]);
    2318:	bd 84       	ldd	r11, Y+13	; 0x0d
    231a:	cc 84       	ldd	r12, Y+12	; 0x0c
    231c:	bb 85       	ldd	r27, Y+11	; 0x0b
    231e:	aa 85       	ldd	r26, Y+10	; 0x0a
    2320:	f9 85       	ldd	r31, Y+9	; 0x09
    2322:	e8 85       	ldd	r30, Y+8	; 0x08
        newTimeAndPlace[8], newTimeAndPlace[9], newTimeAndPlace[10], newTimeAndPlace[11],
        newTimeAndPlace[12], newTimeAndPlace[13], 0); //last 0 for hunderts of seconds

    // Display arrows indicating current step for time and date
    screen_write_formatted_text("  %c%c%c%c %c%c %c%c %c%c %c%c %c%c", 1, ALIGN_CENTER,
        arrow[0], arrow[1], arrow[2], arrow[3], arrow[4], arrow[5], arrow[6], arrow[7],
    2324:	7f 81       	ldd	r23, Y+7	; 0x07
    2326:	6e 81       	ldd	r22, Y+6	; 0x06
    2328:	5d 81       	ldd	r21, Y+5	; 0x05
    232a:	4c 81       	ldd	r20, Y+4	; 0x04
    232c:	3b 81       	ldd	r19, Y+3	; 0x03
    232e:	2a 81       	ldd	r18, Y+2	; 0x02
    2330:	a9 80       	ldd	r10, Y+1	; 0x01
    2332:	98 80       	ld	r9, Y
        newTimeAndPlace[4], newTimeAndPlace[5], newTimeAndPlace[6], newTimeAndPlace[7],
        newTimeAndPlace[8], newTimeAndPlace[9], newTimeAndPlace[10], newTimeAndPlace[11],
        newTimeAndPlace[12], newTimeAndPlace[13], 0); //last 0 for hunderts of seconds

    // Display arrows indicating current step for time and date
    screen_write_formatted_text("  %c%c%c%c %c%c %c%c %c%c %c%c %c%c", 1, ALIGN_CENTER,
    2334:	8d b7       	in	r24, 0x3d	; 61
    2336:	9e b7       	in	r25, 0x3e	; 62
    2338:	82 96       	adiw	r24, 0x22	; 34
    233a:	8d bf       	out	0x3d, r24	; 61
    233c:	9e bf       	out	0x3e, r25	; 62
    233e:	1f 92       	push	r1
    2340:	bf 92       	push	r11
    2342:	1f 92       	push	r1
    2344:	cf 92       	push	r12
    2346:	1f 92       	push	r1
    2348:	bf 93       	push	r27
    234a:	1f 92       	push	r1
    234c:	af 93       	push	r26
    234e:	1f 92       	push	r1
    2350:	ff 93       	push	r31
    2352:	1f 92       	push	r1
    2354:	ef 93       	push	r30
    2356:	1f 92       	push	r1
    2358:	7f 93       	push	r23
    235a:	1f 92       	push	r1
    235c:	6f 93       	push	r22
    235e:	1f 92       	push	r1
    2360:	5f 93       	push	r21
    2362:	1f 92       	push	r1
    2364:	4f 93       	push	r20
    2366:	1f 92       	push	r1
    2368:	3f 93       	push	r19
    236a:	1f 92       	push	r1
    236c:	2f 93       	push	r18
    236e:	1f 92       	push	r1
    2370:	af 92       	push	r10
    2372:	1f 92       	push	r1
    2374:	9f 92       	push	r9
    2376:	df 92       	push	r13
    2378:	df 92       	push	r13
    237a:	86 e8       	ldi	r24, 0x86	; 134
    237c:	95 e6       	ldi	r25, 0x65	; 101
    237e:	9f 93       	push	r25
    2380:	8f 93       	push	r24
    2382:	0e 94 18 10 	call	0x2030	; 0x2030 <screen_write_formatted_text>
        arrow[0], arrow[1], arrow[2], arrow[3], arrow[4], arrow[5], arrow[6], arrow[7],
        arrow[8], arrow[9], arrow[10], arrow[11], arrow[12], arrow[13]);

    // Timezone sign (positive or negative)
    simbol = (newTimeAndPlace[14] == 0) ? '+' : '-';
    2386:	f7 01       	movw	r30, r14
    2388:	86 85       	ldd	r24, Z+14	; 0x0e
    238a:	2d b7       	in	r18, 0x3d	; 61
    238c:	3e b7       	in	r19, 0x3e	; 62
    238e:	20 5e       	subi	r18, 0xE0	; 224
    2390:	3f 4f       	sbci	r19, 0xFF	; 255
    2392:	2d bf       	out	0x3d, r18	; 61
    2394:	3e bf       	out	0x3e, r19	; 62
    2396:	81 11       	cpse	r24, r1
    2398:	02 c0       	rjmp	.+4      	; 0x239e <displayDateTimeAndLocation+0x110>
    239a:	6b e2       	ldi	r22, 0x2B	; 43
    239c:	01 c0       	rjmp	.+2      	; 0x23a0 <displayDateTimeAndLocation+0x112>
    239e:	6d e2       	ldi	r22, 0x2D	; 45
    simbol2 = (newTimeAndPlace[17] == 0) ? '+' : '-';
    23a0:	f7 01       	movw	r30, r14
    23a2:	81 89       	ldd	r24, Z+17	; 0x11
    23a4:	81 11       	cpse	r24, r1
    23a6:	02 c0       	rjmp	.+4      	; 0x23ac <displayDateTimeAndLocation+0x11e>
    23a8:	7b e2       	ldi	r23, 0x2B	; 43
    23aa:	01 c0       	rjmp	.+2      	; 0x23ae <displayDateTimeAndLocation+0x120>
    23ac:	7d e2       	ldi	r23, 0x2D	; 45

    // Display timezone and altitude information
    // screen_write_formatted_text("l.z: %c%d%d   alt: %c%d%d%d%d", 2, ALIGN_CENTER, simbol, newTimeAndPlace[15], newTimeAndPlace[16], simbol2, newTimeAndPlace[18], newTimeAndPlace[19], newTimeAndPlace[20], newTimeAndPlace[21]); //laiko zona -12:+12 //Lithuanian
    screen_write_formatted_text("t.z: %c%d%d   alt: %c%d%d%d%d", 2, ALIGN_CENTER,
        simbol, newTimeAndPlace[15], newTimeAndPlace[16], simbol2, newTimeAndPlace[18],
        newTimeAndPlace[19], newTimeAndPlace[20], newTimeAndPlace[21]); //English
    23ae:	f7 01       	movw	r30, r14
    23b0:	55 89       	ldd	r21, Z+21	; 0x15
    23b2:	44 89       	ldd	r20, Z+20	; 0x14
    23b4:	33 89       	ldd	r19, Z+19	; 0x13
    simbol2 = (newTimeAndPlace[17] == 0) ? '+' : '-';

    // Display timezone and altitude information
    // screen_write_formatted_text("l.z: %c%d%d   alt: %c%d%d%d%d", 2, ALIGN_CENTER, simbol, newTimeAndPlace[15], newTimeAndPlace[16], simbol2, newTimeAndPlace[18], newTimeAndPlace[19], newTimeAndPlace[20], newTimeAndPlace[21]); //laiko zona -12:+12 //Lithuanian
    screen_write_formatted_text("t.z: %c%d%d   alt: %c%d%d%d%d", 2, ALIGN_CENTER,
        simbol, newTimeAndPlace[15], newTimeAndPlace[16], simbol2, newTimeAndPlace[18],
    23b6:	22 89       	ldd	r18, Z+18	; 0x12
    23b8:	90 89       	ldd	r25, Z+16	; 0x10
    23ba:	87 85       	ldd	r24, Z+15	; 0x0f
    simbol = (newTimeAndPlace[14] == 0) ? '+' : '-';
    simbol2 = (newTimeAndPlace[17] == 0) ? '+' : '-';

    // Display timezone and altitude information
    // screen_write_formatted_text("l.z: %c%d%d   alt: %c%d%d%d%d", 2, ALIGN_CENTER, simbol, newTimeAndPlace[15], newTimeAndPlace[16], simbol2, newTimeAndPlace[18], newTimeAndPlace[19], newTimeAndPlace[20], newTimeAndPlace[21]); //laiko zona -12:+12 //Lithuanian
    screen_write_formatted_text("t.z: %c%d%d   alt: %c%d%d%d%d", 2, ALIGN_CENTER,
    23bc:	1f 92       	push	r1
    23be:	5f 93       	push	r21
    23c0:	1f 92       	push	r1
    23c2:	4f 93       	push	r20
    23c4:	1f 92       	push	r1
    23c6:	3f 93       	push	r19
    23c8:	1f 92       	push	r1
    23ca:	2f 93       	push	r18
    23cc:	1f 92       	push	r1
    23ce:	7f 93       	push	r23
    23d0:	1f 92       	push	r1
    23d2:	9f 93       	push	r25
    23d4:	1f 92       	push	r1
    23d6:	8f 93       	push	r24
    23d8:	1f 92       	push	r1
    23da:	6f 93       	push	r22
    23dc:	dd 24       	eor	r13, r13
    23de:	d3 94       	inc	r13
    23e0:	df 92       	push	r13
    23e2:	82 e0       	ldi	r24, 0x02	; 2
    23e4:	8f 93       	push	r24
    23e6:	8a ea       	ldi	r24, 0xAA	; 170
    23e8:	95 e6       	ldi	r25, 0x65	; 101
    23ea:	9f 93       	push	r25
    23ec:	8f 93       	push	r24
    23ee:	0e 94 18 10 	call	0x2030	; 0x2030 <screen_write_formatted_text>
        simbol, newTimeAndPlace[15], newTimeAndPlace[16], simbol2, newTimeAndPlace[18],
        newTimeAndPlace[19], newTimeAndPlace[20], newTimeAndPlace[21]); //English

    // Display arrows for timezone and altitude
    screen_write_formatted_text("     %c%c%c        %c%c%c%c%c", 3, ALIGN_CENTER,
        arrow[14], arrow[15], arrow[16], arrow[17], arrow[18], arrow[19], arrow[20], arrow[21]);
    23f2:	7d 89       	ldd	r23, Y+21	; 0x15
    23f4:	6c 89       	ldd	r22, Y+20	; 0x14
    23f6:	5b 89       	ldd	r21, Y+19	; 0x13
    23f8:	4a 89       	ldd	r20, Y+18	; 0x12
    23fa:	39 89       	ldd	r19, Y+17	; 0x11
    23fc:	28 89       	ldd	r18, Y+16	; 0x10
    23fe:	9f 85       	ldd	r25, Y+15	; 0x0f
    2400:	8e 85       	ldd	r24, Y+14	; 0x0e
    screen_write_formatted_text("t.z: %c%d%d   alt: %c%d%d%d%d", 2, ALIGN_CENTER,
        simbol, newTimeAndPlace[15], newTimeAndPlace[16], simbol2, newTimeAndPlace[18],
        newTimeAndPlace[19], newTimeAndPlace[20], newTimeAndPlace[21]); //English

    // Display arrows for timezone and altitude
    screen_write_formatted_text("     %c%c%c        %c%c%c%c%c", 3, ALIGN_CENTER,
    2402:	1f 92       	push	r1
    2404:	7f 93       	push	r23
    2406:	1f 92       	push	r1
    2408:	6f 93       	push	r22
    240a:	1f 92       	push	r1
    240c:	5f 93       	push	r21
    240e:	1f 92       	push	r1
    2410:	4f 93       	push	r20
    2412:	1f 92       	push	r1
    2414:	3f 93       	push	r19
    2416:	1f 92       	push	r1
    2418:	2f 93       	push	r18
    241a:	1f 92       	push	r1
    241c:	9f 93       	push	r25
    241e:	1f 92       	push	r1
    2420:	8f 93       	push	r24
    2422:	df 92       	push	r13
    2424:	83 e0       	ldi	r24, 0x03	; 3
    2426:	8f 93       	push	r24
    2428:	88 ec       	ldi	r24, 0xC8	; 200
    242a:	95 e6       	ldi	r25, 0x65	; 101
    242c:	9f 93       	push	r25
    242e:	8f 93       	push	r24
    2430:	0e 94 18 10 	call	0x2030	; 0x2030 <screen_write_formatted_text>
        arrow[14], arrow[15], arrow[16], arrow[17], arrow[18], arrow[19], arrow[20], arrow[21]);

    // Latitude information with symbol (positive or negative)
    simbol = (newTimeAndPlace[22] == 0) ? '+' : '-';
    2434:	f7 01       	movw	r30, r14
    2436:	86 89       	ldd	r24, Z+22	; 0x16
    2438:	2d b7       	in	r18, 0x3d	; 61
    243a:	3e b7       	in	r19, 0x3e	; 62
    243c:	28 5d       	subi	r18, 0xD8	; 216
    243e:	3f 4f       	sbci	r19, 0xFF	; 255
    2440:	2d bf       	out	0x3d, r18	; 61
    2442:	3e bf       	out	0x3e, r19	; 62
    2444:	81 11       	cpse	r24, r1
    2446:	02 c0       	rjmp	.+4      	; 0x244c <displayDateTimeAndLocation+0x1be>
    2448:	6b e2       	ldi	r22, 0x2B	; 43
    244a:	01 c0       	rjmp	.+2      	; 0x244e <displayDateTimeAndLocation+0x1c0>
    244c:	6d e2       	ldi	r22, 0x2D	; 45
    screen_write_formatted_text("lat:        %c%d%d.%d%d%d%d", 4, ALIGN_RIGHT,
        simbol, newTimeAndPlace[23], newTimeAndPlace[24], newTimeAndPlace[25],
        newTimeAndPlace[26], newTimeAndPlace[27], newTimeAndPlace[28]);
    244e:	f7 01       	movw	r30, r14
    2450:	54 8d       	ldd	r21, Z+28	; 0x1c
    2452:	43 8d       	ldd	r20, Z+27	; 0x1b
    2454:	32 8d       	ldd	r19, Z+26	; 0x1a
        arrow[14], arrow[15], arrow[16], arrow[17], arrow[18], arrow[19], arrow[20], arrow[21]);

    // Latitude information with symbol (positive or negative)
    simbol = (newTimeAndPlace[22] == 0) ? '+' : '-';
    screen_write_formatted_text("lat:        %c%d%d.%d%d%d%d", 4, ALIGN_RIGHT,
        simbol, newTimeAndPlace[23], newTimeAndPlace[24], newTimeAndPlace[25],
    2456:	21 8d       	ldd	r18, Z+25	; 0x19
    2458:	90 8d       	ldd	r25, Z+24	; 0x18
    245a:	87 89       	ldd	r24, Z+23	; 0x17
    screen_write_formatted_text("     %c%c%c        %c%c%c%c%c", 3, ALIGN_CENTER,
        arrow[14], arrow[15], arrow[16], arrow[17], arrow[18], arrow[19], arrow[20], arrow[21]);

    // Latitude information with symbol (positive or negative)
    simbol = (newTimeAndPlace[22] == 0) ? '+' : '-';
    screen_write_formatted_text("lat:        %c%d%d.%d%d%d%d", 4, ALIGN_RIGHT,
    245c:	1f 92       	push	r1
    245e:	5f 93       	push	r21
    2460:	1f 92       	push	r1
    2462:	4f 93       	push	r20
    2464:	1f 92       	push	r1
    2466:	3f 93       	push	r19
    2468:	1f 92       	push	r1
    246a:	2f 93       	push	r18
    246c:	1f 92       	push	r1
    246e:	9f 93       	push	r25
    2470:	1f 92       	push	r1
    2472:	8f 93       	push	r24
    2474:	1f 92       	push	r1
    2476:	6f 93       	push	r22
    2478:	68 94       	set
    247a:	dd 24       	eor	r13, r13
    247c:	d1 f8       	bld	r13, 1
    247e:	df 92       	push	r13
    2480:	84 e0       	ldi	r24, 0x04	; 4
    2482:	8f 93       	push	r24
    2484:	86 ee       	ldi	r24, 0xE6	; 230
    2486:	95 e6       	ldi	r25, 0x65	; 101
    2488:	9f 93       	push	r25
    248a:	8f 93       	push	r24
    248c:	0e 94 18 10 	call	0x2030	; 0x2030 <screen_write_formatted_text>
        simbol, newTimeAndPlace[23], newTimeAndPlace[24], newTimeAndPlace[25],
        newTimeAndPlace[26], newTimeAndPlace[27], newTimeAndPlace[28]);

    // Display arrows for latitude
    screen_write_formatted_text("%c%c%c %c%c%c%c ", 5, ALIGN_RIGHT,
        arrow[22], arrow[23], arrow[24], arrow[25], arrow[26], arrow[27], arrow[28]);
    2490:	6c 8d       	ldd	r22, Y+28	; 0x1c
    2492:	5b 8d       	ldd	r21, Y+27	; 0x1b
    2494:	4a 8d       	ldd	r20, Y+26	; 0x1a
    2496:	39 8d       	ldd	r19, Y+25	; 0x19
    2498:	28 8d       	ldd	r18, Y+24	; 0x18
    249a:	9f 89       	ldd	r25, Y+23	; 0x17
    249c:	8e 89       	ldd	r24, Y+22	; 0x16
    screen_write_formatted_text("lat:        %c%d%d.%d%d%d%d", 4, ALIGN_RIGHT,
        simbol, newTimeAndPlace[23], newTimeAndPlace[24], newTimeAndPlace[25],
        newTimeAndPlace[26], newTimeAndPlace[27], newTimeAndPlace[28]);

    // Display arrows for latitude
    screen_write_formatted_text("%c%c%c %c%c%c%c ", 5, ALIGN_RIGHT,
    249e:	1f 92       	push	r1
    24a0:	6f 93       	push	r22
    24a2:	1f 92       	push	r1
    24a4:	5f 93       	push	r21
    24a6:	1f 92       	push	r1
    24a8:	4f 93       	push	r20
    24aa:	1f 92       	push	r1
    24ac:	3f 93       	push	r19
    24ae:	1f 92       	push	r1
    24b0:	2f 93       	push	r18
    24b2:	1f 92       	push	r1
    24b4:	9f 93       	push	r25
    24b6:	1f 92       	push	r1
    24b8:	8f 93       	push	r24
    24ba:	df 92       	push	r13
    24bc:	85 e0       	ldi	r24, 0x05	; 5
    24be:	8f 93       	push	r24
    24c0:	83 e2       	ldi	r24, 0x23	; 35
    24c2:	96 e6       	ldi	r25, 0x66	; 102
    24c4:	9f 93       	push	r25
    24c6:	8f 93       	push	r24
    24c8:	0e 94 18 10 	call	0x2030	; 0x2030 <screen_write_formatted_text>
        arrow[22], arrow[23], arrow[24], arrow[25], arrow[26], arrow[27], arrow[28]);

    // Longitude information with symbol (positive or negative)
    simbol = (newTimeAndPlace[29] == 0) ? '+' : '-';
    24cc:	f7 01       	movw	r30, r14
    24ce:	85 8d       	ldd	r24, Z+29	; 0x1d
    24d0:	2d b7       	in	r18, 0x3d	; 61
    24d2:	3e b7       	in	r19, 0x3e	; 62
    24d4:	2c 5d       	subi	r18, 0xDC	; 220
    24d6:	3f 4f       	sbci	r19, 0xFF	; 255
    24d8:	2d bf       	out	0x3d, r18	; 61
    24da:	3e bf       	out	0x3e, r19	; 62
    24dc:	81 11       	cpse	r24, r1
    24de:	02 c0       	rjmp	.+4      	; 0x24e4 <displayDateTimeAndLocation+0x256>
    24e0:	7b e2       	ldi	r23, 0x2B	; 43
    24e2:	01 c0       	rjmp	.+2      	; 0x24e6 <displayDateTimeAndLocation+0x258>
    24e4:	7d e2       	ldi	r23, 0x2D	; 45
    screen_write_formatted_text("lng:       %c%d%d%d.%d%d%d%d", 6, ALIGN_RIGHT,
        simbol, newTimeAndPlace[30], newTimeAndPlace[31], newTimeAndPlace[32], newTimeAndPlace[33],
        newTimeAndPlace[34], newTimeAndPlace[35], newTimeAndPlace[36]);
    24e6:	f7 01       	movw	r30, r14
    24e8:	64 a1       	ldd	r22, Z+36	; 0x24
    24ea:	53 a1       	ldd	r21, Z+35	; 0x23
    24ec:	42 a1       	ldd	r20, Z+34	; 0x22
        arrow[22], arrow[23], arrow[24], arrow[25], arrow[26], arrow[27], arrow[28]);

    // Longitude information with symbol (positive or negative)
    simbol = (newTimeAndPlace[29] == 0) ? '+' : '-';
    screen_write_formatted_text("lng:       %c%d%d%d.%d%d%d%d", 6, ALIGN_RIGHT,
        simbol, newTimeAndPlace[30], newTimeAndPlace[31], newTimeAndPlace[32], newTimeAndPlace[33],
    24ee:	31 a1       	ldd	r19, Z+33	; 0x21
    24f0:	20 a1       	ldd	r18, Z+32	; 0x20
    24f2:	97 8d       	ldd	r25, Z+31	; 0x1f
    24f4:	86 8d       	ldd	r24, Z+30	; 0x1e
    screen_write_formatted_text("%c%c%c %c%c%c%c ", 5, ALIGN_RIGHT,
        arrow[22], arrow[23], arrow[24], arrow[25], arrow[26], arrow[27], arrow[28]);

    // Longitude information with symbol (positive or negative)
    simbol = (newTimeAndPlace[29] == 0) ? '+' : '-';
    screen_write_formatted_text("lng:       %c%d%d%d.%d%d%d%d", 6, ALIGN_RIGHT,
    24f6:	1f 92       	push	r1
    24f8:	6f 93       	push	r22
    24fa:	1f 92       	push	r1
    24fc:	5f 93       	push	r21
    24fe:	1f 92       	push	r1
    2500:	4f 93       	push	r20
    2502:	1f 92       	push	r1
    2504:	3f 93       	push	r19
    2506:	1f 92       	push	r1
    2508:	2f 93       	push	r18
    250a:	1f 92       	push	r1
    250c:	9f 93       	push	r25
    250e:	1f 92       	push	r1
    2510:	8f 93       	push	r24
    2512:	1f 92       	push	r1
    2514:	7f 93       	push	r23
    2516:	68 94       	set
    2518:	ff 24       	eor	r15, r15
    251a:	f1 f8       	bld	r15, 1
    251c:	ff 92       	push	r15
    251e:	86 e0       	ldi	r24, 0x06	; 6
    2520:	8f 93       	push	r24
    2522:	83 e0       	ldi	r24, 0x03	; 3
    2524:	96 e6       	ldi	r25, 0x66	; 102
    2526:	9f 93       	push	r25
    2528:	8f 93       	push	r24
    252a:	0e 94 18 10 	call	0x2030	; 0x2030 <screen_write_formatted_text>
        simbol, newTimeAndPlace[30], newTimeAndPlace[31], newTimeAndPlace[32], newTimeAndPlace[33],
        newTimeAndPlace[34], newTimeAndPlace[35], newTimeAndPlace[36]);

    // Display arrows for longitude
    screen_write_formatted_text("%c%c%c%c %c%c%c%c ", 7, ALIGN_RIGHT,
       arrow[29], arrow[30], arrow[31], arrow[32], arrow[33], arrow[34], arrow[35], arrow[36]);
    252e:	7c a1       	ldd	r23, Y+36	; 0x24
    2530:	6b a1       	ldd	r22, Y+35	; 0x23
    2532:	5a a1       	ldd	r21, Y+34	; 0x22
    2534:	49 a1       	ldd	r20, Y+33	; 0x21
    2536:	38 a1       	ldd	r19, Y+32	; 0x20
    2538:	2f 8d       	ldd	r18, Y+31	; 0x1f
    253a:	9e 8d       	ldd	r25, Y+30	; 0x1e
    253c:	8d 8d       	ldd	r24, Y+29	; 0x1d
    screen_write_formatted_text("lng:       %c%d%d%d.%d%d%d%d", 6, ALIGN_RIGHT,
        simbol, newTimeAndPlace[30], newTimeAndPlace[31], newTimeAndPlace[32], newTimeAndPlace[33],
        newTimeAndPlace[34], newTimeAndPlace[35], newTimeAndPlace[36]);

    // Display arrows for longitude
    screen_write_formatted_text("%c%c%c%c %c%c%c%c ", 7, ALIGN_RIGHT,
    253e:	1f 92       	push	r1
    2540:	7f 93       	push	r23
    2542:	1f 92       	push	r1
    2544:	6f 93       	push	r22
    2546:	1f 92       	push	r1
    2548:	5f 93       	push	r21
    254a:	1f 92       	push	r1
    254c:	4f 93       	push	r20
    254e:	1f 92       	push	r1
    2550:	3f 93       	push	r19
    2552:	1f 92       	push	r1
    2554:	2f 93       	push	r18
    2556:	1f 92       	push	r1
    2558:	9f 93       	push	r25
    255a:	1f 92       	push	r1
    255c:	8f 93       	push	r24
    255e:	ff 92       	push	r15
    2560:	87 e0       	ldi	r24, 0x07	; 7
    2562:	8f 93       	push	r24
    2564:	81 e2       	ldi	r24, 0x21	; 33
    2566:	96 e6       	ldi	r25, 0x66	; 102
    2568:	9f 93       	push	r25
    256a:	8f 93       	push	r24
    256c:	0e 94 18 10 	call	0x2030	; 0x2030 <screen_write_formatted_text>
       arrow[29], arrow[30], arrow[31], arrow[32], arrow[33], arrow[34], arrow[35], arrow[36]);

    // Update arrow visualization for selected digit
    for (uint8_t i = 0; i < 38; i++) {
    2570:	2d b7       	in	r18, 0x3d	; 61
    2572:	3e b7       	in	r19, 0x3e	; 62
    2574:	28 5d       	subi	r18, 0xD8	; 216
    2576:	3f 4f       	sbci	r19, 0xFF	; 255
    2578:	2d bf       	out	0x3d, r18	; 61
    257a:	3e bf       	out	0x3e, r19	; 62
    257c:	80 e0       	ldi	r24, 0x00	; 0
    257e:	1a c0       	rjmp	.+52     	; 0x25b4 <displayDateTimeAndLocation+0x326>
        if (i == *step) {
    2580:	f8 01       	movw	r30, r16
    2582:	90 81       	ld	r25, Z
    2584:	89 13       	cpse	r24, r25
    2586:	10 c0       	rjmp	.+32     	; 0x25a8 <displayDateTimeAndLocation+0x31a>
            if (i < 37)
    2588:	85 32       	cpi	r24, 0x25	; 37
    258a:	30 f4       	brcc	.+12     	; 0x2598 <displayDateTimeAndLocation+0x30a>
                arrow[i] = '^';
    258c:	9e e5       	ldi	r25, 0x5E	; 94
    258e:	fe 01       	movw	r30, r28
    2590:	e8 0f       	add	r30, r24
    2592:	f1 1d       	adc	r31, r1
    2594:	90 83       	st	Z, r25
    2596:	0d c0       	rjmp	.+26     	; 0x25b2 <displayDateTimeAndLocation+0x324>
            else
                arrow[i - 1] = 's';
    2598:	e8 2f       	mov	r30, r24
    259a:	f0 e0       	ldi	r31, 0x00	; 0
    259c:	31 97       	sbiw	r30, 0x01	; 1
    259e:	ec 0f       	add	r30, r28
    25a0:	fd 1f       	adc	r31, r29
    25a2:	93 e7       	ldi	r25, 0x73	; 115
    25a4:	90 83       	st	Z, r25
    25a6:	05 c0       	rjmp	.+10     	; 0x25b2 <displayDateTimeAndLocation+0x324>
        }
        else
            arrow[i] = ' ';
    25a8:	90 e2       	ldi	r25, 0x20	; 32
    25aa:	fe 01       	movw	r30, r28
    25ac:	e8 0f       	add	r30, r24
    25ae:	f1 1d       	adc	r31, r1
    25b0:	90 83       	st	Z, r25
    // Display arrows for longitude
    screen_write_formatted_text("%c%c%c%c %c%c%c%c ", 7, ALIGN_RIGHT,
       arrow[29], arrow[30], arrow[31], arrow[32], arrow[33], arrow[34], arrow[35], arrow[36]);

    // Update arrow visualization for selected digit
    for (uint8_t i = 0; i < 38; i++) {
    25b2:	8f 5f       	subi	r24, 0xFF	; 255
    25b4:	86 32       	cpi	r24, 0x26	; 38
    25b6:	20 f3       	brcs	.-56     	; 0x2580 <displayDateTimeAndLocation+0x2f2>
                arrow[i - 1] = 's';
        }
        else
            arrow[i] = ' ';
    }
}
    25b8:	df 91       	pop	r29
    25ba:	cf 91       	pop	r28
    25bc:	1f 91       	pop	r17
    25be:	0f 91       	pop	r16
    25c0:	ff 90       	pop	r15
    25c2:	ef 90       	pop	r14
    25c4:	df 90       	pop	r13
    25c6:	cf 90       	pop	r12
    25c8:	bf 90       	pop	r11
    25ca:	af 90       	pop	r10
    25cc:	9f 90       	pop	r9
    25ce:	08 95       	ret

000025d0 <extractDigitFromTime>:
 * 
 * @param step The index of the digit to extract from the time data.
 * @return The extracted digit.
 */
uint8_t extractDigitFromTime(uint8_t step) {
    switch (step) {
    25d0:	90 e0       	ldi	r25, 0x00	; 0
    25d2:	8e 30       	cpi	r24, 0x0E	; 14
    25d4:	91 05       	cpc	r25, r1
    25d6:	08 f0       	brcs	.+2      	; 0x25da <extractDigitFromTime+0xa>
    25d8:	ab c0       	rjmp	.+342    	; 0x2730 <extractDigitFromTime+0x160>
    25da:	fc 01       	movw	r30, r24
    25dc:	e1 5b       	subi	r30, 0xB1	; 177
    25de:	ff 4f       	sbci	r31, 0xFF	; 255
    25e0:	0c 94 7d 24 	jmp	0x48fa	; 0x48fa <__tablejump2__>
        case 0: return (Date_Clock.year / 1000) % 10;
    25e4:	80 91 47 60 	lds	r24, 0x6047	; 0x806047 <Date_Clock>
    25e8:	90 91 48 60 	lds	r25, 0x6048	; 0x806048 <Date_Clock+0x1>
    25ec:	68 ee       	ldi	r22, 0xE8	; 232
    25ee:	73 e0       	ldi	r23, 0x03	; 3
    25f0:	0e 94 47 24 	call	0x488e	; 0x488e <__divmodhi4>
    25f4:	cb 01       	movw	r24, r22
    25f6:	6a e0       	ldi	r22, 0x0A	; 10
    25f8:	70 e0       	ldi	r23, 0x00	; 0
    25fa:	0e 94 47 24 	call	0x488e	; 0x488e <__divmodhi4>
    25fe:	08 95       	ret
        case 1: return (Date_Clock.year / 100) % 10;
    2600:	80 91 47 60 	lds	r24, 0x6047	; 0x806047 <Date_Clock>
    2604:	90 91 48 60 	lds	r25, 0x6048	; 0x806048 <Date_Clock+0x1>
    2608:	64 e6       	ldi	r22, 0x64	; 100
    260a:	70 e0       	ldi	r23, 0x00	; 0
    260c:	0e 94 47 24 	call	0x488e	; 0x488e <__divmodhi4>
    2610:	cb 01       	movw	r24, r22
    2612:	6a e0       	ldi	r22, 0x0A	; 10
    2614:	70 e0       	ldi	r23, 0x00	; 0
    2616:	0e 94 47 24 	call	0x488e	; 0x488e <__divmodhi4>
    261a:	08 95       	ret
        case 2: return (Date_Clock.year / 10) % 10;
    261c:	80 91 47 60 	lds	r24, 0x6047	; 0x806047 <Date_Clock>
    2620:	90 91 48 60 	lds	r25, 0x6048	; 0x806048 <Date_Clock+0x1>
    2624:	2a e0       	ldi	r18, 0x0A	; 10
    2626:	30 e0       	ldi	r19, 0x00	; 0
    2628:	b9 01       	movw	r22, r18
    262a:	0e 94 47 24 	call	0x488e	; 0x488e <__divmodhi4>
    262e:	cb 01       	movw	r24, r22
    2630:	b9 01       	movw	r22, r18
    2632:	0e 94 47 24 	call	0x488e	; 0x488e <__divmodhi4>
    2636:	08 95       	ret
        case 3: return Date_Clock.year % 10;
    2638:	80 91 47 60 	lds	r24, 0x6047	; 0x806047 <Date_Clock>
    263c:	90 91 48 60 	lds	r25, 0x6048	; 0x806048 <Date_Clock+0x1>
    2640:	6a e0       	ldi	r22, 0x0A	; 10
    2642:	70 e0       	ldi	r23, 0x00	; 0
    2644:	0e 94 47 24 	call	0x488e	; 0x488e <__divmodhi4>
    2648:	08 95       	ret
        case 4: return (Date_Clock.month / 10) % 10;
    264a:	80 91 49 60 	lds	r24, 0x6049	; 0x806049 <Date_Clock+0x2>
    264e:	90 91 4a 60 	lds	r25, 0x604A	; 0x80604a <Date_Clock+0x3>
    2652:	2a e0       	ldi	r18, 0x0A	; 10
    2654:	30 e0       	ldi	r19, 0x00	; 0
    2656:	b9 01       	movw	r22, r18
    2658:	0e 94 47 24 	call	0x488e	; 0x488e <__divmodhi4>
    265c:	cb 01       	movw	r24, r22
    265e:	b9 01       	movw	r22, r18
    2660:	0e 94 47 24 	call	0x488e	; 0x488e <__divmodhi4>
    2664:	08 95       	ret
        case 5: return Date_Clock.month % 10;
    2666:	80 91 49 60 	lds	r24, 0x6049	; 0x806049 <Date_Clock+0x2>
    266a:	90 91 4a 60 	lds	r25, 0x604A	; 0x80604a <Date_Clock+0x3>
    266e:	6a e0       	ldi	r22, 0x0A	; 10
    2670:	70 e0       	ldi	r23, 0x00	; 0
    2672:	0e 94 47 24 	call	0x488e	; 0x488e <__divmodhi4>
    2676:	08 95       	ret
        case 6: return (Date_Clock.day / 10) % 10;
    2678:	80 91 4b 60 	lds	r24, 0x604B	; 0x80604b <Date_Clock+0x4>
    267c:	90 91 4c 60 	lds	r25, 0x604C	; 0x80604c <Date_Clock+0x5>
    2680:	2a e0       	ldi	r18, 0x0A	; 10
    2682:	30 e0       	ldi	r19, 0x00	; 0
    2684:	b9 01       	movw	r22, r18
    2686:	0e 94 47 24 	call	0x488e	; 0x488e <__divmodhi4>
    268a:	cb 01       	movw	r24, r22
    268c:	b9 01       	movw	r22, r18
    268e:	0e 94 47 24 	call	0x488e	; 0x488e <__divmodhi4>
    2692:	08 95       	ret
        case 7: return Date_Clock.day % 10;
    2694:	80 91 4b 60 	lds	r24, 0x604B	; 0x80604b <Date_Clock+0x4>
    2698:	90 91 4c 60 	lds	r25, 0x604C	; 0x80604c <Date_Clock+0x5>
    269c:	6a e0       	ldi	r22, 0x0A	; 10
    269e:	70 e0       	ldi	r23, 0x00	; 0
    26a0:	0e 94 47 24 	call	0x488e	; 0x488e <__divmodhi4>
    26a4:	08 95       	ret
        case 8: return (Date_Clock.hour / 10) % 10;
    26a6:	80 91 4d 60 	lds	r24, 0x604D	; 0x80604d <Date_Clock+0x6>
    26aa:	90 91 4e 60 	lds	r25, 0x604E	; 0x80604e <Date_Clock+0x7>
    26ae:	2a e0       	ldi	r18, 0x0A	; 10
    26b0:	30 e0       	ldi	r19, 0x00	; 0
    26b2:	b9 01       	movw	r22, r18
    26b4:	0e 94 47 24 	call	0x488e	; 0x488e <__divmodhi4>
    26b8:	cb 01       	movw	r24, r22
    26ba:	b9 01       	movw	r22, r18
    26bc:	0e 94 47 24 	call	0x488e	; 0x488e <__divmodhi4>
    26c0:	08 95       	ret
        case 9: return Date_Clock.hour % 10;
    26c2:	80 91 4d 60 	lds	r24, 0x604D	; 0x80604d <Date_Clock+0x6>
    26c6:	90 91 4e 60 	lds	r25, 0x604E	; 0x80604e <Date_Clock+0x7>
    26ca:	6a e0       	ldi	r22, 0x0A	; 10
    26cc:	70 e0       	ldi	r23, 0x00	; 0
    26ce:	0e 94 47 24 	call	0x488e	; 0x488e <__divmodhi4>
    26d2:	08 95       	ret
        case 10: return (Date_Clock.minute / 10) % 10;
    26d4:	80 91 4f 60 	lds	r24, 0x604F	; 0x80604f <Date_Clock+0x8>
    26d8:	90 91 50 60 	lds	r25, 0x6050	; 0x806050 <Date_Clock+0x9>
    26dc:	2a e0       	ldi	r18, 0x0A	; 10
    26de:	30 e0       	ldi	r19, 0x00	; 0
    26e0:	b9 01       	movw	r22, r18
    26e2:	0e 94 47 24 	call	0x488e	; 0x488e <__divmodhi4>
    26e6:	cb 01       	movw	r24, r22
    26e8:	b9 01       	movw	r22, r18
    26ea:	0e 94 47 24 	call	0x488e	; 0x488e <__divmodhi4>
    26ee:	08 95       	ret
        case 11: return Date_Clock.minute % 10;
    26f0:	80 91 4f 60 	lds	r24, 0x604F	; 0x80604f <Date_Clock+0x8>
    26f4:	90 91 50 60 	lds	r25, 0x6050	; 0x806050 <Date_Clock+0x9>
    26f8:	6a e0       	ldi	r22, 0x0A	; 10
    26fa:	70 e0       	ldi	r23, 0x00	; 0
    26fc:	0e 94 47 24 	call	0x488e	; 0x488e <__divmodhi4>
    2700:	08 95       	ret
        case 12: return (Date_Clock.second / 10) % 10;
    2702:	80 91 51 60 	lds	r24, 0x6051	; 0x806051 <Date_Clock+0xa>
    2706:	90 91 52 60 	lds	r25, 0x6052	; 0x806052 <Date_Clock+0xb>
    270a:	2a e0       	ldi	r18, 0x0A	; 10
    270c:	30 e0       	ldi	r19, 0x00	; 0
    270e:	b9 01       	movw	r22, r18
    2710:	0e 94 47 24 	call	0x488e	; 0x488e <__divmodhi4>
    2714:	cb 01       	movw	r24, r22
    2716:	b9 01       	movw	r22, r18
    2718:	0e 94 47 24 	call	0x488e	; 0x488e <__divmodhi4>
    271c:	08 95       	ret
        case 13: return Date_Clock.second % 10;
    271e:	80 91 51 60 	lds	r24, 0x6051	; 0x806051 <Date_Clock+0xa>
    2722:	90 91 52 60 	lds	r25, 0x6052	; 0x806052 <Date_Clock+0xb>
    2726:	6a e0       	ldi	r22, 0x0A	; 10
    2728:	70 e0       	ldi	r23, 0x00	; 0
    272a:	0e 94 47 24 	call	0x488e	; 0x488e <__divmodhi4>
    272e:	08 95       	ret
        default: return 0;
    2730:	80 e0       	ldi	r24, 0x00	; 0
    }
}
    2732:	08 95       	ret

00002734 <extractDigitFromTimeZone>:
 * 
 * @param step The index of the digit to extract from the timezone data.
 * @return The extracted digit.
 */
uint8_t extractDigitFromTimeZone(uint8_t step) {
    switch (step) {
    2734:	81 30       	cpi	r24, 0x01	; 1
    2736:	51 f0       	breq	.+20     	; 0x274c <extractDigitFromTimeZone+0x18>
    2738:	18 f0       	brcs	.+6      	; 0x2740 <extractDigitFromTimeZone+0xc>
    273a:	82 30       	cpi	r24, 0x02	; 2
    273c:	d1 f0       	breq	.+52     	; 0x2772 <extractDigitFromTimeZone+0x3e>
    273e:	27 c0       	rjmp	.+78     	; 0x278e <extractDigitFromTimeZone+0x5a>
        case 0: return (Date_Clock.timezone < 0) ? 1: 0;
    2740:	80 91 5e 60 	lds	r24, 0x605E	; 0x80605e <Date_Clock+0x17>
    2744:	88 1f       	adc	r24, r24
    2746:	88 27       	eor	r24, r24
    2748:	88 1f       	adc	r24, r24
    274a:	08 95       	ret
        case 1: return (abs(Date_Clock.timezone) / 10) % 10;
    274c:	80 91 5d 60 	lds	r24, 0x605D	; 0x80605d <Date_Clock+0x16>
    2750:	90 91 5e 60 	lds	r25, 0x605E	; 0x80605e <Date_Clock+0x17>
    2754:	99 23       	and	r25, r25
    2756:	1c f4       	brge	.+6      	; 0x275e <extractDigitFromTimeZone+0x2a>
    2758:	91 95       	neg	r25
    275a:	81 95       	neg	r24
    275c:	91 09       	sbc	r25, r1
    275e:	2a e0       	ldi	r18, 0x0A	; 10
    2760:	30 e0       	ldi	r19, 0x00	; 0
    2762:	b9 01       	movw	r22, r18
    2764:	0e 94 47 24 	call	0x488e	; 0x488e <__divmodhi4>
    2768:	cb 01       	movw	r24, r22
    276a:	b9 01       	movw	r22, r18
    276c:	0e 94 47 24 	call	0x488e	; 0x488e <__divmodhi4>
    2770:	08 95       	ret
        case 2: return abs(Date_Clock.timezone) % 10;
    2772:	80 91 5d 60 	lds	r24, 0x605D	; 0x80605d <Date_Clock+0x16>
    2776:	90 91 5e 60 	lds	r25, 0x605E	; 0x80605e <Date_Clock+0x17>
    277a:	99 23       	and	r25, r25
    277c:	1c f4       	brge	.+6      	; 0x2784 <extractDigitFromTimeZone+0x50>
    277e:	91 95       	neg	r25
    2780:	81 95       	neg	r24
    2782:	91 09       	sbc	r25, r1
    2784:	6a e0       	ldi	r22, 0x0A	; 10
    2786:	70 e0       	ldi	r23, 0x00	; 0
    2788:	0e 94 47 24 	call	0x488e	; 0x488e <__divmodhi4>
    278c:	08 95       	ret
        default: return 0;
    278e:	80 e0       	ldi	r24, 0x00	; 0
    }
}
    2790:	08 95       	ret

00002792 <extractDigitFromAltitude>:
 * 
 * @param step The index of the digit to extract from the altitude data.
 * @return The extracted digit.
 */
uint8_t extractDigitFromAltitude(uint8_t step) {
    switch (step) {
    2792:	82 30       	cpi	r24, 0x02	; 2
    2794:	29 f1       	breq	.+74     	; 0x27e0 <extractDigitFromAltitude+0x4e>
    2796:	28 f4       	brcc	.+10     	; 0x27a2 <extractDigitFromAltitude+0x10>
    2798:	88 23       	and	r24, r24
    279a:	49 f0       	breq	.+18     	; 0x27ae <extractDigitFromAltitude+0x1c>
    279c:	81 30       	cpi	r24, 0x01	; 1
    279e:	69 f0       	breq	.+26     	; 0x27ba <extractDigitFromAltitude+0x28>
    27a0:	53 c0       	rjmp	.+166    	; 0x2848 <extractDigitFromAltitude+0xb6>
    27a2:	83 30       	cpi	r24, 0x03	; 3
    27a4:	81 f1       	breq	.+96     	; 0x2806 <extractDigitFromAltitude+0x74>
    27a6:	84 30       	cpi	r24, 0x04	; 4
    27a8:	09 f4       	brne	.+2      	; 0x27ac <extractDigitFromAltitude+0x1a>
    27aa:	40 c0       	rjmp	.+128    	; 0x282c <extractDigitFromAltitude+0x9a>
    27ac:	4d c0       	rjmp	.+154    	; 0x2848 <extractDigitFromAltitude+0xb6>
        case 0: return (Date_Clock.altitude < 0) ? 1 : 0;
    27ae:	80 91 60 60 	lds	r24, 0x6060	; 0x806060 <Date_Clock+0x19>
    27b2:	88 1f       	adc	r24, r24
    27b4:	88 27       	eor	r24, r24
    27b6:	88 1f       	adc	r24, r24
    27b8:	08 95       	ret
        case 1: return (abs(Date_Clock.altitude) / 1000) % 10;
    27ba:	80 91 5f 60 	lds	r24, 0x605F	; 0x80605f <Date_Clock+0x18>
    27be:	90 91 60 60 	lds	r25, 0x6060	; 0x806060 <Date_Clock+0x19>
    27c2:	99 23       	and	r25, r25
    27c4:	1c f4       	brge	.+6      	; 0x27cc <extractDigitFromAltitude+0x3a>
    27c6:	91 95       	neg	r25
    27c8:	81 95       	neg	r24
    27ca:	91 09       	sbc	r25, r1
    27cc:	68 ee       	ldi	r22, 0xE8	; 232
    27ce:	73 e0       	ldi	r23, 0x03	; 3
    27d0:	0e 94 47 24 	call	0x488e	; 0x488e <__divmodhi4>
    27d4:	cb 01       	movw	r24, r22
    27d6:	6a e0       	ldi	r22, 0x0A	; 10
    27d8:	70 e0       	ldi	r23, 0x00	; 0
    27da:	0e 94 47 24 	call	0x488e	; 0x488e <__divmodhi4>
    27de:	08 95       	ret
        case 2: return (abs(Date_Clock.altitude) / 100) % 10;
    27e0:	80 91 5f 60 	lds	r24, 0x605F	; 0x80605f <Date_Clock+0x18>
    27e4:	90 91 60 60 	lds	r25, 0x6060	; 0x806060 <Date_Clock+0x19>
    27e8:	99 23       	and	r25, r25
    27ea:	1c f4       	brge	.+6      	; 0x27f2 <extractDigitFromAltitude+0x60>
    27ec:	91 95       	neg	r25
    27ee:	81 95       	neg	r24
    27f0:	91 09       	sbc	r25, r1
    27f2:	64 e6       	ldi	r22, 0x64	; 100
    27f4:	70 e0       	ldi	r23, 0x00	; 0
    27f6:	0e 94 47 24 	call	0x488e	; 0x488e <__divmodhi4>
    27fa:	cb 01       	movw	r24, r22
    27fc:	6a e0       	ldi	r22, 0x0A	; 10
    27fe:	70 e0       	ldi	r23, 0x00	; 0
    2800:	0e 94 47 24 	call	0x488e	; 0x488e <__divmodhi4>
    2804:	08 95       	ret
        case 3: return (abs(Date_Clock.altitude) / 10) % 10;
    2806:	80 91 5f 60 	lds	r24, 0x605F	; 0x80605f <Date_Clock+0x18>
    280a:	90 91 60 60 	lds	r25, 0x6060	; 0x806060 <Date_Clock+0x19>
    280e:	99 23       	and	r25, r25
    2810:	1c f4       	brge	.+6      	; 0x2818 <extractDigitFromAltitude+0x86>
    2812:	91 95       	neg	r25
    2814:	81 95       	neg	r24
    2816:	91 09       	sbc	r25, r1
    2818:	2a e0       	ldi	r18, 0x0A	; 10
    281a:	30 e0       	ldi	r19, 0x00	; 0
    281c:	b9 01       	movw	r22, r18
    281e:	0e 94 47 24 	call	0x488e	; 0x488e <__divmodhi4>
    2822:	cb 01       	movw	r24, r22
    2824:	b9 01       	movw	r22, r18
    2826:	0e 94 47 24 	call	0x488e	; 0x488e <__divmodhi4>
    282a:	08 95       	ret
        case 4: return abs(Date_Clock.altitude) % 10;
    282c:	80 91 5f 60 	lds	r24, 0x605F	; 0x80605f <Date_Clock+0x18>
    2830:	90 91 60 60 	lds	r25, 0x6060	; 0x806060 <Date_Clock+0x19>
    2834:	99 23       	and	r25, r25
    2836:	1c f4       	brge	.+6      	; 0x283e <extractDigitFromAltitude+0xac>
    2838:	91 95       	neg	r25
    283a:	81 95       	neg	r24
    283c:	91 09       	sbc	r25, r1
    283e:	6a e0       	ldi	r22, 0x0A	; 10
    2840:	70 e0       	ldi	r23, 0x00	; 0
    2842:	0e 94 47 24 	call	0x488e	; 0x488e <__divmodhi4>
    2846:	08 95       	ret
        default: return 0;
    2848:	80 e0       	ldi	r24, 0x00	; 0
    }
}
    284a:	08 95       	ret

0000284c <extractDigitFromLocation>:
 * @param intgpart The number of integer digits to extract from the value.
 * @param number The latitude or longitude value.
 * @param step The index of the digit to extract from the location data.
 * @return The extracted digit.
 */
uint8_t extractDigitFromLocation(uint8_t intgpart, double number, uint8_t step) {
    284c:	cf 92       	push	r12
    284e:	df 92       	push	r13
    2850:	ef 92       	push	r14
    2852:	ff 92       	push	r15
    2854:	0f 93       	push	r16
    2856:	1f 93       	push	r17
    2858:	cf 93       	push	r28
    285a:	df 93       	push	r29
    285c:	d8 2f       	mov	r29, r24
    285e:	cb 01       	movw	r24, r22
    2860:	ba 01       	movw	r22, r20
    2862:	c2 2f       	mov	r28, r18
    if (step == 0) return (number < 0) ? 1 : 0; // enklas
    2864:	21 11       	cpse	r18, r1
    2866:	0b c0       	rjmp	.+22     	; 0x287e <extractDigitFromLocation+0x32>
    2868:	c1 e0       	ldi	r28, 0x01	; 1
    286a:	20 e0       	ldi	r18, 0x00	; 0
    286c:	30 e0       	ldi	r19, 0x00	; 0
    286e:	a9 01       	movw	r20, r18
    2870:	0e 94 60 1c 	call	0x38c0	; 0x38c0 <__cmpsf2>
    2874:	88 23       	and	r24, r24
    2876:	0c f0       	brlt	.+2      	; 0x287a <extractDigitFromLocation+0x2e>
    2878:	c0 e0       	ldi	r28, 0x00	; 0
    287a:	8c 2f       	mov	r24, r28
    287c:	8c c0       	rjmp	.+280    	; 0x2996 <extractDigitFromLocation+0x14a>

    number = fabs(number);
    287e:	6b 01       	movw	r12, r22
    2880:	7c 01       	movw	r14, r24
    2882:	e8 94       	clt
    2884:	f7 f8       	bld	r15, 7
    uint8_t integer_part = (uint8_t)number;
    2886:	c7 01       	movw	r24, r14
    2888:	b6 01       	movw	r22, r12
    288a:	0e 94 11 1d 	call	0x3a22	; 0x3a22 <__fixunssfsi>
    288e:	16 2f       	mov	r17, r22
    uint32_t fractional_part = (uint32_t)round((number - integer_part) * 1e4);
    2890:	70 e0       	ldi	r23, 0x00	; 0
    2892:	80 e0       	ldi	r24, 0x00	; 0
    2894:	90 e0       	ldi	r25, 0x00	; 0
    2896:	0e 94 48 1d 	call	0x3a90	; 0x3a90 <__floatsisf>
    289a:	9b 01       	movw	r18, r22
    289c:	ac 01       	movw	r20, r24
    289e:	c7 01       	movw	r24, r14
    28a0:	b6 01       	movw	r22, r12
    28a2:	0e 94 f3 1b 	call	0x37e6	; 0x37e6 <__subsf3>
    28a6:	20 e0       	ldi	r18, 0x00	; 0
    28a8:	30 e4       	ldi	r19, 0x40	; 64
    28aa:	4c e1       	ldi	r20, 0x1C	; 28
    28ac:	56 e4       	ldi	r21, 0x46	; 70
    28ae:	0e 94 38 1f 	call	0x3e70	; 0x3e70 <__mulsf3>
    28b2:	0e 94 f5 1f 	call	0x3fea	; 0x3fea <round>
    28b6:	0e 94 11 1d 	call	0x3a22	; 0x3a22 <__fixunssfsi>
    28ba:	6b 01       	movw	r12, r22
    28bc:	7c 01       	movw	r14, r24

    if (step <= intgpart) {
    28be:	dc 17       	cp	r29, r28
    28c0:	f0 f4       	brcc	.+60     	; 0x28fe <extractDigitFromLocation+0xb2>
    28c2:	70 e0       	ldi	r23, 0x00	; 0
    28c4:	21 e0       	ldi	r18, 0x01	; 1
    28c6:	30 e0       	ldi	r19, 0x00	; 0
    28c8:	40 e0       	ldi	r20, 0x00	; 0
    28ca:	50 e0       	ldi	r21, 0x00	; 0
    28cc:	4d c0       	rjmp	.+154    	; 0x2968 <extractDigitFromLocation+0x11c>
        // Sveikoji dalis
        uint32_t divisor = 1;
        for (uint8_t i = 0; i < intgpart - step; ++i)
            divisor *= 10;
    28ce:	69 01       	movw	r12, r18
    28d0:	7a 01       	movw	r14, r20
    28d2:	cc 0c       	add	r12, r12
    28d4:	dd 1c       	adc	r13, r13
    28d6:	ee 1c       	adc	r14, r14
    28d8:	ff 1c       	adc	r15, r15
    28da:	d7 01       	movw	r26, r14
    28dc:	c6 01       	movw	r24, r12
    28de:	88 0f       	add	r24, r24
    28e0:	99 1f       	adc	r25, r25
    28e2:	aa 1f       	adc	r26, r26
    28e4:	bb 1f       	adc	r27, r27
    28e6:	88 0f       	add	r24, r24
    28e8:	99 1f       	adc	r25, r25
    28ea:	aa 1f       	adc	r26, r26
    28ec:	bb 1f       	adc	r27, r27
    28ee:	a7 01       	movw	r20, r14
    28f0:	96 01       	movw	r18, r12
    28f2:	28 0f       	add	r18, r24
    28f4:	39 1f       	adc	r19, r25
    28f6:	4a 1f       	adc	r20, r26
    28f8:	5b 1f       	adc	r21, r27
    uint32_t fractional_part = (uint32_t)round((number - integer_part) * 1e4);

    if (step <= intgpart) {
        // Sveikoji dalis
        uint32_t divisor = 1;
        for (uint8_t i = 0; i < intgpart - step; ++i)
    28fa:	6f 5f       	subi	r22, 0xFF	; 255
    28fc:	05 c0       	rjmp	.+10     	; 0x2908 <extractDigitFromLocation+0xbc>
    28fe:	60 e0       	ldi	r22, 0x00	; 0
    2900:	21 e0       	ldi	r18, 0x01	; 1
    2902:	30 e0       	ldi	r19, 0x00	; 0
    2904:	40 e0       	ldi	r20, 0x00	; 0
    2906:	50 e0       	ldi	r21, 0x00	; 0
    2908:	e6 2f       	mov	r30, r22
    290a:	f0 e0       	ldi	r31, 0x00	; 0
    290c:	8d 2f       	mov	r24, r29
    290e:	90 e0       	ldi	r25, 0x00	; 0
    2910:	8c 1b       	sub	r24, r28
    2912:	91 09       	sbc	r25, r1
    2914:	e8 17       	cp	r30, r24
    2916:	f9 07       	cpc	r31, r25
    2918:	d4 f2       	brlt	.-76     	; 0x28ce <extractDigitFromLocation+0x82>
            divisor *= 10;
        return (integer_part / divisor) % 10;
    291a:	61 2f       	mov	r22, r17
    291c:	70 e0       	ldi	r23, 0x00	; 0
    291e:	80 e0       	ldi	r24, 0x00	; 0
    2920:	90 e0       	ldi	r25, 0x00	; 0
    2922:	0e 94 5b 24 	call	0x48b6	; 0x48b6 <__udivmodsi4>
    2926:	ca 01       	movw	r24, r20
    2928:	b9 01       	movw	r22, r18
    292a:	2a e0       	ldi	r18, 0x0A	; 10
    292c:	30 e0       	ldi	r19, 0x00	; 0
    292e:	40 e0       	ldi	r20, 0x00	; 0
    2930:	50 e0       	ldi	r21, 0x00	; 0
    2932:	0e 94 5b 24 	call	0x48b6	; 0x48b6 <__udivmodsi4>
    2936:	86 2f       	mov	r24, r22
    2938:	2e c0       	rjmp	.+92     	; 0x2996 <extractDigitFromLocation+0x14a>
    } 
    else {
        // Trupmenin dalis
        uint32_t divisor = 1;
        for (uint8_t i = 0; i < 4 + intgpart - step; ++i)
            divisor *= 10;
    293a:	89 01       	movw	r16, r18
    293c:	9a 01       	movw	r18, r20
    293e:	00 0f       	add	r16, r16
    2940:	11 1f       	adc	r17, r17
    2942:	22 1f       	adc	r18, r18
    2944:	33 1f       	adc	r19, r19
    2946:	d9 01       	movw	r26, r18
    2948:	c8 01       	movw	r24, r16
    294a:	88 0f       	add	r24, r24
    294c:	99 1f       	adc	r25, r25
    294e:	aa 1f       	adc	r26, r26
    2950:	bb 1f       	adc	r27, r27
    2952:	88 0f       	add	r24, r24
    2954:	99 1f       	adc	r25, r25
    2956:	aa 1f       	adc	r26, r26
    2958:	bb 1f       	adc	r27, r27
    295a:	a9 01       	movw	r20, r18
    295c:	98 01       	movw	r18, r16
    295e:	28 0f       	add	r18, r24
    2960:	39 1f       	adc	r19, r25
    2962:	4a 1f       	adc	r20, r26
    2964:	5b 1f       	adc	r21, r27
        return (integer_part / divisor) % 10;
    } 
    else {
        // Trupmenin dalis
        uint32_t divisor = 1;
        for (uint8_t i = 0; i < 4 + intgpart - step; ++i)
    2966:	7f 5f       	subi	r23, 0xFF	; 255
    2968:	e7 2f       	mov	r30, r23
    296a:	f0 e0       	ldi	r31, 0x00	; 0
    296c:	8d 2f       	mov	r24, r29
    296e:	90 e0       	ldi	r25, 0x00	; 0
    2970:	04 96       	adiw	r24, 0x04	; 4
    2972:	8c 1b       	sub	r24, r28
    2974:	91 09       	sbc	r25, r1
    2976:	e8 17       	cp	r30, r24
    2978:	f9 07       	cpc	r31, r25
    297a:	fc f2       	brlt	.-66     	; 0x293a <extractDigitFromLocation+0xee>
            divisor *= 10;
        return (fractional_part / divisor) % 10;
    297c:	c7 01       	movw	r24, r14
    297e:	b6 01       	movw	r22, r12
    2980:	0e 94 5b 24 	call	0x48b6	; 0x48b6 <__udivmodsi4>
    2984:	ca 01       	movw	r24, r20
    2986:	b9 01       	movw	r22, r18
    2988:	2a e0       	ldi	r18, 0x0A	; 10
    298a:	30 e0       	ldi	r19, 0x00	; 0
    298c:	40 e0       	ldi	r20, 0x00	; 0
    298e:	50 e0       	ldi	r21, 0x00	; 0
    2990:	0e 94 5b 24 	call	0x48b6	; 0x48b6 <__udivmodsi4>
    2994:	86 2f       	mov	r24, r22
    }
}
    2996:	df 91       	pop	r29
    2998:	cf 91       	pop	r28
    299a:	1f 91       	pop	r17
    299c:	0f 91       	pop	r16
    299e:	ff 90       	pop	r15
    29a0:	ef 90       	pop	r14
    29a2:	df 90       	pop	r13
    29a4:	cf 90       	pop	r12
    29a6:	08 95       	ret

000029a8 <DataExtraction>:
 * 
 * @param step The index of the digit to extract.
 * @param newTimeAndPlace Array to store the extracted digits.
 * @return The next step index.
 */
uint8_t DataExtraction(uint8_t step, uint8_t *newTimeAndPlace) {
    29a8:	0f 93       	push	r16
    29aa:	1f 93       	push	r17
    29ac:	cf 93       	push	r28
    29ae:	c8 2f       	mov	r28, r24
    if (step < 14) 
    29b0:	8e 30       	cpi	r24, 0x0E	; 14
    29b2:	40 f4       	brcc	.+16     	; 0x29c4 <DataExtraction+0x1c>
        newTimeAndPlace[step] = extractDigitFromTime(step);
    29b4:	8b 01       	movw	r16, r22
    29b6:	08 0f       	add	r16, r24
    29b8:	11 1d       	adc	r17, r1
    29ba:	0e 94 e8 12 	call	0x25d0	; 0x25d0 <extractDigitFromTime>
    29be:	f8 01       	movw	r30, r16
    29c0:	80 83       	st	Z, r24
    29c2:	41 c0       	rjmp	.+130    	; 0x2a46 <DataExtraction+0x9e>
    else if (step >= 14 && step < 17) 
    29c4:	82 ef       	ldi	r24, 0xF2	; 242
    29c6:	8c 0f       	add	r24, r28
    29c8:	83 30       	cpi	r24, 0x03	; 3
    29ca:	40 f4       	brcc	.+16     	; 0x29dc <DataExtraction+0x34>
        newTimeAndPlace[step] = extractDigitFromTimeZone(step - 14);
    29cc:	8b 01       	movw	r16, r22
    29ce:	0c 0f       	add	r16, r28
    29d0:	11 1d       	adc	r17, r1
    29d2:	0e 94 9a 13 	call	0x2734	; 0x2734 <extractDigitFromTimeZone>
    29d6:	f8 01       	movw	r30, r16
    29d8:	80 83       	st	Z, r24
    29da:	35 c0       	rjmp	.+106    	; 0x2a46 <DataExtraction+0x9e>
    else if (step >= 17 && step < 22) 
    29dc:	8f ee       	ldi	r24, 0xEF	; 239
    29de:	8c 0f       	add	r24, r28
    29e0:	85 30       	cpi	r24, 0x05	; 5
    29e2:	40 f4       	brcc	.+16     	; 0x29f4 <DataExtraction+0x4c>
        newTimeAndPlace[step] = extractDigitFromAltitude(step - 17);
    29e4:	8b 01       	movw	r16, r22
    29e6:	0c 0f       	add	r16, r28
    29e8:	11 1d       	adc	r17, r1
    29ea:	0e 94 c9 13 	call	0x2792	; 0x2792 <extractDigitFromAltitude>
    29ee:	f8 01       	movw	r30, r16
    29f0:	80 83       	st	Z, r24
    29f2:	29 c0       	rjmp	.+82     	; 0x2a46 <DataExtraction+0x9e>
    else if (step >= 22 && step < 29) 
    29f4:	2a ee       	ldi	r18, 0xEA	; 234
    29f6:	2c 0f       	add	r18, r28
    29f8:	27 30       	cpi	r18, 0x07	; 7
    29fa:	88 f4       	brcc	.+34     	; 0x2a1e <DataExtraction+0x76>
        newTimeAndPlace[step] = extractDigitFromLocation(2, Date_Clock.latitude, step - 22); 
    29fc:	8b 01       	movw	r16, r22
    29fe:	0c 0f       	add	r16, r28
    2a00:	11 1d       	adc	r17, r1
    2a02:	40 91 55 60 	lds	r20, 0x6055	; 0x806055 <Date_Clock+0xe>
    2a06:	50 91 56 60 	lds	r21, 0x6056	; 0x806056 <Date_Clock+0xf>
    2a0a:	60 91 57 60 	lds	r22, 0x6057	; 0x806057 <Date_Clock+0x10>
    2a0e:	70 91 58 60 	lds	r23, 0x6058	; 0x806058 <Date_Clock+0x11>
    2a12:	82 e0       	ldi	r24, 0x02	; 2
    2a14:	0e 94 26 14 	call	0x284c	; 0x284c <extractDigitFromLocation>
    2a18:	f8 01       	movw	r30, r16
    2a1a:	80 83       	st	Z, r24
    2a1c:	14 c0       	rjmp	.+40     	; 0x2a46 <DataExtraction+0x9e>
    else if (step >= 29 && step < 37) 
    2a1e:	23 ee       	ldi	r18, 0xE3	; 227
    2a20:	2c 0f       	add	r18, r28
    2a22:	28 30       	cpi	r18, 0x08	; 8
    2a24:	80 f4       	brcc	.+32     	; 0x2a46 <DataExtraction+0x9e>
        newTimeAndPlace[step] = extractDigitFromLocation(3, Date_Clock.longitude, step - 29); 
    2a26:	8b 01       	movw	r16, r22
    2a28:	0c 0f       	add	r16, r28
    2a2a:	11 1d       	adc	r17, r1
    2a2c:	40 91 59 60 	lds	r20, 0x6059	; 0x806059 <Date_Clock+0x12>
    2a30:	50 91 5a 60 	lds	r21, 0x605A	; 0x80605a <Date_Clock+0x13>
    2a34:	60 91 5b 60 	lds	r22, 0x605B	; 0x80605b <Date_Clock+0x14>
    2a38:	70 91 5c 60 	lds	r23, 0x605C	; 0x80605c <Date_Clock+0x15>
    2a3c:	83 e0       	ldi	r24, 0x03	; 3
    2a3e:	0e 94 26 14 	call	0x284c	; 0x284c <extractDigitFromLocation>
    2a42:	f8 01       	movw	r30, r16
    2a44:	80 83       	st	Z, r24
    step++;                
    return step;
}
    2a46:	81 e0       	ldi	r24, 0x01	; 1
    2a48:	8c 0f       	add	r24, r28
    2a4a:	cf 91       	pop	r28
    2a4c:	1f 91       	pop	r17
    2a4e:	0f 91       	pop	r16
    2a50:	08 95       	ret

00002a52 <calculateValue>:
 * This function processes an array of digits and calculates the corresponding integer value.
 * @param digits Array of digits.
 * @param length Length of the digits array.
 * @return Calculated integer value.
 */
int64_t calculateValue(uint8_t *digits, uint8_t length) { 
    2a52:	4f 92       	push	r4
    2a54:	5f 92       	push	r5
    2a56:	6f 92       	push	r6
    2a58:	7f 92       	push	r7
    2a5a:	8f 92       	push	r8
    2a5c:	9f 92       	push	r9
    2a5e:	af 92       	push	r10
    2a60:	bf 92       	push	r11
    2a62:	cf 92       	push	r12
    2a64:	df 92       	push	r13
    2a66:	ef 92       	push	r14
    2a68:	ff 92       	push	r15
    2a6a:	0f 93       	push	r16
    2a6c:	1f 93       	push	r17
    2a6e:	cf 93       	push	r28
    2a70:	df 93       	push	r29
    2a72:	4c 01       	movw	r8, r24
    2a74:	46 2e       	mov	r4, r22
    int64_t result = 0;
    for (uint8_t i = 0; i < length; i++) {
    2a76:	e0 e0       	ldi	r30, 0x00	; 0
 * @param digits Array of digits.
 * @param length Length of the digits array.
 * @return Calculated integer value.
 */
int64_t calculateValue(uint8_t *digits, uint8_t length) { 
    int64_t result = 0;
    2a78:	20 e0       	ldi	r18, 0x00	; 0
    2a7a:	30 e0       	ldi	r19, 0x00	; 0
    2a7c:	40 e0       	ldi	r20, 0x00	; 0
    2a7e:	50 e0       	ldi	r21, 0x00	; 0
    2a80:	60 e0       	ldi	r22, 0x00	; 0
    2a82:	70 e0       	ldi	r23, 0x00	; 0
    2a84:	80 e0       	ldi	r24, 0x00	; 0
    2a86:	90 e0       	ldi	r25, 0x00	; 0
    for (uint8_t i = 0; i < length; i++) {
    2a88:	2e c0       	rjmp	.+92     	; 0x2ae6 <calculateValue+0x94>
        result = result * 10 + digits[i];
    2a8a:	01 e0       	ldi	r16, 0x01	; 1
    2a8c:	0e 94 cf 25 	call	0x4b9e	; 0x4b9e <__ashldi3>
    2a90:	52 2e       	mov	r5, r18
    2a92:	63 2e       	mov	r6, r19
    2a94:	74 2e       	mov	r7, r20
    2a96:	d5 2f       	mov	r29, r21
    2a98:	c6 2f       	mov	r28, r22
    2a9a:	b7 2f       	mov	r27, r23
    2a9c:	a8 2f       	mov	r26, r24
    2a9e:	f9 2f       	mov	r31, r25
    2aa0:	02 e0       	ldi	r16, 0x02	; 2
    2aa2:	0e 94 cf 25 	call	0x4b9e	; 0x4b9e <__ashldi3>
    2aa6:	a2 2e       	mov	r10, r18
    2aa8:	b3 2e       	mov	r11, r19
    2aaa:	c4 2e       	mov	r12, r20
    2aac:	d5 2e       	mov	r13, r21
    2aae:	e6 2e       	mov	r14, r22
    2ab0:	f7 2e       	mov	r15, r23
    2ab2:	08 2f       	mov	r16, r24
    2ab4:	19 2f       	mov	r17, r25
    2ab6:	25 2d       	mov	r18, r5
    2ab8:	36 2d       	mov	r19, r6
    2aba:	47 2d       	mov	r20, r7
    2abc:	5d 2f       	mov	r21, r29
    2abe:	6c 2f       	mov	r22, r28
    2ac0:	7b 2f       	mov	r23, r27
    2ac2:	8a 2f       	mov	r24, r26
    2ac4:	9f 2f       	mov	r25, r31
    2ac6:	0e 94 06 26 	call	0x4c0c	; 0x4c0c <__adddi3>
    2aca:	d4 01       	movw	r26, r8
    2acc:	ae 0f       	add	r26, r30
    2ace:	b1 1d       	adc	r27, r1
    2ad0:	ac 90       	ld	r10, X
    2ad2:	b1 2c       	mov	r11, r1
    2ad4:	c1 2c       	mov	r12, r1
    2ad6:	d1 2c       	mov	r13, r1
    2ad8:	e1 2c       	mov	r14, r1
    2ada:	f1 2c       	mov	r15, r1
    2adc:	00 e0       	ldi	r16, 0x00	; 0
    2ade:	10 e0       	ldi	r17, 0x00	; 0
    2ae0:	0e 94 06 26 	call	0x4c0c	; 0x4c0c <__adddi3>
 * @param length Length of the digits array.
 * @return Calculated integer value.
 */
int64_t calculateValue(uint8_t *digits, uint8_t length) { 
    int64_t result = 0;
    for (uint8_t i = 0; i < length; i++) {
    2ae4:	ef 5f       	subi	r30, 0xFF	; 255
    2ae6:	e4 15       	cp	r30, r4
    2ae8:	80 f2       	brcs	.-96     	; 0x2a8a <calculateValue+0x38>
        result = result * 10 + digits[i];
    }
    return result;
}
    2aea:	df 91       	pop	r29
    2aec:	cf 91       	pop	r28
    2aee:	1f 91       	pop	r17
    2af0:	0f 91       	pop	r16
    2af2:	ff 90       	pop	r15
    2af4:	ef 90       	pop	r14
    2af6:	df 90       	pop	r13
    2af8:	cf 90       	pop	r12
    2afa:	bf 90       	pop	r11
    2afc:	af 90       	pop	r10
    2afe:	9f 90       	pop	r9
    2b00:	8f 90       	pop	r8
    2b02:	7f 90       	pop	r7
    2b04:	6f 90       	pop	r6
    2b06:	5f 90       	pop	r5
    2b08:	4f 90       	pop	r4
    2b0a:	08 95       	ret

00002b0c <applySign>:
 * @param signDigit Sign digit (0 for positive, 1 for negative).
 * @param value The value to which the sign will be applied.
 * @return The value with the applied sign.
 */
int applySign(uint8_t signDigit, int value) { 
    return (signDigit == 0) ? value : -value;
    2b0c:	88 23       	and	r24, r24
    2b0e:	29 f0       	breq	.+10     	; 0x2b1a <applySign+0xe>
    2b10:	88 27       	eor	r24, r24
    2b12:	99 27       	eor	r25, r25
    2b14:	86 1b       	sub	r24, r22
    2b16:	97 0b       	sbc	r25, r23
    2b18:	08 95       	ret
    2b1a:	cb 01       	movw	r24, r22
}
    2b1c:	08 95       	ret

00002b1e <applySignDouble>:
 * @param signDigit Sign digit (0 for positive, 1 for negative).
 * @param value The value to which the sign will be applied.
 * @return The value with the applied sign.
 */
double applySignDouble(uint8_t signDigit, double value) {
    return (signDigit == 0) ? value : -value;
    2b1e:	88 23       	and	r24, r24
    2b20:	21 f0       	breq	.+8      	; 0x2b2a <applySignDouble+0xc>
    2b22:	cb 01       	movw	r24, r22
    2b24:	ba 01       	movw	r22, r20
    2b26:	90 58       	subi	r25, 0x80	; 128
    2b28:	08 95       	ret
    2b2a:	cb 01       	movw	r24, r22
    2b2c:	ba 01       	movw	r22, r20
}
    2b2e:	08 95       	ret

00002b30 <ValidateNewData>:
 * It updates the step variable based on which field needs correction.
 * @param newTimeAndPlace Array containing the new time and place data.
 * @param step Pointer to the current step, which will be updated.
 */
void ValidateNewData(uint8_t * newTimeAndPlace, uint8_t *step)
{
    2b30:	2f 92       	push	r2
    2b32:	3f 92       	push	r3
    2b34:	4f 92       	push	r4
    2b36:	5f 92       	push	r5
    2b38:	6f 92       	push	r6
    2b3a:	7f 92       	push	r7
    2b3c:	8f 92       	push	r8
    2b3e:	9f 92       	push	r9
    2b40:	af 92       	push	r10
    2b42:	bf 92       	push	r11
    2b44:	cf 92       	push	r12
    2b46:	df 92       	push	r13
    2b48:	ef 92       	push	r14
    2b4a:	ff 92       	push	r15
    2b4c:	0f 93       	push	r16
    2b4e:	1f 93       	push	r17
    2b50:	cf 93       	push	r28
    2b52:	df 93       	push	r29
    2b54:	cd b7       	in	r28, 0x3d	; 61
    2b56:	de b7       	in	r29, 0x3e	; 62
    2b58:	26 97       	sbiw	r28, 0x06	; 6
    2b5a:	cd bf       	out	0x3d, r28	; 61
    2b5c:	de bf       	out	0x3e, r29	; 62
    2b5e:	8d 83       	std	Y+5, r24	; 0x05
    2b60:	9e 83       	std	Y+6, r25	; 0x06
    2b62:	2b 01       	movw	r4, r22
    uint8_t lastAction = 21; // In the end, this variable decides if you will go to the main menu with success or not if you put wrong digits // default value is to stay at this page (DateAndLocationChangeWindow)
    int8_t newTimeZone = applySign(newTimeAndPlace[14], calculateValue(&newTimeAndPlace[15], 2));
    2b64:	62 e0       	ldi	r22, 0x02	; 2
    2b66:	0f 96       	adiw	r24, 0x0f	; 15
    2b68:	0e 94 29 15 	call	0x2a52	; 0x2a52 <calculateValue>
    2b6c:	62 2f       	mov	r22, r18
    2b6e:	73 2f       	mov	r23, r19
    2b70:	ad 81       	ldd	r26, Y+5	; 0x05
    2b72:	be 81       	ldd	r27, Y+6	; 0x06
    2b74:	1e 96       	adiw	r26, 0x0e	; 14
    2b76:	8c 91       	ld	r24, X
    2b78:	0e 94 86 15 	call	0x2b0c	; 0x2b0c <applySign>
    2b7c:	18 2f       	mov	r17, r24
    int16_t newAltitude = applySign(newTimeAndPlace[17], calculateValue(&newTimeAndPlace[18], 4));
    2b7e:	64 e0       	ldi	r22, 0x04	; 4
    2b80:	8d 81       	ldd	r24, Y+5	; 0x05
    2b82:	9e 81       	ldd	r25, Y+6	; 0x06
    2b84:	42 96       	adiw	r24, 0x12	; 18
    2b86:	0e 94 29 15 	call	0x2a52	; 0x2a52 <calculateValue>
    2b8a:	62 2f       	mov	r22, r18
    2b8c:	73 2f       	mov	r23, r19
    2b8e:	ed 81       	ldd	r30, Y+5	; 0x05
    2b90:	fe 81       	ldd	r31, Y+6	; 0x06
    2b92:	81 89       	ldd	r24, Z+17	; 0x11
    2b94:	0e 94 86 15 	call	0x2b0c	; 0x2b0c <applySign>
    2b98:	89 83       	std	Y+1, r24	; 0x01
    2b9a:	9a 83       	std	Y+2, r25	; 0x02
    double newLatitude = applySignDouble(newTimeAndPlace[22], calculateValue(&newTimeAndPlace[23], 6) / 10000.0);
    2b9c:	66 e0       	ldi	r22, 0x06	; 6
    2b9e:	8d 81       	ldd	r24, Y+5	; 0x05
    2ba0:	9e 81       	ldd	r25, Y+6	; 0x06
    2ba2:	47 96       	adiw	r24, 0x17	; 23
    2ba4:	0e 94 29 15 	call	0x2a52	; 0x2a52 <calculateValue>
    2ba8:	0e 94 40 1d 	call	0x3a80	; 0x3a80 <__floatdisf>
    2bac:	20 e0       	ldi	r18, 0x00	; 0
    2bae:	30 e4       	ldi	r19, 0x40	; 64
    2bb0:	4c e1       	ldi	r20, 0x1C	; 28
    2bb2:	56 e4       	ldi	r21, 0x46	; 70
    2bb4:	0e 94 65 1c 	call	0x38ca	; 0x38ca <__divsf3>
    2bb8:	ab 01       	movw	r20, r22
    2bba:	bc 01       	movw	r22, r24
    2bbc:	ad 81       	ldd	r26, Y+5	; 0x05
    2bbe:	be 81       	ldd	r27, Y+6	; 0x06
    2bc0:	56 96       	adiw	r26, 0x16	; 22
    2bc2:	8c 91       	ld	r24, X
    2bc4:	0e 94 8f 15 	call	0x2b1e	; 0x2b1e <applySignDouble>
    2bc8:	f6 2e       	mov	r15, r22
    2bca:	d7 2e       	mov	r13, r23
    2bcc:	c8 2e       	mov	r12, r24
    2bce:	b9 2e       	mov	r11, r25
    double newLongitude = applySignDouble(newTimeAndPlace[29], calculateValue(&newTimeAndPlace[30], 7) / 10000.0);
    2bd0:	67 e0       	ldi	r22, 0x07	; 7
    2bd2:	8d 81       	ldd	r24, Y+5	; 0x05
    2bd4:	9e 81       	ldd	r25, Y+6	; 0x06
    2bd6:	4e 96       	adiw	r24, 0x1e	; 30
    2bd8:	0e 94 29 15 	call	0x2a52	; 0x2a52 <calculateValue>
    2bdc:	0e 94 40 1d 	call	0x3a80	; 0x3a80 <__floatdisf>
    2be0:	20 e0       	ldi	r18, 0x00	; 0
    2be2:	30 e4       	ldi	r19, 0x40	; 64
    2be4:	4c e1       	ldi	r20, 0x1C	; 28
    2be6:	56 e4       	ldi	r21, 0x46	; 70
    2be8:	0e 94 65 1c 	call	0x38ca	; 0x38ca <__divsf3>
    2bec:	ab 01       	movw	r20, r22
    2bee:	bc 01       	movw	r22, r24
    2bf0:	ed 81       	ldd	r30, Y+5	; 0x05
    2bf2:	fe 81       	ldd	r31, Y+6	; 0x06
    2bf4:	85 8d       	ldd	r24, Z+29	; 0x1d
    2bf6:	0e 94 8f 15 	call	0x2b1e	; 0x2b1e <applySignDouble>
    2bfa:	6b 83       	std	Y+3, r22	; 0x03
    2bfc:	67 2e       	mov	r6, r23
    2bfe:	78 2e       	mov	r7, r24
    2c00:	a9 2e       	mov	r10, r25
        ((uint16_t)newTimeAndPlace[0] * 1000) + ((uint16_t)newTimeAndPlace[1] * 100) + (newTimeAndPlace[2] * 10) + newTimeAndPlace[3], // year
        (newTimeAndPlace[4] * 10) + newTimeAndPlace[5],  // month
        (newTimeAndPlace[6] * 10) + newTimeAndPlace[7],  // day
        (newTimeAndPlace[8] * 10) + newTimeAndPlace[9],  // hour
        (newTimeAndPlace[10] * 10) + newTimeAndPlace[11], // minute
        (newTimeAndPlace[12] * 10) + newTimeAndPlace[13]  // seconds
    2c02:	ad 81       	ldd	r26, Y+5	; 0x05
    2c04:	be 81       	ldd	r27, Y+6	; 0x06
    2c06:	1c 96       	adiw	r26, 0x0c	; 12
    2c08:	ec 90       	ld	r14, X
    2c0a:	1c 97       	sbiw	r26, 0x0c	; 12
    2c0c:	1d 96       	adiw	r26, 0x0d	; 13
    2c0e:	ac 91       	ld	r26, X
    if (isValidDateTime(
        ((uint16_t)newTimeAndPlace[0] * 1000) + ((uint16_t)newTimeAndPlace[1] * 100) + (newTimeAndPlace[2] * 10) + newTimeAndPlace[3], // year
        (newTimeAndPlace[4] * 10) + newTimeAndPlace[5],  // month
        (newTimeAndPlace[6] * 10) + newTimeAndPlace[7],  // day
        (newTimeAndPlace[8] * 10) + newTimeAndPlace[9],  // hour
        (newTimeAndPlace[10] * 10) + newTimeAndPlace[11], // minute
    2c10:	ed 81       	ldd	r30, Y+5	; 0x05
    2c12:	fe 81       	ldd	r31, Y+6	; 0x06
    2c14:	52 85       	ldd	r21, Z+10	; 0x0a
    2c16:	23 85       	ldd	r18, Z+11	; 0x0b

    if (isValidDateTime(
        ((uint16_t)newTimeAndPlace[0] * 1000) + ((uint16_t)newTimeAndPlace[1] * 100) + (newTimeAndPlace[2] * 10) + newTimeAndPlace[3], // year
        (newTimeAndPlace[4] * 10) + newTimeAndPlace[5],  // month
        (newTimeAndPlace[6] * 10) + newTimeAndPlace[7],  // day
        (newTimeAndPlace[8] * 10) + newTimeAndPlace[9],  // hour
    2c18:	30 85       	ldd	r19, Z+8	; 0x08
    2c1a:	f1 85       	ldd	r31, Z+9	; 0x09
    2c1c:	fc 83       	std	Y+4, r31	; 0x04
    double newLongitude = applySignDouble(newTimeAndPlace[29], calculateValue(&newTimeAndPlace[30], 7) / 10000.0);

    if (isValidDateTime(
        ((uint16_t)newTimeAndPlace[0] * 1000) + ((uint16_t)newTimeAndPlace[1] * 100) + (newTimeAndPlace[2] * 10) + newTimeAndPlace[3], // year
        (newTimeAndPlace[4] * 10) + newTimeAndPlace[5],  // month
        (newTimeAndPlace[6] * 10) + newTimeAndPlace[7],  // day
    2c1e:	ed 81       	ldd	r30, Y+5	; 0x05
    2c20:	fe 81       	ldd	r31, Y+6	; 0x06
    2c22:	46 81       	ldd	r20, Z+6	; 0x06
    2c24:	b7 81       	ldd	r27, Z+7	; 0x07
    double newLatitude = applySignDouble(newTimeAndPlace[22], calculateValue(&newTimeAndPlace[23], 6) / 10000.0);
    double newLongitude = applySignDouble(newTimeAndPlace[29], calculateValue(&newTimeAndPlace[30], 7) / 10000.0);

    if (isValidDateTime(
        ((uint16_t)newTimeAndPlace[0] * 1000) + ((uint16_t)newTimeAndPlace[1] * 100) + (newTimeAndPlace[2] * 10) + newTimeAndPlace[3], // year
        (newTimeAndPlace[4] * 10) + newTimeAndPlace[5],  // month
    2c26:	94 80       	ldd	r9, Z+4	; 0x04
    2c28:	85 80       	ldd	r8, Z+5	; 0x05
    int16_t newAltitude = applySign(newTimeAndPlace[17], calculateValue(&newTimeAndPlace[18], 4));
    double newLatitude = applySignDouble(newTimeAndPlace[22], calculateValue(&newTimeAndPlace[23], 6) / 10000.0);
    double newLongitude = applySignDouble(newTimeAndPlace[29], calculateValue(&newTimeAndPlace[30], 7) / 10000.0);

    if (isValidDateTime(
        ((uint16_t)newTimeAndPlace[0] * 1000) + ((uint16_t)newTimeAndPlace[1] * 100) + (newTimeAndPlace[2] * 10) + newTimeAndPlace[3], // year
    2c2a:	00 81       	ld	r16, Z
    2c2c:	68 ee       	ldi	r22, 0xE8	; 232
    2c2e:	73 e0       	ldi	r23, 0x03	; 3
    2c30:	06 9f       	mul	r16, r22
    2c32:	c0 01       	movw	r24, r0
    2c34:	07 9f       	mul	r16, r23
    2c36:	90 0d       	add	r25, r0
    2c38:	11 24       	eor	r1, r1
    2c3a:	61 81       	ldd	r22, Z+1	; 0x01
    2c3c:	1c 01       	movw	r2, r24
    2c3e:	f4 e6       	ldi	r31, 0x64	; 100
    2c40:	6f 9f       	mul	r22, r31
    2c42:	20 0c       	add	r2, r0
    2c44:	31 1c       	adc	r3, r1
    2c46:	11 24       	eor	r1, r1
    2c48:	ed 81       	ldd	r30, Y+5	; 0x05
    2c4a:	fe 81       	ldd	r31, Y+6	; 0x06
    2c4c:	82 81       	ldd	r24, Z+2	; 0x02
    2c4e:	90 e0       	ldi	r25, 0x00	; 0
    2c50:	bc 01       	movw	r22, r24
    2c52:	66 0f       	add	r22, r22
    2c54:	77 1f       	adc	r23, r23
    2c56:	88 0f       	add	r24, r24
    2c58:	99 1f       	adc	r25, r25
    2c5a:	88 0f       	add	r24, r24
    2c5c:	99 1f       	adc	r25, r25
    2c5e:	88 0f       	add	r24, r24
    2c60:	99 1f       	adc	r25, r25
    2c62:	86 0f       	add	r24, r22
    2c64:	97 1f       	adc	r25, r23
    2c66:	82 0d       	add	r24, r2
    2c68:	93 1d       	adc	r25, r3
    2c6a:	73 81       	ldd	r23, Z+3	; 0x03
    int8_t newTimeZone = applySign(newTimeAndPlace[14], calculateValue(&newTimeAndPlace[15], 2));
    int16_t newAltitude = applySign(newTimeAndPlace[17], calculateValue(&newTimeAndPlace[18], 4));
    double newLatitude = applySignDouble(newTimeAndPlace[22], calculateValue(&newTimeAndPlace[23], 6) / 10000.0);
    double newLongitude = applySignDouble(newTimeAndPlace[29], calculateValue(&newTimeAndPlace[30], 7) / 10000.0);

    if (isValidDateTime(
    2c6c:	ee 2d       	mov	r30, r14
    2c6e:	ee 0f       	add	r30, r30
    2c70:	ee 2e       	mov	r14, r30
    2c72:	ee 0c       	add	r14, r14
    2c74:	ee 0c       	add	r14, r14
    2c76:	ee 0d       	add	r30, r14
    2c78:	ee 2e       	mov	r14, r30
    2c7a:	ea 0e       	add	r14, r26
    2c7c:	55 0f       	add	r21, r21
    2c7e:	05 2f       	mov	r16, r21
    2c80:	00 0f       	add	r16, r16
    2c82:	00 0f       	add	r16, r16
    2c84:	50 0f       	add	r21, r16
    2c86:	05 2f       	mov	r16, r21
    2c88:	02 0f       	add	r16, r18
    2c8a:	33 0f       	add	r19, r19
    2c8c:	23 2f       	mov	r18, r19
    2c8e:	22 0f       	add	r18, r18
    2c90:	22 0f       	add	r18, r18
    2c92:	32 0f       	add	r19, r18
    2c94:	2c 81       	ldd	r18, Y+4	; 0x04
    2c96:	23 0f       	add	r18, r19
    2c98:	44 0f       	add	r20, r20
    2c9a:	34 2f       	mov	r19, r20
    2c9c:	33 0f       	add	r19, r19
    2c9e:	33 0f       	add	r19, r19
    2ca0:	43 0f       	add	r20, r19
    2ca2:	4b 0f       	add	r20, r27
    2ca4:	99 0c       	add	r9, r9
    2ca6:	69 2d       	mov	r22, r9
    2ca8:	66 0f       	add	r22, r22
    2caa:	66 0f       	add	r22, r22
    2cac:	96 0e       	add	r9, r22
    2cae:	69 2d       	mov	r22, r9
    2cb0:	68 0d       	add	r22, r8
    2cb2:	87 0f       	add	r24, r23
    2cb4:	91 1d       	adc	r25, r1
    2cb6:	0e 94 8b 08 	call	0x1116	; 0x1116 <isValidDateTime>
    2cba:	81 30       	cpi	r24, 0x01	; 1
    2cbc:	d1 f4       	brne	.+52     	; 0x2cf2 <ValidateNewData+0x1c2>
        (newTimeAndPlace[10] * 10) + newTimeAndPlace[11], // minute
        (newTimeAndPlace[12] * 10) + newTimeAndPlace[13]  // seconds
    ) == 1) {
        //screen_write_formatted_text("Neteisinga data", 3, ALIGN_CENTER); // Lithuanian
        //screen_write_formatted_text("arba laikas !", 4, ALIGN_CENTER); // Lithuanian
        screen_write_formatted_text("Wrong date", 3, ALIGN_CENTER); // English
    2cbe:	f1 e0       	ldi	r31, 0x01	; 1
    2cc0:	ff 93       	push	r31
    2cc2:	83 e0       	ldi	r24, 0x03	; 3
    2cc4:	8f 93       	push	r24
    2cc6:	84 e3       	ldi	r24, 0x34	; 52
    2cc8:	96 e6       	ldi	r25, 0x66	; 102
    2cca:	9f 93       	push	r25
    2ccc:	8f 93       	push	r24
    2cce:	0e 94 18 10 	call	0x2030	; 0x2030 <screen_write_formatted_text>
        screen_write_formatted_text("or time !", 4, ALIGN_CENTER); // English
    2cd2:	21 e0       	ldi	r18, 0x01	; 1
    2cd4:	2f 93       	push	r18
    2cd6:	84 e0       	ldi	r24, 0x04	; 4
    2cd8:	8f 93       	push	r24
    2cda:	8f e3       	ldi	r24, 0x3F	; 63
    2cdc:	96 e6       	ldi	r25, 0x66	; 102
    2cde:	9f 93       	push	r25
    2ce0:	8f 93       	push	r24
    2ce2:	0e 94 18 10 	call	0x2030	; 0x2030 <screen_write_formatted_text>
        *step = 0; // put marker on first date number
    2ce6:	d2 01       	movw	r26, r4
    2ce8:	1c 92       	st	X, r1
    2cea:	cd bf       	out	0x3d, r28	; 61
    2cec:	de bf       	out	0x3e, r29	; 62
 * @param newTimeAndPlace Array containing the new time and place data.
 * @param step Pointer to the current step, which will be updated.
 */
void ValidateNewData(uint8_t * newTimeAndPlace, uint8_t *step)
{
    uint8_t lastAction = 21; // In the end, this variable decides if you will go to the main menu with success or not if you put wrong digits // default value is to stay at this page (DateAndLocationChangeWindow)
    2cee:	85 e1       	ldi	r24, 0x15	; 21
    2cf0:	f3 c0       	rjmp	.+486    	; 0x2ed8 <ValidateNewData+0x3a8>
        //screen_write_formatted_text("arba laikas !", 4, ALIGN_CENTER); // Lithuanian
        screen_write_formatted_text("Wrong date", 3, ALIGN_CENTER); // English
        screen_write_formatted_text("or time !", 4, ALIGN_CENTER); // English
        *step = 0; // put marker on first date number
    }
    else if(isValidTimeZone(newTimeZone) == 1){
    2cf2:	81 2f       	mov	r24, r17
    2cf4:	0e 94 f0 08 	call	0x11e0	; 0x11e0 <isValidTimeZone>
    2cf8:	81 30       	cpi	r24, 0x01	; 1
    2cfa:	91 f4       	brne	.+36     	; 0x2d20 <ValidateNewData+0x1f0>
        //screen_write_formatted_text("Laiko zonos klaida !", 3, ALIGN_CENTER); // Lithuanian
        screen_write_formatted_text("Time zone error !", 3, ALIGN_CENTER); // English
    2cfc:	8f 93       	push	r24
    2cfe:	83 e0       	ldi	r24, 0x03	; 3
    2d00:	8f 93       	push	r24
    2d02:	89 e4       	ldi	r24, 0x49	; 73
    2d04:	96 e6       	ldi	r25, 0x66	; 102
    2d06:	9f 93       	push	r25
    2d08:	8f 93       	push	r24
    2d0a:	0e 94 18 10 	call	0x2030	; 0x2030 <screen_write_formatted_text>
        *step = 14; // put marker on timezone
    2d0e:	8e e0       	ldi	r24, 0x0E	; 14
    2d10:	d2 01       	movw	r26, r4
    2d12:	8c 93       	st	X, r24
    2d14:	0f 90       	pop	r0
    2d16:	0f 90       	pop	r0
    2d18:	0f 90       	pop	r0
    2d1a:	0f 90       	pop	r0
 * @param newTimeAndPlace Array containing the new time and place data.
 * @param step Pointer to the current step, which will be updated.
 */
void ValidateNewData(uint8_t * newTimeAndPlace, uint8_t *step)
{
    uint8_t lastAction = 21; // In the end, this variable decides if you will go to the main menu with success or not if you put wrong digits // default value is to stay at this page (DateAndLocationChangeWindow)
    2d1c:	85 e1       	ldi	r24, 0x15	; 21
    2d1e:	dc c0       	rjmp	.+440    	; 0x2ed8 <ValidateNewData+0x3a8>
    else if(isValidTimeZone(newTimeZone) == 1){
        //screen_write_formatted_text("Laiko zonos klaida !", 3, ALIGN_CENTER); // Lithuanian
        screen_write_formatted_text("Time zone error !", 3, ALIGN_CENTER); // English
        *step = 14; // put marker on timezone
    }
    else if(isValidAltitude(newAltitude) == 1){
    2d20:	89 81       	ldd	r24, Y+1	; 0x01
    2d22:	9a 81       	ldd	r25, Y+2	; 0x02
    2d24:	0e 94 f7 08 	call	0x11ee	; 0x11ee <isValidAltitude>
    2d28:	81 30       	cpi	r24, 0x01	; 1
    2d2a:	d9 f4       	brne	.+54     	; 0x2d62 <ValidateNewData+0x232>
        //screen_write_formatted_text("Neteisingas aukis", 3, ALIGN_CENTER); // Lithuanian
        //screen_write_formatted_text("vir jros lygio !", 4, ALIGN_CENTER); // Lithuanian
        screen_write_formatted_text("Wrong altitude", 3, ALIGN_CENTER); // English
    2d2c:	b1 e0       	ldi	r27, 0x01	; 1
    2d2e:	bf 93       	push	r27
    2d30:	83 e0       	ldi	r24, 0x03	; 3
    2d32:	8f 93       	push	r24
    2d34:	8b e5       	ldi	r24, 0x5B	; 91
    2d36:	96 e6       	ldi	r25, 0x66	; 102
    2d38:	9f 93       	push	r25
    2d3a:	8f 93       	push	r24
    2d3c:	0e 94 18 10 	call	0x2030	; 0x2030 <screen_write_formatted_text>
        screen_write_formatted_text("over sea level !", 4, ALIGN_CENTER); // English
    2d40:	e1 e0       	ldi	r30, 0x01	; 1
    2d42:	ef 93       	push	r30
    2d44:	84 e0       	ldi	r24, 0x04	; 4
    2d46:	8f 93       	push	r24
    2d48:	8a e6       	ldi	r24, 0x6A	; 106
    2d4a:	96 e6       	ldi	r25, 0x66	; 102
    2d4c:	9f 93       	push	r25
    2d4e:	8f 93       	push	r24
    2d50:	0e 94 18 10 	call	0x2030	; 0x2030 <screen_write_formatted_text>
        *step = 17; // put marker on altitude
    2d54:	81 e1       	ldi	r24, 0x11	; 17
    2d56:	d2 01       	movw	r26, r4
    2d58:	8c 93       	st	X, r24
    2d5a:	cd bf       	out	0x3d, r28	; 61
    2d5c:	de bf       	out	0x3e, r29	; 62
 * @param newTimeAndPlace Array containing the new time and place data.
 * @param step Pointer to the current step, which will be updated.
 */
void ValidateNewData(uint8_t * newTimeAndPlace, uint8_t *step)
{
    uint8_t lastAction = 21; // In the end, this variable decides if you will go to the main menu with success or not if you put wrong digits // default value is to stay at this page (DateAndLocationChangeWindow)
    2d5e:	85 e1       	ldi	r24, 0x15	; 21
    2d60:	bb c0       	rjmp	.+374    	; 0x2ed8 <ValidateNewData+0x3a8>
        //screen_write_formatted_text("vir jros lygio !", 4, ALIGN_CENTER); // Lithuanian
        screen_write_formatted_text("Wrong altitude", 3, ALIGN_CENTER); // English
        screen_write_formatted_text("over sea level !", 4, ALIGN_CENTER); // English
        *step = 17; // put marker on altitude
    }
    else if(isValidLatitude(newLatitude) == 1){
    2d62:	6f 2d       	mov	r22, r15
    2d64:	7d 2d       	mov	r23, r13
    2d66:	8c 2d       	mov	r24, r12
    2d68:	9b 2d       	mov	r25, r11
    2d6a:	0e 94 00 09 	call	0x1200	; 0x1200 <isValidLatitude>
    2d6e:	81 30       	cpi	r24, 0x01	; 1
    2d70:	91 f4       	brne	.+36     	; 0x2d96 <ValidateNewData+0x266>
        //screen_write_formatted_text("Neteisinga platuma!", 3, ALIGN_CENTER); // Lithuanian
        screen_write_formatted_text("Wrong latitude!", 3, ALIGN_CENTER); // English
    2d72:	8f 93       	push	r24
    2d74:	83 e0       	ldi	r24, 0x03	; 3
    2d76:	8f 93       	push	r24
    2d78:	8b e7       	ldi	r24, 0x7B	; 123
    2d7a:	96 e6       	ldi	r25, 0x66	; 102
    2d7c:	9f 93       	push	r25
    2d7e:	8f 93       	push	r24
    2d80:	0e 94 18 10 	call	0x2030	; 0x2030 <screen_write_formatted_text>
        *step = 22; // put marker on latitude
    2d84:	86 e1       	ldi	r24, 0x16	; 22
    2d86:	d2 01       	movw	r26, r4
    2d88:	8c 93       	st	X, r24
    2d8a:	0f 90       	pop	r0
    2d8c:	0f 90       	pop	r0
    2d8e:	0f 90       	pop	r0
    2d90:	0f 90       	pop	r0
 * @param newTimeAndPlace Array containing the new time and place data.
 * @param step Pointer to the current step, which will be updated.
 */
void ValidateNewData(uint8_t * newTimeAndPlace, uint8_t *step)
{
    uint8_t lastAction = 21; // In the end, this variable decides if you will go to the main menu with success or not if you put wrong digits // default value is to stay at this page (DateAndLocationChangeWindow)
    2d92:	85 e1       	ldi	r24, 0x15	; 21
    2d94:	a1 c0       	rjmp	.+322    	; 0x2ed8 <ValidateNewData+0x3a8>
    else if(isValidLatitude(newLatitude) == 1){
        //screen_write_formatted_text("Neteisinga platuma!", 3, ALIGN_CENTER); // Lithuanian
        screen_write_formatted_text("Wrong latitude!", 3, ALIGN_CENTER); // English
        *step = 22; // put marker on latitude
    }
    else if(isValidLongitude(newLongitude) == 1){
    2d96:	5b 81       	ldd	r21, Y+3	; 0x03
    2d98:	65 2f       	mov	r22, r21
    2d9a:	76 2d       	mov	r23, r6
    2d9c:	87 2d       	mov	r24, r7
    2d9e:	9a 2d       	mov	r25, r10
    2da0:	0e 94 22 09 	call	0x1244	; 0x1244 <isValidLongitude>
    2da4:	81 30       	cpi	r24, 0x01	; 1
    2da6:	91 f4       	brne	.+36     	; 0x2dcc <ValidateNewData+0x29c>
        //screen_write_formatted_text("Neteisinga ilguma!", 3, ALIGN_CENTER); // Lithuanian
        screen_write_formatted_text("Wrong longitude!", 3, ALIGN_CENTER); // English
    2da8:	8f 93       	push	r24
    2daa:	83 e0       	ldi	r24, 0x03	; 3
    2dac:	8f 93       	push	r24
    2dae:	8b e8       	ldi	r24, 0x8B	; 139
    2db0:	96 e6       	ldi	r25, 0x66	; 102
    2db2:	9f 93       	push	r25
    2db4:	8f 93       	push	r24
    2db6:	0e 94 18 10 	call	0x2030	; 0x2030 <screen_write_formatted_text>
        *step = 30; // put marker on longitude
    2dba:	8e e1       	ldi	r24, 0x1E	; 30
    2dbc:	f2 01       	movw	r30, r4
    2dbe:	80 83       	st	Z, r24
    2dc0:	0f 90       	pop	r0
    2dc2:	0f 90       	pop	r0
    2dc4:	0f 90       	pop	r0
    2dc6:	0f 90       	pop	r0
 * @param newTimeAndPlace Array containing the new time and place data.
 * @param step Pointer to the current step, which will be updated.
 */
void ValidateNewData(uint8_t * newTimeAndPlace, uint8_t *step)
{
    uint8_t lastAction = 21; // In the end, this variable decides if you will go to the main menu with success or not if you put wrong digits // default value is to stay at this page (DateAndLocationChangeWindow)
    2dc8:	85 e1       	ldi	r24, 0x15	; 21
    2dca:	86 c0       	rjmp	.+268    	; 0x2ed8 <ValidateNewData+0x3a8>
        //screen_write_formatted_text("Neteisinga ilguma!", 3, ALIGN_CENTER); // Lithuanian
        screen_write_formatted_text("Wrong longitude!", 3, ALIGN_CENTER); // English
        *step = 30; // put marker on longitude
    }
    else{                                        
        *step = 0;
    2dcc:	d2 01       	movw	r26, r4
    2dce:	1c 92       	st	X, r1
        lastAction = 0; // all good, go to main window
        //screen_write_formatted_text("Isaugota :D", 3, ALIGN_CENTER); // Lithuanian // display success message
        screen_write_formatted_text("Saved :D", 3, ALIGN_CENTER); // English
    2dd0:	ee 24       	eor	r14, r14
    2dd2:	e3 94       	inc	r14
    2dd4:	ef 92       	push	r14
    2dd6:	83 e0       	ldi	r24, 0x03	; 3
    2dd8:	8f 93       	push	r24
    2dda:	8c e9       	ldi	r24, 0x9C	; 156
    2ddc:	96 e6       	ldi	r25, 0x66	; 102
    2dde:	9f 93       	push	r25
    2de0:	8f 93       	push	r24
    2de2:	0e 94 18 10 	call	0x2030	; 0x2030 <screen_write_formatted_text>
        PORTF.OUTCLR = PIN2_bm; // Ready to set time and location
    2de6:	0f 2e       	mov	r0, r31
    2de8:	f0 ea       	ldi	r31, 0xA0	; 160
    2dea:	8f 2e       	mov	r8, r31
    2dec:	f4 e0       	ldi	r31, 0x04	; 4
    2dee:	9f 2e       	mov	r9, r31
    2df0:	f0 2d       	mov	r31, r0
    2df2:	04 e0       	ldi	r16, 0x04	; 4
    2df4:	f4 01       	movw	r30, r8
    2df6:	06 83       	std	Z+6, r16	; 0x06
    2df8:	8f e5       	ldi	r24, 0x5F	; 95
    2dfa:	9a ee       	ldi	r25, 0xEA	; 234
    2dfc:	01 97       	sbiw	r24, 0x01	; 1
    2dfe:	f1 f7       	brne	.-4      	; 0x2dfc <ValidateNewData+0x2cc>
    2e00:	00 c0       	rjmp	.+0      	; 0x2e02 <ValidateNewData+0x2d2>
    2e02:	00 00       	nop
        _delay_ms(10); // wait some for clock device to end current action
        USART_printf(1, "<%d%d%d%d%d%d%d%d%d%d%d%d%d%d0|%d|%3.4f|%3.4f>\r\n", // sending new data to clock device
        newTimeAndPlace[0], newTimeAndPlace[1], newTimeAndPlace[2], newTimeAndPlace[3],
        newTimeAndPlace[4], newTimeAndPlace[5], newTimeAndPlace[6], newTimeAndPlace[7],
        newTimeAndPlace[8], newTimeAndPlace[9], newTimeAndPlace[10], newTimeAndPlace[11],
        newTimeAndPlace[12], newTimeAndPlace[13], // data ir laikas
    2e04:	ad 81       	ldd	r26, Y+5	; 0x05
    2e06:	be 81       	ldd	r27, Y+6	; 0x06
    2e08:	1d 96       	adiw	r26, 0x0d	; 13
    2e0a:	2c 90       	ld	r2, X
    2e0c:	1d 97       	sbiw	r26, 0x0d	; 13
    2e0e:	1c 96       	adiw	r26, 0x0c	; 12
    2e10:	3c 90       	ld	r3, X
    2e12:	1c 97       	sbiw	r26, 0x0c	; 12
        PORTF.OUTCLR = PIN2_bm; // Ready to set time and location
        _delay_ms(10); // wait some for clock device to end current action
        USART_printf(1, "<%d%d%d%d%d%d%d%d%d%d%d%d%d%d0|%d|%3.4f|%3.4f>\r\n", // sending new data to clock device
        newTimeAndPlace[0], newTimeAndPlace[1], newTimeAndPlace[2], newTimeAndPlace[3],
        newTimeAndPlace[4], newTimeAndPlace[5], newTimeAndPlace[6], newTimeAndPlace[7],
        newTimeAndPlace[8], newTimeAndPlace[9], newTimeAndPlace[10], newTimeAndPlace[11],
    2e14:	1b 96       	adiw	r26, 0x0b	; 11
    2e16:	4c 90       	ld	r4, X
    2e18:	1b 97       	sbiw	r26, 0x0b	; 11
    2e1a:	1a 96       	adiw	r26, 0x0a	; 10
    2e1c:	fc 91       	ld	r31, X
    2e1e:	1a 97       	sbiw	r26, 0x0a	; 10
    2e20:	19 96       	adiw	r26, 0x09	; 9
    2e22:	ec 91       	ld	r30, X
    2e24:	19 97       	sbiw	r26, 0x09	; 9
    2e26:	18 96       	adiw	r26, 0x08	; 8
    2e28:	7c 91       	ld	r23, X
    2e2a:	18 97       	sbiw	r26, 0x08	; 8
        screen_write_formatted_text("Saved :D", 3, ALIGN_CENTER); // English
        PORTF.OUTCLR = PIN2_bm; // Ready to set time and location
        _delay_ms(10); // wait some for clock device to end current action
        USART_printf(1, "<%d%d%d%d%d%d%d%d%d%d%d%d%d%d0|%d|%3.4f|%3.4f>\r\n", // sending new data to clock device
        newTimeAndPlace[0], newTimeAndPlace[1], newTimeAndPlace[2], newTimeAndPlace[3],
        newTimeAndPlace[4], newTimeAndPlace[5], newTimeAndPlace[6], newTimeAndPlace[7],
    2e2c:	17 96       	adiw	r26, 0x07	; 7
    2e2e:	6c 91       	ld	r22, X
    2e30:	17 97       	sbiw	r26, 0x07	; 7
    2e32:	16 96       	adiw	r26, 0x06	; 6
    2e34:	5c 91       	ld	r21, X
    2e36:	16 97       	sbiw	r26, 0x06	; 6
    2e38:	15 96       	adiw	r26, 0x05	; 5
    2e3a:	4c 91       	ld	r20, X
    2e3c:	15 97       	sbiw	r26, 0x05	; 5
    2e3e:	14 96       	adiw	r26, 0x04	; 4
    2e40:	3c 91       	ld	r19, X
    2e42:	14 97       	sbiw	r26, 0x04	; 4
        //screen_write_formatted_text("Isaugota :D", 3, ALIGN_CENTER); // Lithuanian // display success message
        screen_write_formatted_text("Saved :D", 3, ALIGN_CENTER); // English
        PORTF.OUTCLR = PIN2_bm; // Ready to set time and location
        _delay_ms(10); // wait some for clock device to end current action
        USART_printf(1, "<%d%d%d%d%d%d%d%d%d%d%d%d%d%d0|%d|%3.4f|%3.4f>\r\n", // sending new data to clock device
        newTimeAndPlace[0], newTimeAndPlace[1], newTimeAndPlace[2], newTimeAndPlace[3],
    2e44:	13 96       	adiw	r26, 0x03	; 3
    2e46:	2c 91       	ld	r18, X
    2e48:	13 97       	sbiw	r26, 0x03	; 3
    2e4a:	12 96       	adiw	r26, 0x02	; 2
    2e4c:	9c 91       	ld	r25, X
    2e4e:	12 97       	sbiw	r26, 0x02	; 2
    2e50:	11 96       	adiw	r26, 0x01	; 1
    2e52:	8c 91       	ld	r24, X
    2e54:	11 97       	sbiw	r26, 0x01	; 1
    2e56:	bc 91       	ld	r27, X
    2e58:	bc 83       	std	Y+4, r27	; 0x04
        lastAction = 0; // all good, go to main window
        //screen_write_formatted_text("Isaugota :D", 3, ALIGN_CENTER); // Lithuanian // display success message
        screen_write_formatted_text("Saved :D", 3, ALIGN_CENTER); // English
        PORTF.OUTCLR = PIN2_bm; // Ready to set time and location
        _delay_ms(10); // wait some for clock device to end current action
        USART_printf(1, "<%d%d%d%d%d%d%d%d%d%d%d%d%d%d0|%d|%3.4f|%3.4f>\r\n", // sending new data to clock device
    2e5a:	af 92       	push	r10
    2e5c:	7f 92       	push	r7
    2e5e:	6f 92       	push	r6
    2e60:	ab 81       	ldd	r26, Y+3	; 0x03
    2e62:	af 93       	push	r26
    2e64:	bf 92       	push	r11
    2e66:	cf 92       	push	r12
    2e68:	df 92       	push	r13
    2e6a:	ff 92       	push	r15
    2e6c:	a1 2f       	mov	r26, r17
    2e6e:	01 2e       	mov	r0, r17
    2e70:	00 0c       	add	r0, r0
    2e72:	bb 0b       	sbc	r27, r27
    2e74:	bf 93       	push	r27
    2e76:	1f 93       	push	r17
    2e78:	1f 92       	push	r1
    2e7a:	2f 92       	push	r2
    2e7c:	1f 92       	push	r1
    2e7e:	3f 92       	push	r3
    2e80:	1f 92       	push	r1
    2e82:	4f 92       	push	r4
    2e84:	1f 92       	push	r1
    2e86:	ff 93       	push	r31
    2e88:	1f 92       	push	r1
    2e8a:	ef 93       	push	r30
    2e8c:	1f 92       	push	r1
    2e8e:	7f 93       	push	r23
    2e90:	1f 92       	push	r1
    2e92:	6f 93       	push	r22
    2e94:	1f 92       	push	r1
    2e96:	5f 93       	push	r21
    2e98:	1f 92       	push	r1
    2e9a:	4f 93       	push	r20
    2e9c:	1f 92       	push	r1
    2e9e:	3f 93       	push	r19
    2ea0:	1f 92       	push	r1
    2ea2:	2f 93       	push	r18
    2ea4:	1f 92       	push	r1
    2ea6:	9f 93       	push	r25
    2ea8:	1f 92       	push	r1
    2eaa:	8f 93       	push	r24
    2eac:	1f 92       	push	r1
    2eae:	bc 81       	ldd	r27, Y+4	; 0x04
    2eb0:	bf 93       	push	r27
    2eb2:	85 ea       	ldi	r24, 0xA5	; 165
    2eb4:	96 e6       	ldi	r25, 0x66	; 102
    2eb6:	9f 93       	push	r25
    2eb8:	8f 93       	push	r24
    2eba:	ef 92       	push	r14
    2ebc:	0e 94 ad 10 	call	0x215a	; 0x215a <USART_printf>
        newTimeAndPlace[12], newTimeAndPlace[13], // data ir laikas
        newTimeZone, // time zone
        newLatitude, // latitude
        newLongitude // longitude
        );
        Date_Clock.altitude = newAltitude; // and save to this device altitude
    2ec0:	e9 81       	ldd	r30, Y+1	; 0x01
    2ec2:	fa 81       	ldd	r31, Y+2	; 0x02
    2ec4:	e0 93 5f 60 	sts	0x605F, r30	; 0x80605f <Date_Clock+0x18>
    2ec8:	f0 93 60 60 	sts	0x6060, r31	; 0x806060 <Date_Clock+0x19>
        PORTF.OUTSET = PIN2_bm; // Time and location is set, continue normal clock work
    2ecc:	d4 01       	movw	r26, r8
    2ece:	15 96       	adiw	r26, 0x05	; 5
    2ed0:	0c 93       	st	X, r16
    2ed2:	cd bf       	out	0x3d, r28	; 61
    2ed4:	de bf       	out	0x3e, r29	; 62
        screen_write_formatted_text("Wrong longitude!", 3, ALIGN_CENTER); // English
        *step = 30; // put marker on longitude
    }
    else{                                        
        *step = 0;
        lastAction = 0; // all good, go to main window
    2ed6:	80 e0       	ldi	r24, 0x00	; 0
    2ed8:	ff ef       	ldi	r31, 0xFF	; 255
    2eda:	2d e3       	ldi	r18, 0x3D	; 61
    2edc:	39 e4       	ldi	r19, 0x49	; 73
    2ede:	f1 50       	subi	r31, 0x01	; 1
    2ee0:	20 40       	sbci	r18, 0x00	; 0
    2ee2:	30 40       	sbci	r19, 0x00	; 0
    2ee4:	e1 f7       	brne	.-8      	; 0x2ede <ValidateNewData+0x3ae>
    2ee6:	00 c0       	rjmp	.+0      	; 0x2ee8 <ValidateNewData+0x3b8>
    2ee8:	00 00       	nop
        );
        Date_Clock.altitude = newAltitude; // and save to this device altitude
        PORTF.OUTSET = PIN2_bm; // Time and location is set, continue normal clock work
    }
    _delay_ms(1000); // show any message for 1 second
    Keypad3x4.key_held = lastAction; // going to main window if success, and stay if data is wrong
    2eea:	80 93 6b 68 	sts	0x686B, r24	; 0x80686b <Keypad3x4+0x1>
}
    2eee:	26 96       	adiw	r28, 0x06	; 6
    2ef0:	cd bf       	out	0x3d, r28	; 61
    2ef2:	de bf       	out	0x3e, r29	; 62
    2ef4:	df 91       	pop	r29
    2ef6:	cf 91       	pop	r28
    2ef8:	1f 91       	pop	r17
    2efa:	0f 91       	pop	r16
    2efc:	ff 90       	pop	r15
    2efe:	ef 90       	pop	r14
    2f00:	df 90       	pop	r13
    2f02:	cf 90       	pop	r12
    2f04:	bf 90       	pop	r11
    2f06:	af 90       	pop	r10
    2f08:	9f 90       	pop	r9
    2f0a:	8f 90       	pop	r8
    2f0c:	7f 90       	pop	r7
    2f0e:	6f 90       	pop	r6
    2f10:	5f 90       	pop	r5
    2f12:	4f 90       	pop	r4
    2f14:	3f 90       	pop	r3
    2f16:	2f 90       	pop	r2
    2f18:	08 95       	ret

00002f1a <parametersWOerror>:
 * @brief Displays parameters when there are no errors.
 * 
 * This function shows parameters such as date, time, azimuth, elevation, and location data when there are no errors.
 * @param upDown The current step to determine which parameters to display.
 */
void parametersWOerror(uint8_t upDown) { 
    2f1a:	1f 93       	push	r17
    2f1c:	cf 93       	push	r28
    2f1e:	df 93       	push	r29
    2f20:	c8 2f       	mov	r28, r24
    if(upDown < 1){
    2f22:	81 11       	cpse	r24, r1
    2f24:	34 c0       	rjmp	.+104    	; 0x2f8e <parametersWOerror+0x74>
        screen_write_formatted_text("t:", upDown, ALIGN_LEFT);
    2f26:	1f 92       	push	r1
    2f28:	8f 93       	push	r24
    2f2a:	86 ed       	ldi	r24, 0xD6	; 214
    2f2c:	96 e6       	ldi	r25, 0x66	; 102
    2f2e:	9f 93       	push	r25
    2f30:	8f 93       	push	r24
    2f32:	0e 94 18 10 	call	0x2030	; 0x2030 <screen_write_formatted_text>
        screen_write_formatted_text("%4d%02d%02d%02d%02d%02d%d", upDown, ALIGN_RIGHT,
    2f36:	e7 e4       	ldi	r30, 0x47	; 71
    2f38:	f0 e6       	ldi	r31, 0x60	; 96
    2f3a:	85 85       	ldd	r24, Z+13	; 0x0d
    2f3c:	8f 93       	push	r24
    2f3e:	84 85       	ldd	r24, Z+12	; 0x0c
    2f40:	8f 93       	push	r24
    2f42:	83 85       	ldd	r24, Z+11	; 0x0b
    2f44:	8f 93       	push	r24
    2f46:	82 85       	ldd	r24, Z+10	; 0x0a
    2f48:	8f 93       	push	r24
    2f4a:	81 85       	ldd	r24, Z+9	; 0x09
    2f4c:	8f 93       	push	r24
    2f4e:	80 85       	ldd	r24, Z+8	; 0x08
    2f50:	8f 93       	push	r24
    2f52:	87 81       	ldd	r24, Z+7	; 0x07
    2f54:	8f 93       	push	r24
    2f56:	86 81       	ldd	r24, Z+6	; 0x06
    2f58:	8f 93       	push	r24
    2f5a:	85 81       	ldd	r24, Z+5	; 0x05
    2f5c:	8f 93       	push	r24
    2f5e:	84 81       	ldd	r24, Z+4	; 0x04
    2f60:	8f 93       	push	r24
    2f62:	83 81       	ldd	r24, Z+3	; 0x03
    2f64:	8f 93       	push	r24
    2f66:	82 81       	ldd	r24, Z+2	; 0x02
    2f68:	8f 93       	push	r24
    2f6a:	81 81       	ldd	r24, Z+1	; 0x01
    2f6c:	8f 93       	push	r24
    2f6e:	80 81       	ld	r24, Z
    2f70:	8f 93       	push	r24
    2f72:	82 e0       	ldi	r24, 0x02	; 2
    2f74:	8f 93       	push	r24
    2f76:	cf 93       	push	r28
    2f78:	89 ed       	ldi	r24, 0xD9	; 217
    2f7a:	96 e6       	ldi	r25, 0x66	; 102
    2f7c:	9f 93       	push	r25
    2f7e:	8f 93       	push	r24
    2f80:	0e 94 18 10 	call	0x2030	; 0x2030 <screen_write_formatted_text>
    2f84:	8d b7       	in	r24, 0x3d	; 61
    2f86:	9e b7       	in	r25, 0x3e	; 62
    2f88:	46 96       	adiw	r24, 0x16	; 22
    2f8a:	8d bf       	out	0x3d, r24	; 61
    2f8c:	9e bf       	out	0x3e, r25	; 62
        Date_Clock.minute,
        Date_Clock.second,
        Date_Clock.hunderts
        );
    }
    if (upDown < 2){
    2f8e:	c2 30       	cpi	r28, 0x02	; 2
    2f90:	10 f5       	brcc	.+68     	; 0x2fd6 <parametersWOerror+0xbc>
        screen_write_formatted_text("az:", 1-upDown, ALIGN_LEFT);
    2f92:	d1 e0       	ldi	r29, 0x01	; 1
    2f94:	dc 1b       	sub	r29, r28
    2f96:	1f 92       	push	r1
    2f98:	df 93       	push	r29
    2f9a:	83 ef       	ldi	r24, 0xF3	; 243
    2f9c:	96 e6       	ldi	r25, 0x66	; 102
    2f9e:	9f 93       	push	r25
    2fa0:	8f 93       	push	r24
    2fa2:	0e 94 18 10 	call	0x2030	; 0x2030 <screen_write_formatted_text>
        screen_write_formatted_text("%3.4f",1-upDown, ALIGN_RIGHT, SUN.azimuth);
    2fa6:	e4 e5       	ldi	r30, 0x54	; 84
    2fa8:	f8 e6       	ldi	r31, 0x68	; 104
    2faa:	84 81       	ldd	r24, Z+4	; 0x04
    2fac:	95 81       	ldd	r25, Z+5	; 0x05
    2fae:	26 81       	ldd	r18, Z+6	; 0x06
    2fb0:	37 81       	ldd	r19, Z+7	; 0x07
    2fb2:	3f 93       	push	r19
    2fb4:	2f 93       	push	r18
    2fb6:	9f 93       	push	r25
    2fb8:	8f 93       	push	r24
    2fba:	82 e0       	ldi	r24, 0x02	; 2
    2fbc:	8f 93       	push	r24
    2fbe:	df 93       	push	r29
    2fc0:	88 ef       	ldi	r24, 0xF8	; 248
    2fc2:	96 e6       	ldi	r25, 0x66	; 102
    2fc4:	9f 93       	push	r25
    2fc6:	8f 93       	push	r24
    2fc8:	0e 94 18 10 	call	0x2030	; 0x2030 <screen_write_formatted_text>
    2fcc:	8d b7       	in	r24, 0x3d	; 61
    2fce:	9e b7       	in	r25, 0x3e	; 62
    2fd0:	0c 96       	adiw	r24, 0x0c	; 12
    2fd2:	8d bf       	out	0x3d, r24	; 61
    2fd4:	9e bf       	out	0x3e, r25	; 62
    }
    if(upDown < 3){
    2fd6:	c3 30       	cpi	r28, 0x03	; 3
    2fd8:	10 f5       	brcc	.+68     	; 0x301e <parametersWOerror+0x104>
        screen_write_formatted_text("el.:", 2-upDown, ALIGN_LEFT);
    2fda:	12 e0       	ldi	r17, 0x02	; 2
    2fdc:	d1 2f       	mov	r29, r17
    2fde:	dc 1b       	sub	r29, r28
    2fe0:	1f 92       	push	r1
    2fe2:	df 93       	push	r29
    2fe4:	83 e0       	ldi	r24, 0x03	; 3
    2fe6:	97 e6       	ldi	r25, 0x67	; 103
    2fe8:	9f 93       	push	r25
    2fea:	8f 93       	push	r24
    2fec:	0e 94 18 10 	call	0x2030	; 0x2030 <screen_write_formatted_text>
        screen_write_formatted_text("%3.4f", 2-upDown, ALIGN_RIGHT, SUN.elevation);
    2ff0:	e4 e5       	ldi	r30, 0x54	; 84
    2ff2:	f8 e6       	ldi	r31, 0x68	; 104
    2ff4:	80 81       	ld	r24, Z
    2ff6:	91 81       	ldd	r25, Z+1	; 0x01
    2ff8:	22 81       	ldd	r18, Z+2	; 0x02
    2ffa:	33 81       	ldd	r19, Z+3	; 0x03
    2ffc:	3f 93       	push	r19
    2ffe:	2f 93       	push	r18
    3000:	9f 93       	push	r25
    3002:	8f 93       	push	r24
    3004:	1f 93       	push	r17
    3006:	df 93       	push	r29
    3008:	88 ef       	ldi	r24, 0xF8	; 248
    300a:	96 e6       	ldi	r25, 0x66	; 102
    300c:	9f 93       	push	r25
    300e:	8f 93       	push	r24
    3010:	0e 94 18 10 	call	0x2030	; 0x2030 <screen_write_formatted_text>
    3014:	8d b7       	in	r24, 0x3d	; 61
    3016:	9e b7       	in	r25, 0x3e	; 62
    3018:	0c 96       	adiw	r24, 0x0c	; 12
    301a:	8d bf       	out	0x3d, r24	; 61
    301c:	9e bf       	out	0x3e, r25	; 62
    }
    if (upDown < 4)
    301e:	c4 30       	cpi	r28, 0x04	; 4
    3020:	10 f5       	brcc	.+68     	; 0x3066 <parametersWOerror+0x14c>
    {
        //screen_write_formatted_text("kor. el.:", 3-upDown, ALIGN_LEFT); // Lithuanian
        screen_write_formatted_text("adj. el.:", 3-upDown, ALIGN_LEFT); // English
    3022:	d3 e0       	ldi	r29, 0x03	; 3
    3024:	dc 1b       	sub	r29, r28
    3026:	1f 92       	push	r1
    3028:	df 93       	push	r29
    302a:	8e ef       	ldi	r24, 0xFE	; 254
    302c:	96 e6       	ldi	r25, 0x66	; 102
    302e:	9f 93       	push	r25
    3030:	8f 93       	push	r24
    3032:	0e 94 18 10 	call	0x2030	; 0x2030 <screen_write_formatted_text>
        screen_write_formatted_text("%3.4f", 3-upDown, ALIGN_RIGHT, SUN.adjelevation);
    3036:	e4 e5       	ldi	r30, 0x54	; 84
    3038:	f8 e6       	ldi	r31, 0x68	; 104
    303a:	80 85       	ldd	r24, Z+8	; 0x08
    303c:	91 85       	ldd	r25, Z+9	; 0x09
    303e:	22 85       	ldd	r18, Z+10	; 0x0a
    3040:	33 85       	ldd	r19, Z+11	; 0x0b
    3042:	3f 93       	push	r19
    3044:	2f 93       	push	r18
    3046:	9f 93       	push	r25
    3048:	8f 93       	push	r24
    304a:	82 e0       	ldi	r24, 0x02	; 2
    304c:	8f 93       	push	r24
    304e:	df 93       	push	r29
    3050:	88 ef       	ldi	r24, 0xF8	; 248
    3052:	96 e6       	ldi	r25, 0x66	; 102
    3054:	9f 93       	push	r25
    3056:	8f 93       	push	r24
    3058:	0e 94 18 10 	call	0x2030	; 0x2030 <screen_write_formatted_text>
    305c:	8d b7       	in	r24, 0x3d	; 61
    305e:	9e b7       	in	r25, 0x3e	; 62
    3060:	0c 96       	adiw	r24, 0x0c	; 12
    3062:	8d bf       	out	0x3d, r24	; 61
    3064:	9e bf       	out	0x3e, r25	; 62
    }
    if (upDown > 4)
    3066:	c5 30       	cpi	r28, 0x05	; 5
    3068:	f0 f0       	brcs	.+60     	; 0x30a6 <parametersWOerror+0x18c>
    {
        //screen_write_formatted_text("laik. z:", 12-upDown, ALIGN_LEFT); // Lithuanian
        screen_write_formatted_text("t.z:", 12-upDown, ALIGN_LEFT); // English
    306a:	dc e0       	ldi	r29, 0x0C	; 12
    306c:	dc 1b       	sub	r29, r28
    306e:	1f 92       	push	r1
    3070:	df 93       	push	r29
    3072:	89 e0       	ldi	r24, 0x09	; 9
    3074:	97 e6       	ldi	r25, 0x67	; 103
    3076:	9f 93       	push	r25
    3078:	8f 93       	push	r24
    307a:	0e 94 18 10 	call	0x2030	; 0x2030 <screen_write_formatted_text>
        screen_write_formatted_text("%d", 12-upDown, ALIGN_RIGHT, Date_Clock.timezone);
    307e:	e7 e4       	ldi	r30, 0x47	; 71
    3080:	f0 e6       	ldi	r31, 0x60	; 96
    3082:	87 89       	ldd	r24, Z+23	; 0x17
    3084:	8f 93       	push	r24
    3086:	86 89       	ldd	r24, Z+22	; 0x16
    3088:	8f 93       	push	r24
    308a:	82 e0       	ldi	r24, 0x02	; 2
    308c:	8f 93       	push	r24
    308e:	df 93       	push	r29
    3090:	83 e8       	ldi	r24, 0x83	; 131
    3092:	95 e6       	ldi	r25, 0x65	; 101
    3094:	9f 93       	push	r25
    3096:	8f 93       	push	r24
    3098:	0e 94 18 10 	call	0x2030	; 0x2030 <screen_write_formatted_text>
    309c:	8d b7       	in	r24, 0x3d	; 61
    309e:	9e b7       	in	r25, 0x3e	; 62
    30a0:	0a 96       	adiw	r24, 0x0a	; 10
    30a2:	8d bf       	out	0x3d, r24	; 61
    30a4:	9e bf       	out	0x3e, r25	; 62
    }
    if (upDown > 5)
    30a6:	c6 30       	cpi	r28, 0x06	; 6
    30a8:	10 f1       	brcs	.+68     	; 0x30ee <parametersWOerror+0x1d4>
    {
        //screen_write_formatted_text("plat. :", 13-upDown, ALIGN_LEFT); // Lithuanian
        screen_write_formatted_text("lat. :", 13-upDown, ALIGN_LEFT); // English
    30aa:	dd e0       	ldi	r29, 0x0D	; 13
    30ac:	dc 1b       	sub	r29, r28
    30ae:	1f 92       	push	r1
    30b0:	df 93       	push	r29
    30b2:	8e e0       	ldi	r24, 0x0E	; 14
    30b4:	97 e6       	ldi	r25, 0x67	; 103
    30b6:	9f 93       	push	r25
    30b8:	8f 93       	push	r24
    30ba:	0e 94 18 10 	call	0x2030	; 0x2030 <screen_write_formatted_text>
        screen_write_formatted_text("%2.4f", 13-upDown, ALIGN_RIGHT, Date_Clock.latitude);
    30be:	e7 e4       	ldi	r30, 0x47	; 71
    30c0:	f0 e6       	ldi	r31, 0x60	; 96
    30c2:	81 89       	ldd	r24, Z+17	; 0x11
    30c4:	8f 93       	push	r24
    30c6:	80 89       	ldd	r24, Z+16	; 0x10
    30c8:	8f 93       	push	r24
    30ca:	87 85       	ldd	r24, Z+15	; 0x0f
    30cc:	8f 93       	push	r24
    30ce:	86 85       	ldd	r24, Z+14	; 0x0e
    30d0:	8f 93       	push	r24
    30d2:	82 e0       	ldi	r24, 0x02	; 2
    30d4:	8f 93       	push	r24
    30d6:	df 93       	push	r29
    30d8:	86 e1       	ldi	r24, 0x16	; 22
    30da:	97 e6       	ldi	r25, 0x67	; 103
    30dc:	9f 93       	push	r25
    30de:	8f 93       	push	r24
    30e0:	0e 94 18 10 	call	0x2030	; 0x2030 <screen_write_formatted_text>
    30e4:	8d b7       	in	r24, 0x3d	; 61
    30e6:	9e b7       	in	r25, 0x3e	; 62
    30e8:	0c 96       	adiw	r24, 0x0c	; 12
    30ea:	8d bf       	out	0x3d, r24	; 61
    30ec:	9e bf       	out	0x3e, r25	; 62
    }
    if (upDown > 6)
    30ee:	c7 30       	cpi	r28, 0x07	; 7
    30f0:	18 f1       	brcs	.+70     	; 0x3138 <parametersWOerror+0x21e>
    {
        //screen_write_formatted_text("ilg. :", 14-upDown, ALIGN_LEFT); // Lithuanian
        screen_write_formatted_text("long. :", 14-upDown, ALIGN_LEFT); // English
    30f2:	8e e0       	ldi	r24, 0x0E	; 14
    30f4:	8c 1b       	sub	r24, r28
    30f6:	c8 2f       	mov	r28, r24
    30f8:	1f 92       	push	r1
    30fa:	8f 93       	push	r24
    30fc:	8c e1       	ldi	r24, 0x1C	; 28
    30fe:	97 e6       	ldi	r25, 0x67	; 103
    3100:	9f 93       	push	r25
    3102:	8f 93       	push	r24
    3104:	0e 94 18 10 	call	0x2030	; 0x2030 <screen_write_formatted_text>
        screen_write_formatted_text("%3.4f", 14-upDown, ALIGN_RIGHT, Date_Clock.longitude);
    3108:	e7 e4       	ldi	r30, 0x47	; 71
    310a:	f0 e6       	ldi	r31, 0x60	; 96
    310c:	85 89       	ldd	r24, Z+21	; 0x15
    310e:	8f 93       	push	r24
    3110:	84 89       	ldd	r24, Z+20	; 0x14
    3112:	8f 93       	push	r24
    3114:	83 89       	ldd	r24, Z+19	; 0x13
    3116:	8f 93       	push	r24
    3118:	82 89       	ldd	r24, Z+18	; 0x12
    311a:	8f 93       	push	r24
    311c:	82 e0       	ldi	r24, 0x02	; 2
    311e:	8f 93       	push	r24
    3120:	cf 93       	push	r28
    3122:	88 ef       	ldi	r24, 0xF8	; 248
    3124:	96 e6       	ldi	r25, 0x66	; 102
    3126:	9f 93       	push	r25
    3128:	8f 93       	push	r24
    312a:	0e 94 18 10 	call	0x2030	; 0x2030 <screen_write_formatted_text>
    312e:	8d b7       	in	r24, 0x3d	; 61
    3130:	9e b7       	in	r25, 0x3e	; 62
    3132:	0c 96       	adiw	r24, 0x0c	; 12
    3134:	8d bf       	out	0x3d, r24	; 61
    3136:	9e bf       	out	0x3e, r25	; 62
    }
}
    3138:	df 91       	pop	r29
    313a:	cf 91       	pop	r28
    313c:	1f 91       	pop	r17
    313e:	08 95       	ret

00003140 <parametersWerror>:
 * @brief Displays parameters when there are errors.
 * 
 * This function shows parameters related to sensor readings and altitude when there are errors.
 * @param upDown The current step to determine which parameters to display.
 */
void parametersWerror(uint8_t upDown){ 
    3140:	cf 93       	push	r28
    3142:	df 93       	push	r29
    3144:	c8 2f       	mov	r28, r24
    if (upDown < 5)
    3146:	85 30       	cpi	r24, 0x05	; 5
    3148:	10 f5       	brcc	.+68     	; 0x318e <parametersWerror+0x4e>
    {
        screen_write_formatted_text("bmp T C:", 4-upDown, ALIGN_LEFT);
    314a:	d4 e0       	ldi	r29, 0x04	; 4
    314c:	d8 1b       	sub	r29, r24
    314e:	1f 92       	push	r1
    3150:	df 93       	push	r29
    3152:	85 e2       	ldi	r24, 0x25	; 37
    3154:	97 e6       	ldi	r25, 0x67	; 103
    3156:	9f 93       	push	r25
    3158:	8f 93       	push	r24
    315a:	0e 94 18 10 	call	0x2030	; 0x2030 <screen_write_formatted_text>
        screen_write_formatted_text("%3.2f", 4-upDown, ALIGN_RIGHT, BMP280.Temperature);
    315e:	ec e0       	ldi	r30, 0x0C	; 12
    3160:	f0 e6       	ldi	r31, 0x60	; 96
    3162:	81 81       	ldd	r24, Z+1	; 0x01
    3164:	92 81       	ldd	r25, Z+2	; 0x02
    3166:	23 81       	ldd	r18, Z+3	; 0x03
    3168:	34 81       	ldd	r19, Z+4	; 0x04
    316a:	3f 93       	push	r19
    316c:	2f 93       	push	r18
    316e:	9f 93       	push	r25
    3170:	8f 93       	push	r24
    3172:	82 e0       	ldi	r24, 0x02	; 2
    3174:	8f 93       	push	r24
    3176:	df 93       	push	r29
    3178:	8f e2       	ldi	r24, 0x2F	; 47
    317a:	97 e6       	ldi	r25, 0x67	; 103
    317c:	9f 93       	push	r25
    317e:	8f 93       	push	r24
    3180:	0e 94 18 10 	call	0x2030	; 0x2030 <screen_write_formatted_text>
    3184:	8d b7       	in	r24, 0x3d	; 61
    3186:	9e b7       	in	r25, 0x3e	; 62
    3188:	0c 96       	adiw	r24, 0x0c	; 12
    318a:	8d bf       	out	0x3d, r24	; 61
    318c:	9e bf       	out	0x3e, r25	; 62
    }
    if (upDown < 6)
    318e:	c6 30       	cpi	r28, 0x06	; 6
    3190:	10 f5       	brcc	.+68     	; 0x31d6 <parametersWerror+0x96>
    {
        screen_write_formatted_text("sht T C:", 5-upDown, ALIGN_LEFT);
    3192:	d5 e0       	ldi	r29, 0x05	; 5
    3194:	dc 1b       	sub	r29, r28
    3196:	1f 92       	push	r1
    3198:	df 93       	push	r29
    319a:	85 e3       	ldi	r24, 0x35	; 53
    319c:	97 e6       	ldi	r25, 0x67	; 103
    319e:	9f 93       	push	r25
    31a0:	8f 93       	push	r24
    31a2:	0e 94 18 10 	call	0x2030	; 0x2030 <screen_write_formatted_text>
        screen_write_formatted_text("%3.2f", 5-upDown, ALIGN_RIGHT, SHT21.T);
    31a6:	e8 e6       	ldi	r30, 0x68	; 104
    31a8:	f0 e6       	ldi	r31, 0x60	; 96
    31aa:	84 81       	ldd	r24, Z+4	; 0x04
    31ac:	95 81       	ldd	r25, Z+5	; 0x05
    31ae:	26 81       	ldd	r18, Z+6	; 0x06
    31b0:	37 81       	ldd	r19, Z+7	; 0x07
    31b2:	3f 93       	push	r19
    31b4:	2f 93       	push	r18
    31b6:	9f 93       	push	r25
    31b8:	8f 93       	push	r24
    31ba:	82 e0       	ldi	r24, 0x02	; 2
    31bc:	8f 93       	push	r24
    31be:	df 93       	push	r29
    31c0:	8f e2       	ldi	r24, 0x2F	; 47
    31c2:	97 e6       	ldi	r25, 0x67	; 103
    31c4:	9f 93       	push	r25
    31c6:	8f 93       	push	r24
    31c8:	0e 94 18 10 	call	0x2030	; 0x2030 <screen_write_formatted_text>
    31cc:	8d b7       	in	r24, 0x3d	; 61
    31ce:	9e b7       	in	r25, 0x3e	; 62
    31d0:	0c 96       	adiw	r24, 0x0c	; 12
    31d2:	8d bf       	out	0x3d, r24	; 61
    31d4:	9e bf       	out	0x3e, r25	; 62
    }
    if (upDown < 7)
    31d6:	c7 30       	cpi	r28, 0x07	; 7
    31d8:	10 f5       	brcc	.+68     	; 0x321e <parametersWerror+0xde>
    {
        screen_write_formatted_text("p hPa:", 6-upDown, ALIGN_LEFT);
    31da:	d6 e0       	ldi	r29, 0x06	; 6
    31dc:	dc 1b       	sub	r29, r28
    31de:	1f 92       	push	r1
    31e0:	df 93       	push	r29
    31e2:	8f e3       	ldi	r24, 0x3F	; 63
    31e4:	97 e6       	ldi	r25, 0x67	; 103
    31e6:	9f 93       	push	r25
    31e8:	8f 93       	push	r24
    31ea:	0e 94 18 10 	call	0x2030	; 0x2030 <screen_write_formatted_text>
        screen_write_formatted_text("%3.4f", 6-upDown, ALIGN_RIGHT, BMP280.Pressure);
    31ee:	ec e0       	ldi	r30, 0x0C	; 12
    31f0:	f0 e6       	ldi	r31, 0x60	; 96
    31f2:	80 85       	ldd	r24, Z+8	; 0x08
    31f4:	8f 93       	push	r24
    31f6:	87 81       	ldd	r24, Z+7	; 0x07
    31f8:	8f 93       	push	r24
    31fa:	86 81       	ldd	r24, Z+6	; 0x06
    31fc:	8f 93       	push	r24
    31fe:	85 81       	ldd	r24, Z+5	; 0x05
    3200:	8f 93       	push	r24
    3202:	82 e0       	ldi	r24, 0x02	; 2
    3204:	8f 93       	push	r24
    3206:	df 93       	push	r29
    3208:	88 ef       	ldi	r24, 0xF8	; 248
    320a:	96 e6       	ldi	r25, 0x66	; 102
    320c:	9f 93       	push	r25
    320e:	8f 93       	push	r24
    3210:	0e 94 18 10 	call	0x2030	; 0x2030 <screen_write_formatted_text>
    3214:	8d b7       	in	r24, 0x3d	; 61
    3216:	9e b7       	in	r25, 0x3e	; 62
    3218:	0c 96       	adiw	r24, 0x0c	; 12
    321a:	8d bf       	out	0x3d, r24	; 61
    321c:	9e bf       	out	0x3e, r25	; 62
    }
    if (upDown < 8)
    321e:	c8 30       	cpi	r28, 0x08	; 8
    3220:	10 f5       	brcc	.+68     	; 0x3266 <parametersWerror+0x126>
    {
        screen_write_formatted_text("rh %%:", 7-upDown, ALIGN_LEFT);
    3222:	d7 e0       	ldi	r29, 0x07	; 7
    3224:	dc 1b       	sub	r29, r28
    3226:	1f 92       	push	r1
    3228:	df 93       	push	r29
    322a:	86 e4       	ldi	r24, 0x46	; 70
    322c:	97 e6       	ldi	r25, 0x67	; 103
    322e:	9f 93       	push	r25
    3230:	8f 93       	push	r24
    3232:	0e 94 18 10 	call	0x2030	; 0x2030 <screen_write_formatted_text>
        screen_write_formatted_text("%3.2f", 7-upDown, ALIGN_RIGHT, SHT21.RH);
    3236:	e8 e6       	ldi	r30, 0x68	; 104
    3238:	f0 e6       	ldi	r31, 0x60	; 96
    323a:	80 85       	ldd	r24, Z+8	; 0x08
    323c:	91 85       	ldd	r25, Z+9	; 0x09
    323e:	22 85       	ldd	r18, Z+10	; 0x0a
    3240:	33 85       	ldd	r19, Z+11	; 0x0b
    3242:	3f 93       	push	r19
    3244:	2f 93       	push	r18
    3246:	9f 93       	push	r25
    3248:	8f 93       	push	r24
    324a:	82 e0       	ldi	r24, 0x02	; 2
    324c:	8f 93       	push	r24
    324e:	df 93       	push	r29
    3250:	8f e2       	ldi	r24, 0x2F	; 47
    3252:	97 e6       	ldi	r25, 0x67	; 103
    3254:	9f 93       	push	r25
    3256:	8f 93       	push	r24
    3258:	0e 94 18 10 	call	0x2030	; 0x2030 <screen_write_formatted_text>
    325c:	8d b7       	in	r24, 0x3d	; 61
    325e:	9e b7       	in	r25, 0x3e	; 62
    3260:	0c 96       	adiw	r24, 0x0c	; 12
    3262:	8d bf       	out	0x3d, r24	; 61
    3264:	9e bf       	out	0x3e, r25	; 62
    }
    if (upDown > 0 && upDown <= 8)
    3266:	8f ef       	ldi	r24, 0xFF	; 255
    3268:	8c 0f       	add	r24, r28
    326a:	88 30       	cpi	r24, 0x08	; 8
    326c:	10 f5       	brcc	.+68     	; 0x32b2 <parametersWerror+0x172>
    {
        //screen_write_formatted_text("nk.aukt. m:", 8-upDown, ALIGN_LEFT); // Lithuanian
        screen_write_formatted_text("not adj.alt. m:", 8-upDown, ALIGN_LEFT); // English
    326e:	d8 e0       	ldi	r29, 0x08	; 8
    3270:	dc 1b       	sub	r29, r28
    3272:	1f 92       	push	r1
    3274:	df 93       	push	r29
    3276:	8d e4       	ldi	r24, 0x4D	; 77
    3278:	97 e6       	ldi	r25, 0x67	; 103
    327a:	9f 93       	push	r25
    327c:	8f 93       	push	r24
    327e:	0e 94 18 10 	call	0x2030	; 0x2030 <screen_write_formatted_text>
        screen_write_formatted_text("%4.1f", 8-upDown, ALIGN_RIGHT, Altitude.UNCOMP);
    3282:	e0 e0       	ldi	r30, 0x00	; 0
    3284:	f0 e6       	ldi	r31, 0x60	; 96
    3286:	83 81       	ldd	r24, Z+3	; 0x03
    3288:	8f 93       	push	r24
    328a:	82 81       	ldd	r24, Z+2	; 0x02
    328c:	8f 93       	push	r24
    328e:	81 81       	ldd	r24, Z+1	; 0x01
    3290:	8f 93       	push	r24
    3292:	80 81       	ld	r24, Z
    3294:	8f 93       	push	r24
    3296:	82 e0       	ldi	r24, 0x02	; 2
    3298:	8f 93       	push	r24
    329a:	df 93       	push	r29
    329c:	8d e5       	ldi	r24, 0x5D	; 93
    329e:	97 e6       	ldi	r25, 0x67	; 103
    32a0:	9f 93       	push	r25
    32a2:	8f 93       	push	r24
    32a4:	0e 94 18 10 	call	0x2030	; 0x2030 <screen_write_formatted_text>
    32a8:	8d b7       	in	r24, 0x3d	; 61
    32aa:	9e b7       	in	r25, 0x3e	; 62
    32ac:	0c 96       	adiw	r24, 0x0c	; 12
    32ae:	8d bf       	out	0x3d, r24	; 61
    32b0:	9e bf       	out	0x3e, r25	; 62
    }
    if (upDown > 1 && upDown <= 9)
    32b2:	8e ef       	ldi	r24, 0xFE	; 254
    32b4:	8c 0f       	add	r24, r28
    32b6:	88 30       	cpi	r24, 0x08	; 8
    32b8:	10 f5       	brcc	.+68     	; 0x32fe <parametersWerror+0x1be>
    {
        //screen_write_formatted_text("k.aukt. m:", 9-upDown, ALIGN_LEFT); // Lithuanian
        screen_write_formatted_text("adj.alt. m:", 9-upDown, ALIGN_LEFT); // English
    32ba:	d9 e0       	ldi	r29, 0x09	; 9
    32bc:	dc 1b       	sub	r29, r28
    32be:	1f 92       	push	r1
    32c0:	df 93       	push	r29
    32c2:	81 e5       	ldi	r24, 0x51	; 81
    32c4:	97 e6       	ldi	r25, 0x67	; 103
    32c6:	9f 93       	push	r25
    32c8:	8f 93       	push	r24
    32ca:	0e 94 18 10 	call	0x2030	; 0x2030 <screen_write_formatted_text>
        screen_write_formatted_text("%4.1f", 9-upDown, ALIGN_RIGHT, Altitude.COMP);
    32ce:	e0 e0       	ldi	r30, 0x00	; 0
    32d0:	f0 e6       	ldi	r31, 0x60	; 96
    32d2:	87 81       	ldd	r24, Z+7	; 0x07
    32d4:	8f 93       	push	r24
    32d6:	86 81       	ldd	r24, Z+6	; 0x06
    32d8:	8f 93       	push	r24
    32da:	85 81       	ldd	r24, Z+5	; 0x05
    32dc:	8f 93       	push	r24
    32de:	84 81       	ldd	r24, Z+4	; 0x04
    32e0:	8f 93       	push	r24
    32e2:	82 e0       	ldi	r24, 0x02	; 2
    32e4:	8f 93       	push	r24
    32e6:	df 93       	push	r29
    32e8:	8d e5       	ldi	r24, 0x5D	; 93
    32ea:	97 e6       	ldi	r25, 0x67	; 103
    32ec:	9f 93       	push	r25
    32ee:	8f 93       	push	r24
    32f0:	0e 94 18 10 	call	0x2030	; 0x2030 <screen_write_formatted_text>
    32f4:	8d b7       	in	r24, 0x3d	; 61
    32f6:	9e b7       	in	r25, 0x3e	; 62
    32f8:	0c 96       	adiw	r24, 0x0c	; 12
    32fa:	8d bf       	out	0x3d, r24	; 61
    32fc:	9e bf       	out	0x3e, r25	; 62
    }
    if (upDown > 2 && upDown <= 10)
    32fe:	8d ef       	ldi	r24, 0xFD	; 253
    3300:	8c 0f       	add	r24, r28
    3302:	88 30       	cpi	r24, 0x08	; 8
    3304:	10 f5       	brcc	.+68     	; 0x334a <parametersWerror+0x20a>
    {
        //screen_write_formatted_text("vid.aukt. m:", 10-upDown, ALIGN_LEFT); // Lithuanian
        screen_write_formatted_text("avg.alt. m:", 10-upDown, ALIGN_LEFT); // English
    3306:	da e0       	ldi	r29, 0x0A	; 10
    3308:	dc 1b       	sub	r29, r28
    330a:	1f 92       	push	r1
    330c:	df 93       	push	r29
    330e:	83 e6       	ldi	r24, 0x63	; 99
    3310:	97 e6       	ldi	r25, 0x67	; 103
    3312:	9f 93       	push	r25
    3314:	8f 93       	push	r24
    3316:	0e 94 18 10 	call	0x2030	; 0x2030 <screen_write_formatted_text>
        screen_write_formatted_text("%4.1f", 10-upDown, ALIGN_RIGHT, Altitude.AVRG);
    331a:	e0 e0       	ldi	r30, 0x00	; 0
    331c:	f0 e6       	ldi	r31, 0x60	; 96
    331e:	80 85       	ldd	r24, Z+8	; 0x08
    3320:	91 85       	ldd	r25, Z+9	; 0x09
    3322:	22 85       	ldd	r18, Z+10	; 0x0a
    3324:	33 85       	ldd	r19, Z+11	; 0x0b
    3326:	3f 93       	push	r19
    3328:	2f 93       	push	r18
    332a:	9f 93       	push	r25
    332c:	8f 93       	push	r24
    332e:	82 e0       	ldi	r24, 0x02	; 2
    3330:	8f 93       	push	r24
    3332:	df 93       	push	r29
    3334:	8d e5       	ldi	r24, 0x5D	; 93
    3336:	97 e6       	ldi	r25, 0x67	; 103
    3338:	9f 93       	push	r25
    333a:	8f 93       	push	r24
    333c:	0e 94 18 10 	call	0x2030	; 0x2030 <screen_write_formatted_text>
    3340:	8d b7       	in	r24, 0x3d	; 61
    3342:	9e b7       	in	r25, 0x3e	; 62
    3344:	0c 96       	adiw	r24, 0x0c	; 12
    3346:	8d bf       	out	0x3d, r24	; 61
    3348:	9e bf       	out	0x3e, r25	; 62
    }
    if (upDown > 3 && upDown <= 11)
    334a:	8c ef       	ldi	r24, 0xFC	; 252
    334c:	8c 0f       	add	r24, r28
    334e:	88 30       	cpi	r24, 0x08	; 8
    3350:	f0 f4       	brcc	.+60     	; 0x338e <parametersWerror+0x24e>
    {
        //screen_write_formatted_text("real.aukt. m:", 11-upDown, ALIGN_LEFT); // Lithuanian
        screen_write_formatted_text("rl.alt. m:", 11-upDown, ALIGN_LEFT); // English
    3352:	db e0       	ldi	r29, 0x0B	; 11
    3354:	dc 1b       	sub	r29, r28
    3356:	1f 92       	push	r1
    3358:	df 93       	push	r29
    335a:	8f e6       	ldi	r24, 0x6F	; 111
    335c:	97 e6       	ldi	r25, 0x67	; 103
    335e:	9f 93       	push	r25
    3360:	8f 93       	push	r24
    3362:	0e 94 18 10 	call	0x2030	; 0x2030 <screen_write_formatted_text>
        screen_write_formatted_text("%d", 11-upDown, ALIGN_RIGHT, Date_Clock.altitude);
    3366:	e7 e4       	ldi	r30, 0x47	; 71
    3368:	f0 e6       	ldi	r31, 0x60	; 96
    336a:	81 8d       	ldd	r24, Z+25	; 0x19
    336c:	8f 93       	push	r24
    336e:	80 8d       	ldd	r24, Z+24	; 0x18
    3370:	8f 93       	push	r24
    3372:	82 e0       	ldi	r24, 0x02	; 2
    3374:	8f 93       	push	r24
    3376:	df 93       	push	r29
    3378:	83 e8       	ldi	r24, 0x83	; 131
    337a:	95 e6       	ldi	r25, 0x65	; 101
    337c:	9f 93       	push	r25
    337e:	8f 93       	push	r24
    3380:	0e 94 18 10 	call	0x2030	; 0x2030 <screen_write_formatted_text>
    3384:	8d b7       	in	r24, 0x3d	; 61
    3386:	9e b7       	in	r25, 0x3e	; 62
    3388:	0a 96       	adiw	r24, 0x0a	; 10
    338a:	8d bf       	out	0x3d, r24	; 61
    338c:	9e bf       	out	0x3e, r25	; 62
    }
    if (upDown > 7 && upDown <= 12)
    338e:	88 ef       	ldi	r24, 0xF8	; 248
    3390:	8c 0f       	add	r24, r28
    3392:	85 30       	cpi	r24, 0x05	; 5
    3394:	e0 f4       	brcc	.+56     	; 0x33ce <parametersWerror+0x28e>
    {
        //screen_write_formatted_text("v.g. m/s:", 15-upDown, ALIGN_LEFT); // Lithuanian
        screen_write_formatted_text("w.s. m/s:", 15-upDown, ALIGN_LEFT); // English
    3396:	df e0       	ldi	r29, 0x0F	; 15
    3398:	dc 1b       	sub	r29, r28
    339a:	1f 92       	push	r1
    339c:	df 93       	push	r29
    339e:	8a e7       	ldi	r24, 0x7A	; 122
    33a0:	97 e6       	ldi	r25, 0x67	; 103
    33a2:	9f 93       	push	r25
    33a4:	8f 93       	push	r24
    33a6:	0e 94 18 10 	call	0x2030	; 0x2030 <screen_write_formatted_text>
        screen_write_formatted_text("%d", 15-upDown, ALIGN_RIGHT, Wind.speed);
    33aa:	80 91 6c 68 	lds	r24, 0x686C	; 0x80686c <Wind>
    33ae:	1f 92       	push	r1
    33b0:	8f 93       	push	r24
    33b2:	82 e0       	ldi	r24, 0x02	; 2
    33b4:	8f 93       	push	r24
    33b6:	df 93       	push	r29
    33b8:	83 e8       	ldi	r24, 0x83	; 131
    33ba:	95 e6       	ldi	r25, 0x65	; 101
    33bc:	9f 93       	push	r25
    33be:	8f 93       	push	r24
    33c0:	0e 94 18 10 	call	0x2030	; 0x2030 <screen_write_formatted_text>
    33c4:	8d b7       	in	r24, 0x3d	; 61
    33c6:	9e b7       	in	r25, 0x3e	; 62
    33c8:	0a 96       	adiw	r24, 0x0a	; 10
    33ca:	8d bf       	out	0x3d, r24	; 61
    33cc:	9e bf       	out	0x3e, r25	; 62
    }
    if (upDown > 8 && upDown <= 13)
    33ce:	87 ef       	ldi	r24, 0xF7	; 247
    33d0:	8c 0f       	add	r24, r28
    33d2:	85 30       	cpi	r24, 0x05	; 5
    33d4:	e0 f4       	brcc	.+56     	; 0x340e <parametersWerror+0x2ce>
    {
        //screen_write_formatted_text("v.k.nr:", 16-upDown, ALIGN_LEFT); // Lithuanian
        screen_write_formatted_text("w.d.no:", 16-upDown, ALIGN_LEFT); // English
    33d6:	d0 e1       	ldi	r29, 0x10	; 16
    33d8:	dc 1b       	sub	r29, r28
    33da:	1f 92       	push	r1
    33dc:	df 93       	push	r29
    33de:	84 e8       	ldi	r24, 0x84	; 132
    33e0:	97 e6       	ldi	r25, 0x67	; 103
    33e2:	9f 93       	push	r25
    33e4:	8f 93       	push	r24
    33e6:	0e 94 18 10 	call	0x2030	; 0x2030 <screen_write_formatted_text>
        screen_write_formatted_text("%d", 16-upDown, ALIGN_RIGHT, Wind.direction);
    33ea:	80 91 6d 68 	lds	r24, 0x686D	; 0x80686d <Wind+0x1>
    33ee:	1f 92       	push	r1
    33f0:	8f 93       	push	r24
    33f2:	82 e0       	ldi	r24, 0x02	; 2
    33f4:	8f 93       	push	r24
    33f6:	df 93       	push	r29
    33f8:	83 e8       	ldi	r24, 0x83	; 131
    33fa:	95 e6       	ldi	r25, 0x65	; 101
    33fc:	9f 93       	push	r25
    33fe:	8f 93       	push	r24
    3400:	0e 94 18 10 	call	0x2030	; 0x2030 <screen_write_formatted_text>
    3404:	8d b7       	in	r24, 0x3d	; 61
    3406:	9e b7       	in	r25, 0x3e	; 62
    3408:	0a 96       	adiw	r24, 0x0a	; 10
    340a:	8d bf       	out	0x3d, r24	; 61
    340c:	9e bf       	out	0x3e, r25	; 62
    }
    if (upDown > 9 && upDown <= 14)
    340e:	86 ef       	ldi	r24, 0xF6	; 246
    3410:	8c 0f       	add	r24, r28
    3412:	85 30       	cpi	r24, 0x05	; 5
    3414:	f8 f4       	brcc	.+62     	; 0x3454 <parametersWerror+0x314>
    {
        //screen_write_formatted_text("a.l. mV:", 17-upDown, ALIGN_LEFT); // Lithuanian
        screen_write_formatted_text("l.l. mV:", 17-upDown, ALIGN_LEFT); // English
    3416:	81 e1       	ldi	r24, 0x11	; 17
    3418:	8c 1b       	sub	r24, r28
    341a:	c8 2f       	mov	r28, r24
    341c:	1f 92       	push	r1
    341e:	8f 93       	push	r24
    3420:	8c e8       	ldi	r24, 0x8C	; 140
    3422:	97 e6       	ldi	r25, 0x67	; 103
    3424:	9f 93       	push	r25
    3426:	8f 93       	push	r24
    3428:	0e 94 18 10 	call	0x2030	; 0x2030 <screen_write_formatted_text>
        screen_write_formatted_text("%d", 17-upDown, ALIGN_RIGHT, SUN.sunlevel);
    342c:	e4 e5       	ldi	r30, 0x54	; 84
    342e:	f8 e6       	ldi	r31, 0x68	; 104
    3430:	81 89       	ldd	r24, Z+17	; 0x11
    3432:	8f 93       	push	r24
    3434:	80 89       	ldd	r24, Z+16	; 0x10
    3436:	8f 93       	push	r24
    3438:	82 e0       	ldi	r24, 0x02	; 2
    343a:	8f 93       	push	r24
    343c:	cf 93       	push	r28
    343e:	83 e8       	ldi	r24, 0x83	; 131
    3440:	95 e6       	ldi	r25, 0x65	; 101
    3442:	9f 93       	push	r25
    3444:	8f 93       	push	r24
    3446:	0e 94 18 10 	call	0x2030	; 0x2030 <screen_write_formatted_text>
    344a:	8d b7       	in	r24, 0x3d	; 61
    344c:	9e b7       	in	r25, 0x3e	; 62
    344e:	0a 96       	adiw	r24, 0x0a	; 10
    3450:	8d bf       	out	0x3d, r24	; 61
    3452:	9e bf       	out	0x3e, r25	; 62
    }
}
    3454:	df 91       	pop	r29
    3456:	cf 91       	pop	r28
    3458:	08 95       	ret

0000345a <backButton>:
 * @brief Actions after pressing the back button (* key).
 * 
 * Clears the screen and resets the key held state.
 */
void backButton() { 
    if(Keypad3x4.key == 10){
    345a:	80 91 6a 68 	lds	r24, 0x686A	; 0x80686a <Keypad3x4>
    345e:	8a 30       	cpi	r24, 0x0A	; 10
    3460:	21 f4       	brne	.+8      	; 0x346a <backButton+0x10>
        screen_clear();
    3462:	0e 94 74 0f 	call	0x1ee8	; 0x1ee8 <screen_clear>
        Keypad3x4.key_held = 0;
    3466:	10 92 6b 68 	sts	0x686B, r1	; 0x80686b <Keypad3x4+0x1>
    346a:	08 95       	ret

0000346c <ClockError>:
 * @param place The position on the screen where the error message will appear
 */
void ClockError(int8_t place)
{
	//screen_write_formatted_text("Laikrodio klaida!!!", place, ALIGN_CENTER); //Lithuanian
	screen_write_formatted_text("Clock error!!!", place, ALIGN_CENTER); //English 
    346c:	91 e0       	ldi	r25, 0x01	; 1
    346e:	9f 93       	push	r25
    3470:	8f 93       	push	r24
    3472:	85 e9       	ldi	r24, 0x95	; 149
    3474:	97 e6       	ldi	r25, 0x67	; 103
    3476:	9f 93       	push	r25
    3478:	8f 93       	push	r24
    347a:	0e 94 18 10 	call	0x2030	; 0x2030 <screen_write_formatted_text>
}
    347e:	0f 90       	pop	r0
    3480:	0f 90       	pop	r0
    3482:	0f 90       	pop	r0
    3484:	0f 90       	pop	r0
    3486:	08 95       	ret

00003488 <DateAndLocationChangeWindow>:
void DateAndLocationChangeWindow()
{
	static uint8_t newTimeAndPlace[38], // For data storage
				   step = 0;          // Step of changed data
	static char arrow[38];            // For selection visualization of changed data
	displayDateTimeAndLocation(newTimeAndPlace, arrow, &step);
    3488:	4f e6       	ldi	r20, 0x6F	; 111
    348a:	58 e6       	ldi	r21, 0x68	; 104
    348c:	60 e7       	ldi	r22, 0x70	; 112
    348e:	78 e6       	ldi	r23, 0x68	; 104
    3490:	86 e9       	ldi	r24, 0x96	; 150
    3492:	98 e6       	ldi	r25, 0x68	; 104
    3494:	0e 94 47 11 	call	0x228e	; 0x228e <displayDateTimeAndLocation>
	if (Date_Clock.error == 1) 
    3498:	80 91 61 60 	lds	r24, 0x6061	; 0x806061 <Date_Clock+0x1a>
    349c:	81 30       	cpi	r24, 0x01	; 1
    349e:	21 f4       	brne	.+8      	; 0x34a8 <DateAndLocationChangeWindow+0x20>
		ClockError(3);
    34a0:	83 e0       	ldi	r24, 0x03	; 3
    34a2:	0e 94 36 1a 	call	0x346c	; 0x346c <ClockError>
    34a6:	3c c0       	rjmp	.+120    	; 0x3520 <DateAndLocationChangeWindow+0x98>
	else { // If clock is working correctly
		if ((Keypad3x4.key != 10) && (Keypad3x4.key != 12)) { //if 0-9 are pressed
    34a8:	80 91 6a 68 	lds	r24, 0x686A	; 0x80686a <Keypad3x4>
    34ac:	8a 30       	cpi	r24, 0x0A	; 10
    34ae:	c1 f0       	breq	.+48     	; 0x34e0 <DateAndLocationChangeWindow+0x58>
    34b0:	8c 30       	cpi	r24, 0x0C	; 12
    34b2:	b1 f0       	breq	.+44     	; 0x34e0 <DateAndLocationChangeWindow+0x58>
			while (scan_keypad() != 0);
    34b4:	0e 94 c2 0c 	call	0x1984	; 0x1984 <scan_keypad>
    34b8:	81 11       	cpse	r24, r1
    34ba:	fc cf       	rjmp	.-8      	; 0x34b4 <DateAndLocationChangeWindow+0x2c>
			if (Keypad3x4.key != 0) {
    34bc:	90 91 6a 68 	lds	r25, 0x686A	; 0x80686a <Keypad3x4>
    34c0:	99 23       	and	r25, r25
    34c2:	71 f1       	breq	.+92     	; 0x3520 <DateAndLocationChangeWindow+0x98>
				newTimeAndPlace[step] = (Keypad3x4.key == 11) ? 0 : Keypad3x4.key; // Handle key 0
    34c4:	20 91 6f 68 	lds	r18, 0x686F	; 0x80686f <step.4631>
    34c8:	e2 2f       	mov	r30, r18
    34ca:	f0 e0       	ldi	r31, 0x00	; 0
    34cc:	9b 30       	cpi	r25, 0x0B	; 11
    34ce:	09 f4       	brne	.+2      	; 0x34d2 <DateAndLocationChangeWindow+0x4a>
    34d0:	98 2f       	mov	r25, r24
    34d2:	ea 56       	subi	r30, 0x6A	; 106
    34d4:	f7 49       	sbci	r31, 0x97	; 151
    34d6:	90 83       	st	Z, r25
				step++;
    34d8:	2f 5f       	subi	r18, 0xFF	; 255
    34da:	20 93 6f 68 	sts	0x686F, r18	; 0x80686f <step.4631>
    34de:	20 c0       	rjmp	.+64     	; 0x3520 <DateAndLocationChangeWindow+0x98>
			}
		} 
		else {
			if (Keypad3x4.key == 10 && step > 0) { // if pressed * key
    34e0:	8a 30       	cpi	r24, 0x0A	; 10
    34e2:	41 f4       	brne	.+16     	; 0x34f4 <DateAndLocationChangeWindow+0x6c>
    34e4:	90 91 6f 68 	lds	r25, 0x686F	; 0x80686f <step.4631>
    34e8:	99 23       	and	r25, r25
    34ea:	21 f0       	breq	.+8      	; 0x34f4 <DateAndLocationChangeWindow+0x6c>
				step--;
    34ec:	91 50       	subi	r25, 0x01	; 1
    34ee:	90 93 6f 68 	sts	0x686F, r25	; 0x80686f <step.4631>
    34f2:	16 c0       	rjmp	.+44     	; 0x3520 <DateAndLocationChangeWindow+0x98>
				//newTimeAndPlace[*step] = 0; // uncomment if need to reset digit to 0 after moving back one *step
			} 
			else if (Keypad3x4.key == 12) { //if pressed # key
    34f4:	8c 30       	cpi	r24, 0x0C	; 12
    34f6:	a1 f4       	brne	.+40     	; 0x3520 <DateAndLocationChangeWindow+0x98>
				step = DataExtraction(step, newTimeAndPlace);			
    34f8:	66 e9       	ldi	r22, 0x96	; 150
    34fa:	78 e6       	ldi	r23, 0x68	; 104
    34fc:	80 91 6f 68 	lds	r24, 0x686F	; 0x80686f <step.4631>
    3500:	0e 94 d4 14 	call	0x29a8	; 0x29a8 <DataExtraction>
    3504:	80 93 6f 68 	sts	0x686F, r24	; 0x80686f <step.4631>
				if (step == 38) { //All digits are set. Now checking boundaries of all variables (date/time, time zone, altitude, latitude, and longitude)
    3508:	86 32       	cpi	r24, 0x26	; 38
    350a:	51 f4       	brne	.+20     	; 0x3520 <DateAndLocationChangeWindow+0x98>
					screen_clear(); //clear screen
    350c:	0e 94 74 0f 	call	0x1ee8	; 0x1ee8 <screen_clear>
					ValidateNewData(newTimeAndPlace, &step); //Validate date and show error or success message
    3510:	6f e6       	ldi	r22, 0x6F	; 111
    3512:	78 e6       	ldi	r23, 0x68	; 104
    3514:	86 e9       	ldi	r24, 0x96	; 150
    3516:	98 e6       	ldi	r25, 0x68	; 104
    3518:	0e 94 98 15 	call	0x2b30	; 0x2b30 <ValidateNewData>
					screen_clear(); //clear screen
    351c:	0e 94 74 0f 	call	0x1ee8	; 0x1ee8 <screen_clear>
				}
			}
		}
	}
	if(step == 0)
    3520:	80 91 6f 68 	lds	r24, 0x686F	; 0x80686f <step.4631>
    3524:	81 11       	cpse	r24, r1
    3526:	02 c0       	rjmp	.+4      	; 0x352c <DateAndLocationChangeWindow+0xa4>
		backButton(); //going back to main window
    3528:	0e 94 2d 1a 	call	0x345a	; 0x345a <backButton>
    352c:	08 95       	ret

0000352e <ParameterViewWindow>:
 * @param upDown The parameter indicating the up or down selection for scrolling through parameters
 */
void ParameterViewWindow()
{
	static uint8_t upDown = 0;
			if ((Keypad3x4.key == 8 && upDown < 10) || (Keypad3x4.key == 2 && upDown > 0)) {
    352e:	80 91 6a 68 	lds	r24, 0x686A	; 0x80686a <Keypad3x4>
    3532:	88 30       	cpi	r24, 0x08	; 8
    3534:	21 f4       	brne	.+8      	; 0x353e <ParameterViewWindow+0x10>
    3536:	90 91 6e 68 	lds	r25, 0x686E	; 0x80686e <upDown.4638>
    353a:	9a 30       	cpi	r25, 0x0A	; 10
    353c:	30 f0       	brcs	.+12     	; 0x354a <ParameterViewWindow+0x1c>
    353e:	82 30       	cpi	r24, 0x02	; 2
    3540:	b1 f4       	brne	.+44     	; 0x356e <ParameterViewWindow+0x40>
    3542:	80 91 6e 68 	lds	r24, 0x686E	; 0x80686e <upDown.4638>
    3546:	88 23       	and	r24, r24
    3548:	91 f0       	breq	.+36     	; 0x356e <ParameterViewWindow+0x40>
				while (scan_keypad() != 0); // Wait until the key is released
    354a:	0e 94 c2 0c 	call	0x1984	; 0x1984 <scan_keypad>
    354e:	81 11       	cpse	r24, r1
    3550:	fc cf       	rjmp	.-8      	; 0x354a <ParameterViewWindow+0x1c>
				upDown += (Keypad3x4.key == 8) ? 1 : -1;
    3552:	80 91 6a 68 	lds	r24, 0x686A	; 0x80686a <Keypad3x4>
    3556:	88 30       	cpi	r24, 0x08	; 8
    3558:	11 f4       	brne	.+4      	; 0x355e <ParameterViewWindow+0x30>
    355a:	81 e0       	ldi	r24, 0x01	; 1
    355c:	01 c0       	rjmp	.+2      	; 0x3560 <ParameterViewWindow+0x32>
    355e:	8f ef       	ldi	r24, 0xFF	; 255
    3560:	90 91 6e 68 	lds	r25, 0x686E	; 0x80686e <upDown.4638>
    3564:	89 0f       	add	r24, r25
    3566:	80 93 6e 68 	sts	0x686E, r24	; 0x80686e <upDown.4638>
				screen_clear();
    356a:	0e 94 74 0f 	call	0x1ee8	; 0x1ee8 <screen_clear>
			}
			if (Date_Clock.error == 1) {
    356e:	80 91 61 60 	lds	r24, 0x6061	; 0x806061 <Date_Clock+0x1a>
    3572:	81 30       	cpi	r24, 0x01	; 1
    3574:	99 f4       	brne	.+38     	; 0x359c <ParameterViewWindow+0x6e>
				int8_t place = 0;
				if(upDown >= 5 && upDown < 8)
    3576:	90 91 6e 68 	lds	r25, 0x686E	; 0x80686e <upDown.4638>
    357a:	8b ef       	ldi	r24, 0xFB	; 251
    357c:	89 0f       	add	r24, r25
    357e:	83 30       	cpi	r24, 0x03	; 3
    3580:	28 f0       	brcs	.+10     	; 0x358c <ParameterViewWindow+0x5e>
					place = 7;
				else if(upDown >= 8 && upDown)
    3582:	98 30       	cpi	r25, 0x08	; 8
    3584:	28 f0       	brcs	.+10     	; 0x3590 <ParameterViewWindow+0x62>
					place = 14- upDown;
    3586:	8e e0       	ldi	r24, 0x0E	; 14
    3588:	89 1b       	sub	r24, r25
    358a:	03 c0       	rjmp	.+6      	; 0x3592 <ParameterViewWindow+0x64>
				screen_clear();
			}
			if (Date_Clock.error == 1) {
				int8_t place = 0;
				if(upDown >= 5 && upDown < 8)
					place = 7;
    358c:	87 e0       	ldi	r24, 0x07	; 7
    358e:	01 c0       	rjmp	.+2      	; 0x3592 <ParameterViewWindow+0x64>
				while (scan_keypad() != 0); // Wait until the key is released
				upDown += (Keypad3x4.key == 8) ? 1 : -1;
				screen_clear();
			}
			if (Date_Clock.error == 1) {
				int8_t place = 0;
    3590:	80 e0       	ldi	r24, 0x00	; 0
				if(upDown >= 5 && upDown < 8)
					place = 7;
				else if(upDown >= 8 && upDown)
					place = 14- upDown;
				if(upDown != 4) //if updown is 4 all parameters showing, because at that part of window all parameters are not dependent on data from the clock device
    3592:	94 30       	cpi	r25, 0x04	; 4
    3594:	39 f0       	breq	.+14     	; 0x35a4 <ParameterViewWindow+0x76>
				ClockError(place);	//also scrolling error message if present
    3596:	0e 94 36 1a 	call	0x346c	; 0x346c <ClockError>
    359a:	04 c0       	rjmp	.+8      	; 0x35a4 <ParameterViewWindow+0x76>
			} 
			else 
				parametersWOerror(upDown); //showing those parameters only if the clock device is working normally without errors
    359c:	80 91 6e 68 	lds	r24, 0x686E	; 0x80686e <upDown.4638>
    35a0:	0e 94 8d 17 	call	0x2f1a	; 0x2f1a <parametersWOerror>
		parametersWerror(upDown); //showing these parameters all the time if error is present
    35a4:	80 91 6e 68 	lds	r24, 0x686E	; 0x80686e <upDown.4638>
    35a8:	0e 94 a0 18 	call	0x3140	; 0x3140 <parametersWerror>
		backButton(); // Going back to the main window
    35ac:	0e 94 2d 1a 	call	0x345a	; 0x345a <backButton>
    35b0:	08 95       	ret

000035b2 <MainWindow>:
 * 
 * This function displays the most important parameters like temperature, pressure, humidity, wind speed, etc.
 * 
 */
void MainWindow()
{
    35b2:	ef 92       	push	r14
    35b4:	ff 92       	push	r15
    35b6:	0f 93       	push	r16
    35b8:	1f 93       	push	r17
    35ba:	cf 93       	push	r28
    35bc:	df 93       	push	r29
	//screen_write_formatted_text("Temperatra:", 0, ALIGN_LEFT);//Lithuanian
	screen_write_formatted_text("Temperature:", 0, ALIGN_LEFT); //English
    35be:	1f 92       	push	r1
    35c0:	1f 92       	push	r1
    35c2:	84 ea       	ldi	r24, 0xA4	; 164
    35c4:	97 e6       	ldi	r25, 0x67	; 103
    35c6:	9f 93       	push	r25
    35c8:	8f 93       	push	r24
    35ca:	0e 94 18 10 	call	0x2030	; 0x2030 <screen_write_formatted_text>
	screen_write_formatted_text("%2.02fC", 0, ALIGN_RIGHT, SHT21.T);
    35ce:	c8 e6       	ldi	r28, 0x68	; 104
    35d0:	d0 e6       	ldi	r29, 0x60	; 96
    35d2:	8c 81       	ldd	r24, Y+4	; 0x04
    35d4:	9d 81       	ldd	r25, Y+5	; 0x05
    35d6:	2e 81       	ldd	r18, Y+6	; 0x06
    35d8:	3f 81       	ldd	r19, Y+7	; 0x07
    35da:	3f 93       	push	r19
    35dc:	2f 93       	push	r18
    35de:	9f 93       	push	r25
    35e0:	8f 93       	push	r24
    35e2:	12 e0       	ldi	r17, 0x02	; 2
    35e4:	1f 93       	push	r17
    35e6:	1f 92       	push	r1
    35e8:	81 eb       	ldi	r24, 0xB1	; 177
    35ea:	97 e6       	ldi	r25, 0x67	; 103
    35ec:	9f 93       	push	r25
    35ee:	8f 93       	push	r24
    35f0:	0e 94 18 10 	call	0x2030	; 0x2030 <screen_write_formatted_text>

	//screen_write_formatted_text("Slgis:", 1, ALIGN_LEFT);//Lithuanian
	screen_write_formatted_text("Pressure:", 1, ALIGN_LEFT);//English
    35f4:	1f 92       	push	r1
    35f6:	01 e0       	ldi	r16, 0x01	; 1
    35f8:	0f 93       	push	r16
    35fa:	8a eb       	ldi	r24, 0xBA	; 186
    35fc:	97 e6       	ldi	r25, 0x67	; 103
    35fe:	9f 93       	push	r25
    3600:	8f 93       	push	r24
    3602:	0e 94 18 10 	call	0x2030	; 0x2030 <screen_write_formatted_text>
	screen_write_formatted_text("%4.02fhPa", 1, ALIGN_RIGHT, BMP280.Pressure);
    3606:	ec e0       	ldi	r30, 0x0C	; 12
    3608:	f0 e6       	ldi	r31, 0x60	; 96
    360a:	80 85       	ldd	r24, Z+8	; 0x08
    360c:	8f 93       	push	r24
    360e:	87 81       	ldd	r24, Z+7	; 0x07
    3610:	8f 93       	push	r24
    3612:	86 81       	ldd	r24, Z+6	; 0x06
    3614:	8f 93       	push	r24
    3616:	85 81       	ldd	r24, Z+5	; 0x05
    3618:	8f 93       	push	r24
    361a:	1f 93       	push	r17
    361c:	0f 93       	push	r16
    361e:	84 ec       	ldi	r24, 0xC4	; 196
    3620:	97 e6       	ldi	r25, 0x67	; 103
    3622:	9f 93       	push	r25
    3624:	8f 93       	push	r24
    3626:	0e 94 18 10 	call	0x2030	; 0x2030 <screen_write_formatted_text>

	//screen_write_formatted_text("Drgm:", 2, ALIGN_LEFT);//Lithuanian
	screen_write_formatted_text("Humidity:", 2, ALIGN_LEFT);//English
    362a:	1f 92       	push	r1
    362c:	1f 93       	push	r17
    362e:	8e ec       	ldi	r24, 0xCE	; 206
    3630:	97 e6       	ldi	r25, 0x67	; 103
    3632:	9f 93       	push	r25
    3634:	8f 93       	push	r24
    3636:	0e 94 18 10 	call	0x2030	; 0x2030 <screen_write_formatted_text>
	screen_write_formatted_text("%3.02f%%", 2, ALIGN_RIGHT, SHT21.RH);
    363a:	88 85       	ldd	r24, Y+8	; 0x08
    363c:	99 85       	ldd	r25, Y+9	; 0x09
    363e:	2a 85       	ldd	r18, Y+10	; 0x0a
    3640:	3b 85       	ldd	r19, Y+11	; 0x0b
    3642:	3f 93       	push	r19
    3644:	2f 93       	push	r18
    3646:	9f 93       	push	r25
    3648:	8f 93       	push	r24
    364a:	1f 93       	push	r17
    364c:	1f 93       	push	r17
    364e:	88 ed       	ldi	r24, 0xD8	; 216
    3650:	97 e6       	ldi	r25, 0x67	; 103
    3652:	9f 93       	push	r25
    3654:	8f 93       	push	r24
    3656:	0e 94 18 10 	call	0x2030	; 0x2030 <screen_write_formatted_text>

	//screen_write_formatted_text("Vjas:    ", 3, ALIGN_LEFT);//Lithuanian
	screen_write_formatted_text("Wind:    ", 3, ALIGN_LEFT);//English
    365a:	2d b7       	in	r18, 0x3d	; 61
    365c:	3e b7       	in	r19, 0x3e	; 62
    365e:	2c 5d       	subi	r18, 0xDC	; 220
    3660:	3f 4f       	sbci	r19, 0xFF	; 255
    3662:	2d bf       	out	0x3d, r18	; 61
    3664:	3e bf       	out	0x3e, r19	; 62
    3666:	1f 92       	push	r1
    3668:	c3 e0       	ldi	r28, 0x03	; 3
    366a:	cf 93       	push	r28
    366c:	81 ee       	ldi	r24, 0xE1	; 225
    366e:	97 e6       	ldi	r25, 0x67	; 103
    3670:	9f 93       	push	r25
    3672:	8f 93       	push	r24
    3674:	0e 94 18 10 	call	0x2030	; 0x2030 <screen_write_formatted_text>
	screen_write_formatted_text("%s", 3, ALIGN_CENTER, WindDirNames());
    3678:	0e 94 22 11 	call	0x2244	; 0x2244 <WindDirNames>
    367c:	9f 93       	push	r25
    367e:	8f 93       	push	r24
    3680:	0f 93       	push	r16
    3682:	cf 93       	push	r28
    3684:	8b ee       	ldi	r24, 0xEB	; 235
    3686:	97 e6       	ldi	r25, 0x67	; 103
    3688:	9f 93       	push	r25
    368a:	8f 93       	push	r24
    368c:	0e 94 18 10 	call	0x2030	; 0x2030 <screen_write_formatted_text>
	screen_write_formatted_text("%2dm/s", 3, ALIGN_RIGHT, Wind.speed);
    3690:	80 91 6c 68 	lds	r24, 0x686C	; 0x80686c <Wind>
    3694:	1f 92       	push	r1
    3696:	8f 93       	push	r24
    3698:	1f 93       	push	r17
    369a:	cf 93       	push	r28
    369c:	8e ee       	ldi	r24, 0xEE	; 238
    369e:	97 e6       	ldi	r25, 0x67	; 103
    36a0:	9f 93       	push	r25
    36a2:	8f 93       	push	r24
    36a4:	0e 94 18 10 	call	0x2030	; 0x2030 <screen_write_formatted_text>

	//screen_write_formatted_text("Ap.lygis:", 4, ALIGN_LEFT);//Lithuanian
	screen_write_formatted_text("Light level:", 4, ALIGN_LEFT);//English
    36a8:	1f 92       	push	r1
    36aa:	c4 e0       	ldi	r28, 0x04	; 4
    36ac:	cf 93       	push	r28
    36ae:	85 ef       	ldi	r24, 0xF5	; 245
    36b0:	97 e6       	ldi	r25, 0x67	; 103
    36b2:	9f 93       	push	r25
    36b4:	8f 93       	push	r24
    36b6:	0e 94 18 10 	call	0x2030	; 0x2030 <screen_write_formatted_text>
	screen_write_formatted_text("%4dmV", 4, ALIGN_RIGHT, SUN.sunlevel);
    36ba:	e4 e5       	ldi	r30, 0x54	; 84
    36bc:	f8 e6       	ldi	r31, 0x68	; 104
    36be:	81 89       	ldd	r24, Z+17	; 0x11
    36c0:	8f 93       	push	r24
    36c2:	80 89       	ldd	r24, Z+16	; 0x10
    36c4:	8f 93       	push	r24
    36c6:	1f 93       	push	r17
    36c8:	cf 93       	push	r28
    36ca:	82 e0       	ldi	r24, 0x02	; 2
    36cc:	98 e6       	ldi	r25, 0x68	; 104
    36ce:	9f 93       	push	r25
    36d0:	8f 93       	push	r24
    36d2:	0e 94 18 10 	call	0x2030	; 0x2030 <screen_write_formatted_text>

	screen_write_formatted_text("---------------------", 5, ALIGN_LEFT);
    36d6:	1f 92       	push	r1
    36d8:	85 e0       	ldi	r24, 0x05	; 5
    36da:	8f 93       	push	r24
    36dc:	88 e0       	ldi	r24, 0x08	; 8
    36de:	98 e6       	ldi	r25, 0x68	; 104
    36e0:	9f 93       	push	r25
    36e2:	8f 93       	push	r24
    36e4:	0e 94 18 10 	call	0x2030	; 0x2030 <screen_write_formatted_text>

	if(Date_Clock.error == 1)
    36e8:	80 91 61 60 	lds	r24, 0x6061	; 0x806061 <Date_Clock+0x1a>
    36ec:	ed b7       	in	r30, 0x3d	; 61
    36ee:	fe b7       	in	r31, 0x3e	; 62
    36f0:	7e 96       	adiw	r30, 0x1e	; 30
    36f2:	ed bf       	out	0x3d, r30	; 61
    36f4:	fe bf       	out	0x3e, r31	; 62
    36f6:	81 30       	cpi	r24, 0x01	; 1
    36f8:	21 f4       	brne	.+8      	; 0x3702 <MainWindow+0x150>
		ClockError(6);
    36fa:	86 e0       	ldi	r24, 0x06	; 6
    36fc:	0e 94 36 1a 	call	0x346c	; 0x346c <ClockError>
    3700:	5c c0       	rjmp	.+184    	; 0x37ba <MainWindow+0x208>
	else{
		screen_write_formatted_text("%4d-%02d-%02d A:", 6, ALIGN_LEFT, Date_Clock.year, Date_Clock.month, Date_Clock.day);
    3702:	c7 e4       	ldi	r28, 0x47	; 71
    3704:	d0 e6       	ldi	r29, 0x60	; 96
    3706:	8d 81       	ldd	r24, Y+5	; 0x05
    3708:	8f 93       	push	r24
    370a:	8c 81       	ldd	r24, Y+4	; 0x04
    370c:	8f 93       	push	r24
    370e:	8b 81       	ldd	r24, Y+3	; 0x03
    3710:	8f 93       	push	r24
    3712:	8a 81       	ldd	r24, Y+2	; 0x02
    3714:	8f 93       	push	r24
    3716:	89 81       	ldd	r24, Y+1	; 0x01
    3718:	8f 93       	push	r24
    371a:	88 81       	ld	r24, Y
    371c:	8f 93       	push	r24
    371e:	1f 92       	push	r1
    3720:	0f 2e       	mov	r0, r31
    3722:	f6 e0       	ldi	r31, 0x06	; 6
    3724:	ef 2e       	mov	r14, r31
    3726:	f0 2d       	mov	r31, r0
    3728:	ef 92       	push	r14
    372a:	8e e1       	ldi	r24, 0x1E	; 30
    372c:	98 e6       	ldi	r25, 0x68	; 104
    372e:	9f 93       	push	r25
    3730:	8f 93       	push	r24
    3732:	0e 94 18 10 	call	0x2030	; 0x2030 <screen_write_formatted_text>
		screen_write_formatted_text("%3.2f", 6, ALIGN_RIGHT, SUN.adjazimuth);
    3736:	04 e5       	ldi	r16, 0x54	; 84
    3738:	18 e6       	ldi	r17, 0x68	; 104
    373a:	f8 01       	movw	r30, r16
    373c:	84 85       	ldd	r24, Z+12	; 0x0c
    373e:	95 85       	ldd	r25, Z+13	; 0x0d
    3740:	26 85       	ldd	r18, Z+14	; 0x0e
    3742:	37 85       	ldd	r19, Z+15	; 0x0f
    3744:	3f 93       	push	r19
    3746:	2f 93       	push	r18
    3748:	9f 93       	push	r25
    374a:	8f 93       	push	r24
    374c:	68 94       	set
    374e:	ff 24       	eor	r15, r15
    3750:	f1 f8       	bld	r15, 1
    3752:	ff 92       	push	r15
    3754:	ef 92       	push	r14
    3756:	8f e2       	ldi	r24, 0x2F	; 47
    3758:	98 e6       	ldi	r25, 0x68	; 104
    375a:	9f 93       	push	r25
    375c:	8f 93       	push	r24
    375e:	0e 94 18 10 	call	0x2030	; 0x2030 <screen_write_formatted_text>
		screen_write_formatted_text("  %02d:%02d:%02d E:", 7, ALIGN_LEFT, Date_Clock.hour, Date_Clock.minute, Date_Clock.second);
    3762:	8b 85       	ldd	r24, Y+11	; 0x0b
    3764:	8f 93       	push	r24
    3766:	8a 85       	ldd	r24, Y+10	; 0x0a
    3768:	8f 93       	push	r24
    376a:	89 85       	ldd	r24, Y+9	; 0x09
    376c:	8f 93       	push	r24
    376e:	88 85       	ldd	r24, Y+8	; 0x08
    3770:	8f 93       	push	r24
    3772:	8f 81       	ldd	r24, Y+7	; 0x07
    3774:	8f 93       	push	r24
    3776:	8e 81       	ldd	r24, Y+6	; 0x06
    3778:	8f 93       	push	r24
    377a:	1f 92       	push	r1
    377c:	c7 e0       	ldi	r28, 0x07	; 7
    377e:	cf 93       	push	r28
    3780:	86 e3       	ldi	r24, 0x36	; 54
    3782:	98 e6       	ldi	r25, 0x68	; 104
    3784:	9f 93       	push	r25
    3786:	8f 93       	push	r24
    3788:	0e 94 18 10 	call	0x2030	; 0x2030 <screen_write_formatted_text>
		screen_write_formatted_text("%2.2f", 7, ALIGN_RIGHT, SUN.adjelevation);
    378c:	f8 01       	movw	r30, r16
    378e:	80 85       	ldd	r24, Z+8	; 0x08
    3790:	91 85       	ldd	r25, Z+9	; 0x09
    3792:	22 85       	ldd	r18, Z+10	; 0x0a
    3794:	33 85       	ldd	r19, Z+11	; 0x0b
    3796:	3f 93       	push	r19
    3798:	2f 93       	push	r18
    379a:	9f 93       	push	r25
    379c:	8f 93       	push	r24
    379e:	ff 92       	push	r15
    37a0:	cf 93       	push	r28
    37a2:	8a e4       	ldi	r24, 0x4A	; 74
    37a4:	98 e6       	ldi	r25, 0x68	; 104
    37a6:	9f 93       	push	r25
    37a8:	8f 93       	push	r24
    37aa:	0e 94 18 10 	call	0x2030	; 0x2030 <screen_write_formatted_text>
    37ae:	2d b7       	in	r18, 0x3d	; 61
    37b0:	3e b7       	in	r19, 0x3e	; 62
    37b2:	2c 5d       	subi	r18, 0xDC	; 220
    37b4:	3f 4f       	sbci	r19, 0xFF	; 255
    37b6:	2d bf       	out	0x3d, r18	; 61
    37b8:	3e bf       	out	0x3e, r19	; 62
	}
}
    37ba:	df 91       	pop	r29
    37bc:	cf 91       	pop	r28
    37be:	1f 91       	pop	r17
    37c0:	0f 91       	pop	r16
    37c2:	ff 90       	pop	r15
    37c4:	ef 90       	pop	r14
    37c6:	08 95       	ret

000037c8 <windows>:
 * @brief Main function to handle window switching based on keypress
 * 
 * This function checks the key press and switches between different windows such as main window, date and location change window, or parameters view window.
 */
void windows() {
	if(Keypad3x4.key_held == 21) //long press 1 menu- Date and time change window
    37c8:	80 91 6b 68 	lds	r24, 0x686B	; 0x80686b <Keypad3x4+0x1>
    37cc:	85 31       	cpi	r24, 0x15	; 21
    37ce:	19 f4       	brne	.+6      	; 0x37d6 <windows+0xe>
		DateAndLocationChangeWindow();
    37d0:	0e 94 44 1a 	call	0x3488	; 0x3488 <DateAndLocationChangeWindow>
    37d4:	08 95       	ret
	else if(Keypad3x4.key_held == 22) //long press 2 menu- all parameters view window
    37d6:	86 31       	cpi	r24, 0x16	; 22
    37d8:	19 f4       	brne	.+6      	; 0x37e0 <windows+0x18>
		ParameterViewWindow();		
    37da:	0e 94 97 1a 	call	0x352e	; 0x352e <ParameterViewWindow>
    37de:	08 95       	ret
	else //if long press any other button in any window, go to mainWindow
		MainWindow(); // All roads lead to MainWindow, not to Rome :D //Main window shows most important data: pressure, temperature, humidity, adjusted altitude and elevation, wind speed and direction, light level
    37e0:	0e 94 d9 1a 	call	0x35b2	; 0x35b2 <MainWindow>
    37e4:	08 95       	ret

000037e6 <__subsf3>:
    37e6:	50 58       	subi	r21, 0x80	; 128

000037e8 <__addsf3>:
    37e8:	bb 27       	eor	r27, r27
    37ea:	aa 27       	eor	r26, r26
    37ec:	0e 94 0b 1c 	call	0x3816	; 0x3816 <__addsf3x>
    37f0:	0c 94 33 1e 	jmp	0x3c66	; 0x3c66 <__fp_round>
    37f4:	0e 94 25 1e 	call	0x3c4a	; 0x3c4a <__fp_pscA>
    37f8:	38 f0       	brcs	.+14     	; 0x3808 <__addsf3+0x20>
    37fa:	0e 94 2c 1e 	call	0x3c58	; 0x3c58 <__fp_pscB>
    37fe:	20 f0       	brcs	.+8      	; 0x3808 <__addsf3+0x20>
    3800:	39 f4       	brne	.+14     	; 0x3810 <__addsf3+0x28>
    3802:	9f 3f       	cpi	r25, 0xFF	; 255
    3804:	19 f4       	brne	.+6      	; 0x380c <__addsf3+0x24>
    3806:	26 f4       	brtc	.+8      	; 0x3810 <__addsf3+0x28>
    3808:	0c 94 eb 1d 	jmp	0x3bd6	; 0x3bd6 <__fp_nan>
    380c:	0e f4       	brtc	.+2      	; 0x3810 <__addsf3+0x28>
    380e:	e0 95       	com	r30
    3810:	e7 fb       	bst	r30, 7
    3812:	0c 94 e5 1d 	jmp	0x3bca	; 0x3bca <__fp_inf>

00003816 <__addsf3x>:
    3816:	e9 2f       	mov	r30, r25
    3818:	0e 94 44 1e 	call	0x3c88	; 0x3c88 <__fp_split3>
    381c:	58 f3       	brcs	.-42     	; 0x37f4 <__addsf3+0xc>
    381e:	ba 17       	cp	r27, r26
    3820:	62 07       	cpc	r22, r18
    3822:	73 07       	cpc	r23, r19
    3824:	84 07       	cpc	r24, r20
    3826:	95 07       	cpc	r25, r21
    3828:	20 f0       	brcs	.+8      	; 0x3832 <__addsf3x+0x1c>
    382a:	79 f4       	brne	.+30     	; 0x384a <__addsf3x+0x34>
    382c:	a6 f5       	brtc	.+104    	; 0x3896 <__addsf3x+0x80>
    382e:	0c 94 66 1e 	jmp	0x3ccc	; 0x3ccc <__fp_zero>
    3832:	0e f4       	brtc	.+2      	; 0x3836 <__addsf3x+0x20>
    3834:	e0 95       	com	r30
    3836:	0b 2e       	mov	r0, r27
    3838:	ba 2f       	mov	r27, r26
    383a:	a0 2d       	mov	r26, r0
    383c:	0b 01       	movw	r0, r22
    383e:	b9 01       	movw	r22, r18
    3840:	90 01       	movw	r18, r0
    3842:	0c 01       	movw	r0, r24
    3844:	ca 01       	movw	r24, r20
    3846:	a0 01       	movw	r20, r0
    3848:	11 24       	eor	r1, r1
    384a:	ff 27       	eor	r31, r31
    384c:	59 1b       	sub	r21, r25
    384e:	99 f0       	breq	.+38     	; 0x3876 <__addsf3x+0x60>
    3850:	59 3f       	cpi	r21, 0xF9	; 249
    3852:	50 f4       	brcc	.+20     	; 0x3868 <__addsf3x+0x52>
    3854:	50 3e       	cpi	r21, 0xE0	; 224
    3856:	68 f1       	brcs	.+90     	; 0x38b2 <__addsf3x+0x9c>
    3858:	1a 16       	cp	r1, r26
    385a:	f0 40       	sbci	r31, 0x00	; 0
    385c:	a2 2f       	mov	r26, r18
    385e:	23 2f       	mov	r18, r19
    3860:	34 2f       	mov	r19, r20
    3862:	44 27       	eor	r20, r20
    3864:	58 5f       	subi	r21, 0xF8	; 248
    3866:	f3 cf       	rjmp	.-26     	; 0x384e <__addsf3x+0x38>
    3868:	46 95       	lsr	r20
    386a:	37 95       	ror	r19
    386c:	27 95       	ror	r18
    386e:	a7 95       	ror	r26
    3870:	f0 40       	sbci	r31, 0x00	; 0
    3872:	53 95       	inc	r21
    3874:	c9 f7       	brne	.-14     	; 0x3868 <__addsf3x+0x52>
    3876:	7e f4       	brtc	.+30     	; 0x3896 <__addsf3x+0x80>
    3878:	1f 16       	cp	r1, r31
    387a:	ba 0b       	sbc	r27, r26
    387c:	62 0b       	sbc	r22, r18
    387e:	73 0b       	sbc	r23, r19
    3880:	84 0b       	sbc	r24, r20
    3882:	ba f0       	brmi	.+46     	; 0x38b2 <__addsf3x+0x9c>
    3884:	91 50       	subi	r25, 0x01	; 1
    3886:	a1 f0       	breq	.+40     	; 0x38b0 <__addsf3x+0x9a>
    3888:	ff 0f       	add	r31, r31
    388a:	bb 1f       	adc	r27, r27
    388c:	66 1f       	adc	r22, r22
    388e:	77 1f       	adc	r23, r23
    3890:	88 1f       	adc	r24, r24
    3892:	c2 f7       	brpl	.-16     	; 0x3884 <__addsf3x+0x6e>
    3894:	0e c0       	rjmp	.+28     	; 0x38b2 <__addsf3x+0x9c>
    3896:	ba 0f       	add	r27, r26
    3898:	62 1f       	adc	r22, r18
    389a:	73 1f       	adc	r23, r19
    389c:	84 1f       	adc	r24, r20
    389e:	48 f4       	brcc	.+18     	; 0x38b2 <__addsf3x+0x9c>
    38a0:	87 95       	ror	r24
    38a2:	77 95       	ror	r23
    38a4:	67 95       	ror	r22
    38a6:	b7 95       	ror	r27
    38a8:	f7 95       	ror	r31
    38aa:	9e 3f       	cpi	r25, 0xFE	; 254
    38ac:	08 f0       	brcs	.+2      	; 0x38b0 <__addsf3x+0x9a>
    38ae:	b0 cf       	rjmp	.-160    	; 0x3810 <__addsf3+0x28>
    38b0:	93 95       	inc	r25
    38b2:	88 0f       	add	r24, r24
    38b4:	08 f0       	brcs	.+2      	; 0x38b8 <__addsf3x+0xa2>
    38b6:	99 27       	eor	r25, r25
    38b8:	ee 0f       	add	r30, r30
    38ba:	97 95       	ror	r25
    38bc:	87 95       	ror	r24
    38be:	08 95       	ret

000038c0 <__cmpsf2>:
    38c0:	0e 94 c1 1d 	call	0x3b82	; 0x3b82 <__fp_cmp>
    38c4:	08 f4       	brcc	.+2      	; 0x38c8 <__cmpsf2+0x8>
    38c6:	81 e0       	ldi	r24, 0x01	; 1
    38c8:	08 95       	ret

000038ca <__divsf3>:
    38ca:	0e 94 79 1c 	call	0x38f2	; 0x38f2 <__divsf3x>
    38ce:	0c 94 33 1e 	jmp	0x3c66	; 0x3c66 <__fp_round>
    38d2:	0e 94 2c 1e 	call	0x3c58	; 0x3c58 <__fp_pscB>
    38d6:	58 f0       	brcs	.+22     	; 0x38ee <__divsf3+0x24>
    38d8:	0e 94 25 1e 	call	0x3c4a	; 0x3c4a <__fp_pscA>
    38dc:	40 f0       	brcs	.+16     	; 0x38ee <__divsf3+0x24>
    38de:	29 f4       	brne	.+10     	; 0x38ea <__divsf3+0x20>
    38e0:	5f 3f       	cpi	r21, 0xFF	; 255
    38e2:	29 f0       	breq	.+10     	; 0x38ee <__divsf3+0x24>
    38e4:	0c 94 e5 1d 	jmp	0x3bca	; 0x3bca <__fp_inf>
    38e8:	51 11       	cpse	r21, r1
    38ea:	0c 94 67 1e 	jmp	0x3cce	; 0x3cce <__fp_szero>
    38ee:	0c 94 eb 1d 	jmp	0x3bd6	; 0x3bd6 <__fp_nan>

000038f2 <__divsf3x>:
    38f2:	0e 94 44 1e 	call	0x3c88	; 0x3c88 <__fp_split3>
    38f6:	68 f3       	brcs	.-38     	; 0x38d2 <__divsf3+0x8>

000038f8 <__divsf3_pse>:
    38f8:	99 23       	and	r25, r25
    38fa:	b1 f3       	breq	.-20     	; 0x38e8 <__divsf3+0x1e>
    38fc:	55 23       	and	r21, r21
    38fe:	91 f3       	breq	.-28     	; 0x38e4 <__divsf3+0x1a>
    3900:	95 1b       	sub	r25, r21
    3902:	55 0b       	sbc	r21, r21
    3904:	bb 27       	eor	r27, r27
    3906:	aa 27       	eor	r26, r26
    3908:	62 17       	cp	r22, r18
    390a:	73 07       	cpc	r23, r19
    390c:	84 07       	cpc	r24, r20
    390e:	38 f0       	brcs	.+14     	; 0x391e <__divsf3_pse+0x26>
    3910:	9f 5f       	subi	r25, 0xFF	; 255
    3912:	5f 4f       	sbci	r21, 0xFF	; 255
    3914:	22 0f       	add	r18, r18
    3916:	33 1f       	adc	r19, r19
    3918:	44 1f       	adc	r20, r20
    391a:	aa 1f       	adc	r26, r26
    391c:	a9 f3       	breq	.-22     	; 0x3908 <__divsf3_pse+0x10>
    391e:	35 d0       	rcall	.+106    	; 0x398a <__divsf3_pse+0x92>
    3920:	0e 2e       	mov	r0, r30
    3922:	3a f0       	brmi	.+14     	; 0x3932 <__divsf3_pse+0x3a>
    3924:	e0 e8       	ldi	r30, 0x80	; 128
    3926:	32 d0       	rcall	.+100    	; 0x398c <__divsf3_pse+0x94>
    3928:	91 50       	subi	r25, 0x01	; 1
    392a:	50 40       	sbci	r21, 0x00	; 0
    392c:	e6 95       	lsr	r30
    392e:	00 1c       	adc	r0, r0
    3930:	ca f7       	brpl	.-14     	; 0x3924 <__divsf3_pse+0x2c>
    3932:	2b d0       	rcall	.+86     	; 0x398a <__divsf3_pse+0x92>
    3934:	fe 2f       	mov	r31, r30
    3936:	29 d0       	rcall	.+82     	; 0x398a <__divsf3_pse+0x92>
    3938:	66 0f       	add	r22, r22
    393a:	77 1f       	adc	r23, r23
    393c:	88 1f       	adc	r24, r24
    393e:	bb 1f       	adc	r27, r27
    3940:	26 17       	cp	r18, r22
    3942:	37 07       	cpc	r19, r23
    3944:	48 07       	cpc	r20, r24
    3946:	ab 07       	cpc	r26, r27
    3948:	b0 e8       	ldi	r27, 0x80	; 128
    394a:	09 f0       	breq	.+2      	; 0x394e <__divsf3_pse+0x56>
    394c:	bb 0b       	sbc	r27, r27
    394e:	80 2d       	mov	r24, r0
    3950:	bf 01       	movw	r22, r30
    3952:	ff 27       	eor	r31, r31
    3954:	93 58       	subi	r25, 0x83	; 131
    3956:	5f 4f       	sbci	r21, 0xFF	; 255
    3958:	3a f0       	brmi	.+14     	; 0x3968 <__divsf3_pse+0x70>
    395a:	9e 3f       	cpi	r25, 0xFE	; 254
    395c:	51 05       	cpc	r21, r1
    395e:	78 f0       	brcs	.+30     	; 0x397e <__divsf3_pse+0x86>
    3960:	0c 94 e5 1d 	jmp	0x3bca	; 0x3bca <__fp_inf>
    3964:	0c 94 67 1e 	jmp	0x3cce	; 0x3cce <__fp_szero>
    3968:	5f 3f       	cpi	r21, 0xFF	; 255
    396a:	e4 f3       	brlt	.-8      	; 0x3964 <__divsf3_pse+0x6c>
    396c:	98 3e       	cpi	r25, 0xE8	; 232
    396e:	d4 f3       	brlt	.-12     	; 0x3964 <__divsf3_pse+0x6c>
    3970:	86 95       	lsr	r24
    3972:	77 95       	ror	r23
    3974:	67 95       	ror	r22
    3976:	b7 95       	ror	r27
    3978:	f7 95       	ror	r31
    397a:	9f 5f       	subi	r25, 0xFF	; 255
    397c:	c9 f7       	brne	.-14     	; 0x3970 <__divsf3_pse+0x78>
    397e:	88 0f       	add	r24, r24
    3980:	91 1d       	adc	r25, r1
    3982:	96 95       	lsr	r25
    3984:	87 95       	ror	r24
    3986:	97 f9       	bld	r25, 7
    3988:	08 95       	ret
    398a:	e1 e0       	ldi	r30, 0x01	; 1
    398c:	66 0f       	add	r22, r22
    398e:	77 1f       	adc	r23, r23
    3990:	88 1f       	adc	r24, r24
    3992:	bb 1f       	adc	r27, r27
    3994:	62 17       	cp	r22, r18
    3996:	73 07       	cpc	r23, r19
    3998:	84 07       	cpc	r24, r20
    399a:	ba 07       	cpc	r27, r26
    399c:	20 f0       	brcs	.+8      	; 0x39a6 <__divsf3_pse+0xae>
    399e:	62 1b       	sub	r22, r18
    39a0:	73 0b       	sbc	r23, r19
    39a2:	84 0b       	sbc	r24, r20
    39a4:	ba 0b       	sbc	r27, r26
    39a6:	ee 1f       	adc	r30, r30
    39a8:	88 f7       	brcc	.-30     	; 0x398c <__divsf3_pse+0x94>
    39aa:	e0 95       	com	r30
    39ac:	08 95       	ret
    39ae:	29 f4       	brne	.+10     	; 0x39ba <__divsf3_pse+0xc2>
    39b0:	16 f0       	brts	.+4      	; 0x39b6 <__divsf3_pse+0xbe>
    39b2:	0c 94 e5 1d 	jmp	0x3bca	; 0x3bca <__fp_inf>
    39b6:	0c 94 66 1e 	jmp	0x3ccc	; 0x3ccc <__fp_zero>
    39ba:	0c 94 eb 1d 	jmp	0x3bd6	; 0x3bd6 <__fp_nan>

000039be <exp>:
    39be:	0e 94 4c 1e 	call	0x3c98	; 0x3c98 <__fp_splitA>
    39c2:	a8 f3       	brcs	.-22     	; 0x39ae <__divsf3_pse+0xb6>
    39c4:	96 38       	cpi	r25, 0x86	; 134
    39c6:	a0 f7       	brcc	.-24     	; 0x39b0 <__divsf3_pse+0xb8>
    39c8:	07 f8       	bld	r0, 7
    39ca:	0f 92       	push	r0
    39cc:	e8 94       	clt
    39ce:	2b e3       	ldi	r18, 0x3B	; 59
    39d0:	3a ea       	ldi	r19, 0xAA	; 170
    39d2:	48 eb       	ldi	r20, 0xB8	; 184
    39d4:	5f e7       	ldi	r21, 0x7F	; 127
    39d6:	0e 94 4e 1f 	call	0x3e9c	; 0x3e9c <__mulsf3_pse>
    39da:	0f 92       	push	r0
    39dc:	0f 92       	push	r0
    39de:	0f 92       	push	r0
    39e0:	4d b7       	in	r20, 0x3d	; 61
    39e2:	5e b7       	in	r21, 0x3e	; 62
    39e4:	0f 92       	push	r0
    39e6:	0e 94 04 1f 	call	0x3e08	; 0x3e08 <modf>
    39ea:	ea eb       	ldi	r30, 0xBA	; 186
    39ec:	f0 e0       	ldi	r31, 0x00	; 0
    39ee:	0e 94 fe 1d 	call	0x3bfc	; 0x3bfc <__fp_powser>
    39f2:	4f 91       	pop	r20
    39f4:	5f 91       	pop	r21
    39f6:	ef 91       	pop	r30
    39f8:	ff 91       	pop	r31
    39fa:	e5 95       	asr	r30
    39fc:	ee 1f       	adc	r30, r30
    39fe:	ff 1f       	adc	r31, r31
    3a00:	49 f0       	breq	.+18     	; 0x3a14 <exp+0x56>
    3a02:	fe 57       	subi	r31, 0x7E	; 126
    3a04:	e0 68       	ori	r30, 0x80	; 128
    3a06:	44 27       	eor	r20, r20
    3a08:	ee 0f       	add	r30, r30
    3a0a:	44 1f       	adc	r20, r20
    3a0c:	fa 95       	dec	r31
    3a0e:	e1 f7       	brne	.-8      	; 0x3a08 <exp+0x4a>
    3a10:	41 95       	neg	r20
    3a12:	55 0b       	sbc	r21, r21
    3a14:	0e 94 7e 1e 	call	0x3cfc	; 0x3cfc <ldexp>
    3a18:	0f 90       	pop	r0
    3a1a:	07 fe       	sbrs	r0, 7
    3a1c:	0c 94 72 1e 	jmp	0x3ce4	; 0x3ce4 <inverse>
    3a20:	08 95       	ret

00003a22 <__fixunssfsi>:
    3a22:	0e 94 4c 1e 	call	0x3c98	; 0x3c98 <__fp_splitA>
    3a26:	88 f0       	brcs	.+34     	; 0x3a4a <__fixunssfsi+0x28>
    3a28:	9f 57       	subi	r25, 0x7F	; 127
    3a2a:	98 f0       	brcs	.+38     	; 0x3a52 <__fixunssfsi+0x30>
    3a2c:	b9 2f       	mov	r27, r25
    3a2e:	99 27       	eor	r25, r25
    3a30:	b7 51       	subi	r27, 0x17	; 23
    3a32:	b0 f0       	brcs	.+44     	; 0x3a60 <__fixunssfsi+0x3e>
    3a34:	e1 f0       	breq	.+56     	; 0x3a6e <__fixunssfsi+0x4c>
    3a36:	66 0f       	add	r22, r22
    3a38:	77 1f       	adc	r23, r23
    3a3a:	88 1f       	adc	r24, r24
    3a3c:	99 1f       	adc	r25, r25
    3a3e:	1a f0       	brmi	.+6      	; 0x3a46 <__fixunssfsi+0x24>
    3a40:	ba 95       	dec	r27
    3a42:	c9 f7       	brne	.-14     	; 0x3a36 <__fixunssfsi+0x14>
    3a44:	14 c0       	rjmp	.+40     	; 0x3a6e <__fixunssfsi+0x4c>
    3a46:	b1 30       	cpi	r27, 0x01	; 1
    3a48:	91 f0       	breq	.+36     	; 0x3a6e <__fixunssfsi+0x4c>
    3a4a:	0e 94 66 1e 	call	0x3ccc	; 0x3ccc <__fp_zero>
    3a4e:	b1 e0       	ldi	r27, 0x01	; 1
    3a50:	08 95       	ret
    3a52:	0c 94 66 1e 	jmp	0x3ccc	; 0x3ccc <__fp_zero>
    3a56:	67 2f       	mov	r22, r23
    3a58:	78 2f       	mov	r23, r24
    3a5a:	88 27       	eor	r24, r24
    3a5c:	b8 5f       	subi	r27, 0xF8	; 248
    3a5e:	39 f0       	breq	.+14     	; 0x3a6e <__fixunssfsi+0x4c>
    3a60:	b9 3f       	cpi	r27, 0xF9	; 249
    3a62:	cc f3       	brlt	.-14     	; 0x3a56 <__fixunssfsi+0x34>
    3a64:	86 95       	lsr	r24
    3a66:	77 95       	ror	r23
    3a68:	67 95       	ror	r22
    3a6a:	b3 95       	inc	r27
    3a6c:	d9 f7       	brne	.-10     	; 0x3a64 <__fixunssfsi+0x42>
    3a6e:	3e f4       	brtc	.+14     	; 0x3a7e <__fixunssfsi+0x5c>
    3a70:	90 95       	com	r25
    3a72:	80 95       	com	r24
    3a74:	70 95       	com	r23
    3a76:	61 95       	neg	r22
    3a78:	7f 4f       	sbci	r23, 0xFF	; 255
    3a7a:	8f 4f       	sbci	r24, 0xFF	; 255
    3a7c:	9f 4f       	sbci	r25, 0xFF	; 255
    3a7e:	08 95       	ret

00003a80 <__floatdisf>:
    3a80:	97 fb       	bst	r25, 7
    3a82:	16 f4       	brtc	.+4      	; 0x3a88 <__floatdisf+0x8>
    3a84:	0e 94 ee 1d 	call	0x3bdc	; 0x3bdc <__fp_negdi>
    3a88:	0c 94 84 1d 	jmp	0x3b08	; 0x3b08 <__fp_di2sf>

00003a8c <__floatunsisf>:
    3a8c:	e8 94       	clt
    3a8e:	09 c0       	rjmp	.+18     	; 0x3aa2 <__floatsisf+0x12>

00003a90 <__floatsisf>:
    3a90:	97 fb       	bst	r25, 7
    3a92:	3e f4       	brtc	.+14     	; 0x3aa2 <__floatsisf+0x12>
    3a94:	90 95       	com	r25
    3a96:	80 95       	com	r24
    3a98:	70 95       	com	r23
    3a9a:	61 95       	neg	r22
    3a9c:	7f 4f       	sbci	r23, 0xFF	; 255
    3a9e:	8f 4f       	sbci	r24, 0xFF	; 255
    3aa0:	9f 4f       	sbci	r25, 0xFF	; 255
    3aa2:	99 23       	and	r25, r25
    3aa4:	a9 f0       	breq	.+42     	; 0x3ad0 <__floatsisf+0x40>
    3aa6:	f9 2f       	mov	r31, r25
    3aa8:	96 e9       	ldi	r25, 0x96	; 150
    3aaa:	bb 27       	eor	r27, r27
    3aac:	93 95       	inc	r25
    3aae:	f6 95       	lsr	r31
    3ab0:	87 95       	ror	r24
    3ab2:	77 95       	ror	r23
    3ab4:	67 95       	ror	r22
    3ab6:	b7 95       	ror	r27
    3ab8:	f1 11       	cpse	r31, r1
    3aba:	f8 cf       	rjmp	.-16     	; 0x3aac <__floatsisf+0x1c>
    3abc:	fa f4       	brpl	.+62     	; 0x3afc <__floatsisf+0x6c>
    3abe:	bb 0f       	add	r27, r27
    3ac0:	11 f4       	brne	.+4      	; 0x3ac6 <__floatsisf+0x36>
    3ac2:	60 ff       	sbrs	r22, 0
    3ac4:	1b c0       	rjmp	.+54     	; 0x3afc <__floatsisf+0x6c>
    3ac6:	6f 5f       	subi	r22, 0xFF	; 255
    3ac8:	7f 4f       	sbci	r23, 0xFF	; 255
    3aca:	8f 4f       	sbci	r24, 0xFF	; 255
    3acc:	9f 4f       	sbci	r25, 0xFF	; 255
    3ace:	16 c0       	rjmp	.+44     	; 0x3afc <__floatsisf+0x6c>
    3ad0:	88 23       	and	r24, r24
    3ad2:	11 f0       	breq	.+4      	; 0x3ad8 <__floatsisf+0x48>
    3ad4:	96 e9       	ldi	r25, 0x96	; 150
    3ad6:	11 c0       	rjmp	.+34     	; 0x3afa <__floatsisf+0x6a>
    3ad8:	77 23       	and	r23, r23
    3ada:	21 f0       	breq	.+8      	; 0x3ae4 <__floatsisf+0x54>
    3adc:	9e e8       	ldi	r25, 0x8E	; 142
    3ade:	87 2f       	mov	r24, r23
    3ae0:	76 2f       	mov	r23, r22
    3ae2:	05 c0       	rjmp	.+10     	; 0x3aee <__floatsisf+0x5e>
    3ae4:	66 23       	and	r22, r22
    3ae6:	71 f0       	breq	.+28     	; 0x3b04 <__floatsisf+0x74>
    3ae8:	96 e8       	ldi	r25, 0x86	; 134
    3aea:	86 2f       	mov	r24, r22
    3aec:	70 e0       	ldi	r23, 0x00	; 0
    3aee:	60 e0       	ldi	r22, 0x00	; 0
    3af0:	2a f0       	brmi	.+10     	; 0x3afc <__floatsisf+0x6c>
    3af2:	9a 95       	dec	r25
    3af4:	66 0f       	add	r22, r22
    3af6:	77 1f       	adc	r23, r23
    3af8:	88 1f       	adc	r24, r24
    3afa:	da f7       	brpl	.-10     	; 0x3af2 <__floatsisf+0x62>
    3afc:	88 0f       	add	r24, r24
    3afe:	96 95       	lsr	r25
    3b00:	87 95       	ror	r24
    3b02:	97 f9       	bld	r25, 7
    3b04:	08 95       	ret

00003b06 <__floatundisf>:
    3b06:	e8 94       	clt

00003b08 <__fp_di2sf>:
    3b08:	f9 2f       	mov	r31, r25
    3b0a:	96 eb       	ldi	r25, 0xB6	; 182
    3b0c:	ff 23       	and	r31, r31
    3b0e:	81 f0       	breq	.+32     	; 0x3b30 <__fp_di2sf+0x28>
    3b10:	12 16       	cp	r1, r18
    3b12:	13 06       	cpc	r1, r19
    3b14:	14 06       	cpc	r1, r20
    3b16:	44 0b       	sbc	r20, r20
    3b18:	93 95       	inc	r25
    3b1a:	f6 95       	lsr	r31
    3b1c:	87 95       	ror	r24
    3b1e:	77 95       	ror	r23
    3b20:	67 95       	ror	r22
    3b22:	57 95       	ror	r21
    3b24:	40 40       	sbci	r20, 0x00	; 0
    3b26:	ff 23       	and	r31, r31
    3b28:	b9 f7       	brne	.-18     	; 0x3b18 <__fp_di2sf+0x10>
    3b2a:	1b c0       	rjmp	.+54     	; 0x3b62 <__fp_di2sf+0x5a>
    3b2c:	99 27       	eor	r25, r25
    3b2e:	08 95       	ret
    3b30:	88 23       	and	r24, r24
    3b32:	51 f4       	brne	.+20     	; 0x3b48 <__fp_di2sf+0x40>
    3b34:	98 50       	subi	r25, 0x08	; 8
    3b36:	d2 f7       	brpl	.-12     	; 0x3b2c <__fp_di2sf+0x24>
    3b38:	87 2b       	or	r24, r23
    3b3a:	76 2f       	mov	r23, r22
    3b3c:	65 2f       	mov	r22, r21
    3b3e:	54 2f       	mov	r21, r20
    3b40:	43 2f       	mov	r20, r19
    3b42:	32 2f       	mov	r19, r18
    3b44:	20 e0       	ldi	r18, 0x00	; 0
    3b46:	b1 f3       	breq	.-20     	; 0x3b34 <__fp_di2sf+0x2c>
    3b48:	12 16       	cp	r1, r18
    3b4a:	13 06       	cpc	r1, r19
    3b4c:	14 06       	cpc	r1, r20
    3b4e:	44 0b       	sbc	r20, r20
    3b50:	88 23       	and	r24, r24
    3b52:	3a f0       	brmi	.+14     	; 0x3b62 <__fp_di2sf+0x5a>
    3b54:	9a 95       	dec	r25
    3b56:	44 0f       	add	r20, r20
    3b58:	55 1f       	adc	r21, r21
    3b5a:	66 1f       	adc	r22, r22
    3b5c:	77 1f       	adc	r23, r23
    3b5e:	88 1f       	adc	r24, r24
    3b60:	ca f7       	brpl	.-14     	; 0x3b54 <__fp_di2sf+0x4c>
    3b62:	55 23       	and	r21, r21
    3b64:	4a f4       	brpl	.+18     	; 0x3b78 <__fp_di2sf+0x70>
    3b66:	44 0f       	add	r20, r20
    3b68:	55 1f       	adc	r21, r21
    3b6a:	11 f4       	brne	.+4      	; 0x3b70 <__fp_di2sf+0x68>
    3b6c:	60 ff       	sbrs	r22, 0
    3b6e:	04 c0       	rjmp	.+8      	; 0x3b78 <__fp_di2sf+0x70>
    3b70:	6f 5f       	subi	r22, 0xFF	; 255
    3b72:	7f 4f       	sbci	r23, 0xFF	; 255
    3b74:	8f 4f       	sbci	r24, 0xFF	; 255
    3b76:	9f 4f       	sbci	r25, 0xFF	; 255
    3b78:	88 0f       	add	r24, r24
    3b7a:	96 95       	lsr	r25
    3b7c:	87 95       	ror	r24
    3b7e:	97 f9       	bld	r25, 7
    3b80:	08 95       	ret

00003b82 <__fp_cmp>:
    3b82:	99 0f       	add	r25, r25
    3b84:	00 08       	sbc	r0, r0
    3b86:	55 0f       	add	r21, r21
    3b88:	aa 0b       	sbc	r26, r26
    3b8a:	e0 e8       	ldi	r30, 0x80	; 128
    3b8c:	fe ef       	ldi	r31, 0xFE	; 254
    3b8e:	16 16       	cp	r1, r22
    3b90:	17 06       	cpc	r1, r23
    3b92:	e8 07       	cpc	r30, r24
    3b94:	f9 07       	cpc	r31, r25
    3b96:	c0 f0       	brcs	.+48     	; 0x3bc8 <__fp_cmp+0x46>
    3b98:	12 16       	cp	r1, r18
    3b9a:	13 06       	cpc	r1, r19
    3b9c:	e4 07       	cpc	r30, r20
    3b9e:	f5 07       	cpc	r31, r21
    3ba0:	98 f0       	brcs	.+38     	; 0x3bc8 <__fp_cmp+0x46>
    3ba2:	62 1b       	sub	r22, r18
    3ba4:	73 0b       	sbc	r23, r19
    3ba6:	84 0b       	sbc	r24, r20
    3ba8:	95 0b       	sbc	r25, r21
    3baa:	39 f4       	brne	.+14     	; 0x3bba <__fp_cmp+0x38>
    3bac:	0a 26       	eor	r0, r26
    3bae:	61 f0       	breq	.+24     	; 0x3bc8 <__fp_cmp+0x46>
    3bb0:	23 2b       	or	r18, r19
    3bb2:	24 2b       	or	r18, r20
    3bb4:	25 2b       	or	r18, r21
    3bb6:	21 f4       	brne	.+8      	; 0x3bc0 <__fp_cmp+0x3e>
    3bb8:	08 95       	ret
    3bba:	0a 26       	eor	r0, r26
    3bbc:	09 f4       	brne	.+2      	; 0x3bc0 <__fp_cmp+0x3e>
    3bbe:	a1 40       	sbci	r26, 0x01	; 1
    3bc0:	a6 95       	lsr	r26
    3bc2:	8f ef       	ldi	r24, 0xFF	; 255
    3bc4:	81 1d       	adc	r24, r1
    3bc6:	81 1d       	adc	r24, r1
    3bc8:	08 95       	ret

00003bca <__fp_inf>:
    3bca:	97 f9       	bld	r25, 7
    3bcc:	9f 67       	ori	r25, 0x7F	; 127
    3bce:	80 e8       	ldi	r24, 0x80	; 128
    3bd0:	70 e0       	ldi	r23, 0x00	; 0
    3bd2:	60 e0       	ldi	r22, 0x00	; 0
    3bd4:	08 95       	ret

00003bd6 <__fp_nan>:
    3bd6:	9f ef       	ldi	r25, 0xFF	; 255
    3bd8:	80 ec       	ldi	r24, 0xC0	; 192
    3bda:	08 95       	ret

00003bdc <__fp_negdi>:
    3bdc:	90 95       	com	r25
    3bde:	80 95       	com	r24
    3be0:	70 95       	com	r23
    3be2:	60 95       	com	r22
    3be4:	50 95       	com	r21
    3be6:	40 95       	com	r20
    3be8:	30 95       	com	r19
    3bea:	21 95       	neg	r18
    3bec:	3f 4f       	sbci	r19, 0xFF	; 255
    3bee:	4f 4f       	sbci	r20, 0xFF	; 255
    3bf0:	5f 4f       	sbci	r21, 0xFF	; 255
    3bf2:	6f 4f       	sbci	r22, 0xFF	; 255
    3bf4:	7f 4f       	sbci	r23, 0xFF	; 255
    3bf6:	8f 4f       	sbci	r24, 0xFF	; 255
    3bf8:	9f 4f       	sbci	r25, 0xFF	; 255
    3bfa:	08 95       	ret

00003bfc <__fp_powser>:
    3bfc:	df 93       	push	r29
    3bfe:	cf 93       	push	r28
    3c00:	1f 93       	push	r17
    3c02:	0f 93       	push	r16
    3c04:	ff 92       	push	r15
    3c06:	ef 92       	push	r14
    3c08:	df 92       	push	r13
    3c0a:	7b 01       	movw	r14, r22
    3c0c:	8c 01       	movw	r16, r24
    3c0e:	68 94       	set
    3c10:	06 c0       	rjmp	.+12     	; 0x3c1e <__fp_powser+0x22>
    3c12:	da 2e       	mov	r13, r26
    3c14:	ef 01       	movw	r28, r30
    3c16:	0e 94 4b 1f 	call	0x3e96	; 0x3e96 <__mulsf3x>
    3c1a:	fe 01       	movw	r30, r28
    3c1c:	e8 94       	clt
    3c1e:	a5 91       	lpm	r26, Z+
    3c20:	25 91       	lpm	r18, Z+
    3c22:	35 91       	lpm	r19, Z+
    3c24:	45 91       	lpm	r20, Z+
    3c26:	55 91       	lpm	r21, Z+
    3c28:	a6 f3       	brts	.-24     	; 0x3c12 <__fp_powser+0x16>
    3c2a:	ef 01       	movw	r28, r30
    3c2c:	0e 94 0b 1c 	call	0x3816	; 0x3816 <__addsf3x>
    3c30:	fe 01       	movw	r30, r28
    3c32:	97 01       	movw	r18, r14
    3c34:	a8 01       	movw	r20, r16
    3c36:	da 94       	dec	r13
    3c38:	69 f7       	brne	.-38     	; 0x3c14 <__fp_powser+0x18>
    3c3a:	df 90       	pop	r13
    3c3c:	ef 90       	pop	r14
    3c3e:	ff 90       	pop	r15
    3c40:	0f 91       	pop	r16
    3c42:	1f 91       	pop	r17
    3c44:	cf 91       	pop	r28
    3c46:	df 91       	pop	r29
    3c48:	08 95       	ret

00003c4a <__fp_pscA>:
    3c4a:	00 24       	eor	r0, r0
    3c4c:	0a 94       	dec	r0
    3c4e:	16 16       	cp	r1, r22
    3c50:	17 06       	cpc	r1, r23
    3c52:	18 06       	cpc	r1, r24
    3c54:	09 06       	cpc	r0, r25
    3c56:	08 95       	ret

00003c58 <__fp_pscB>:
    3c58:	00 24       	eor	r0, r0
    3c5a:	0a 94       	dec	r0
    3c5c:	12 16       	cp	r1, r18
    3c5e:	13 06       	cpc	r1, r19
    3c60:	14 06       	cpc	r1, r20
    3c62:	05 06       	cpc	r0, r21
    3c64:	08 95       	ret

00003c66 <__fp_round>:
    3c66:	09 2e       	mov	r0, r25
    3c68:	03 94       	inc	r0
    3c6a:	00 0c       	add	r0, r0
    3c6c:	11 f4       	brne	.+4      	; 0x3c72 <__fp_round+0xc>
    3c6e:	88 23       	and	r24, r24
    3c70:	52 f0       	brmi	.+20     	; 0x3c86 <__fp_round+0x20>
    3c72:	bb 0f       	add	r27, r27
    3c74:	40 f4       	brcc	.+16     	; 0x3c86 <__fp_round+0x20>
    3c76:	bf 2b       	or	r27, r31
    3c78:	11 f4       	brne	.+4      	; 0x3c7e <__fp_round+0x18>
    3c7a:	60 ff       	sbrs	r22, 0
    3c7c:	04 c0       	rjmp	.+8      	; 0x3c86 <__fp_round+0x20>
    3c7e:	6f 5f       	subi	r22, 0xFF	; 255
    3c80:	7f 4f       	sbci	r23, 0xFF	; 255
    3c82:	8f 4f       	sbci	r24, 0xFF	; 255
    3c84:	9f 4f       	sbci	r25, 0xFF	; 255
    3c86:	08 95       	ret

00003c88 <__fp_split3>:
    3c88:	57 fd       	sbrc	r21, 7
    3c8a:	90 58       	subi	r25, 0x80	; 128
    3c8c:	44 0f       	add	r20, r20
    3c8e:	55 1f       	adc	r21, r21
    3c90:	59 f0       	breq	.+22     	; 0x3ca8 <__fp_splitA+0x10>
    3c92:	5f 3f       	cpi	r21, 0xFF	; 255
    3c94:	71 f0       	breq	.+28     	; 0x3cb2 <__fp_splitA+0x1a>
    3c96:	47 95       	ror	r20

00003c98 <__fp_splitA>:
    3c98:	88 0f       	add	r24, r24
    3c9a:	97 fb       	bst	r25, 7
    3c9c:	99 1f       	adc	r25, r25
    3c9e:	61 f0       	breq	.+24     	; 0x3cb8 <__fp_splitA+0x20>
    3ca0:	9f 3f       	cpi	r25, 0xFF	; 255
    3ca2:	79 f0       	breq	.+30     	; 0x3cc2 <__fp_splitA+0x2a>
    3ca4:	87 95       	ror	r24
    3ca6:	08 95       	ret
    3ca8:	12 16       	cp	r1, r18
    3caa:	13 06       	cpc	r1, r19
    3cac:	14 06       	cpc	r1, r20
    3cae:	55 1f       	adc	r21, r21
    3cb0:	f2 cf       	rjmp	.-28     	; 0x3c96 <__fp_split3+0xe>
    3cb2:	46 95       	lsr	r20
    3cb4:	f1 df       	rcall	.-30     	; 0x3c98 <__fp_splitA>
    3cb6:	08 c0       	rjmp	.+16     	; 0x3cc8 <__fp_splitA+0x30>
    3cb8:	16 16       	cp	r1, r22
    3cba:	17 06       	cpc	r1, r23
    3cbc:	18 06       	cpc	r1, r24
    3cbe:	99 1f       	adc	r25, r25
    3cc0:	f1 cf       	rjmp	.-30     	; 0x3ca4 <__fp_splitA+0xc>
    3cc2:	86 95       	lsr	r24
    3cc4:	71 05       	cpc	r23, r1
    3cc6:	61 05       	cpc	r22, r1
    3cc8:	08 94       	sec
    3cca:	08 95       	ret

00003ccc <__fp_zero>:
    3ccc:	e8 94       	clt

00003cce <__fp_szero>:
    3cce:	bb 27       	eor	r27, r27
    3cd0:	66 27       	eor	r22, r22
    3cd2:	77 27       	eor	r23, r23
    3cd4:	cb 01       	movw	r24, r22
    3cd6:	97 f9       	bld	r25, 7
    3cd8:	08 95       	ret

00003cda <__gesf2>:
    3cda:	0e 94 c1 1d 	call	0x3b82	; 0x3b82 <__fp_cmp>
    3cde:	08 f4       	brcc	.+2      	; 0x3ce2 <__gesf2+0x8>
    3ce0:	8f ef       	ldi	r24, 0xFF	; 255
    3ce2:	08 95       	ret

00003ce4 <inverse>:
    3ce4:	9b 01       	movw	r18, r22
    3ce6:	ac 01       	movw	r20, r24
    3ce8:	60 e0       	ldi	r22, 0x00	; 0
    3cea:	70 e0       	ldi	r23, 0x00	; 0
    3cec:	80 e8       	ldi	r24, 0x80	; 128
    3cee:	9f e3       	ldi	r25, 0x3F	; 63
    3cf0:	0c 94 65 1c 	jmp	0x38ca	; 0x38ca <__divsf3>
    3cf4:	0c 94 e5 1d 	jmp	0x3bca	; 0x3bca <__fp_inf>
    3cf8:	0c 94 59 20 	jmp	0x40b2	; 0x40b2 <__fp_mpack>

00003cfc <ldexp>:
    3cfc:	0e 94 4c 1e 	call	0x3c98	; 0x3c98 <__fp_splitA>
    3d00:	d8 f3       	brcs	.-10     	; 0x3cf8 <inverse+0x14>
    3d02:	99 23       	and	r25, r25
    3d04:	c9 f3       	breq	.-14     	; 0x3cf8 <inverse+0x14>
    3d06:	94 0f       	add	r25, r20
    3d08:	51 1d       	adc	r21, r1
    3d0a:	a3 f3       	brvs	.-24     	; 0x3cf4 <inverse+0x10>
    3d0c:	91 50       	subi	r25, 0x01	; 1
    3d0e:	50 40       	sbci	r21, 0x00	; 0
    3d10:	94 f0       	brlt	.+36     	; 0x3d36 <ldexp+0x3a>
    3d12:	59 f0       	breq	.+22     	; 0x3d2a <ldexp+0x2e>
    3d14:	88 23       	and	r24, r24
    3d16:	32 f0       	brmi	.+12     	; 0x3d24 <ldexp+0x28>
    3d18:	66 0f       	add	r22, r22
    3d1a:	77 1f       	adc	r23, r23
    3d1c:	88 1f       	adc	r24, r24
    3d1e:	91 50       	subi	r25, 0x01	; 1
    3d20:	50 40       	sbci	r21, 0x00	; 0
    3d22:	c1 f7       	brne	.-16     	; 0x3d14 <ldexp+0x18>
    3d24:	9e 3f       	cpi	r25, 0xFE	; 254
    3d26:	51 05       	cpc	r21, r1
    3d28:	2c f7       	brge	.-54     	; 0x3cf4 <inverse+0x10>
    3d2a:	88 0f       	add	r24, r24
    3d2c:	91 1d       	adc	r25, r1
    3d2e:	96 95       	lsr	r25
    3d30:	87 95       	ror	r24
    3d32:	97 f9       	bld	r25, 7
    3d34:	08 95       	ret
    3d36:	5f 3f       	cpi	r21, 0xFF	; 255
    3d38:	ac f0       	brlt	.+42     	; 0x3d64 <ldexp+0x68>
    3d3a:	98 3e       	cpi	r25, 0xE8	; 232
    3d3c:	9c f0       	brlt	.+38     	; 0x3d64 <ldexp+0x68>
    3d3e:	bb 27       	eor	r27, r27
    3d40:	86 95       	lsr	r24
    3d42:	77 95       	ror	r23
    3d44:	67 95       	ror	r22
    3d46:	b7 95       	ror	r27
    3d48:	08 f4       	brcc	.+2      	; 0x3d4c <ldexp+0x50>
    3d4a:	b1 60       	ori	r27, 0x01	; 1
    3d4c:	93 95       	inc	r25
    3d4e:	c1 f7       	brne	.-16     	; 0x3d40 <ldexp+0x44>
    3d50:	bb 0f       	add	r27, r27
    3d52:	58 f7       	brcc	.-42     	; 0x3d2a <ldexp+0x2e>
    3d54:	11 f4       	brne	.+4      	; 0x3d5a <ldexp+0x5e>
    3d56:	60 ff       	sbrs	r22, 0
    3d58:	e8 cf       	rjmp	.-48     	; 0x3d2a <ldexp+0x2e>
    3d5a:	6f 5f       	subi	r22, 0xFF	; 255
    3d5c:	7f 4f       	sbci	r23, 0xFF	; 255
    3d5e:	8f 4f       	sbci	r24, 0xFF	; 255
    3d60:	9f 4f       	sbci	r25, 0xFF	; 255
    3d62:	e3 cf       	rjmp	.-58     	; 0x3d2a <ldexp+0x2e>
    3d64:	0c 94 67 1e 	jmp	0x3cce	; 0x3cce <__fp_szero>
    3d68:	16 f0       	brts	.+4      	; 0x3d6e <ldexp+0x72>
    3d6a:	0c 94 59 20 	jmp	0x40b2	; 0x40b2 <__fp_mpack>
    3d6e:	0c 94 eb 1d 	jmp	0x3bd6	; 0x3bd6 <__fp_nan>
    3d72:	68 94       	set
    3d74:	0c 94 e5 1d 	jmp	0x3bca	; 0x3bca <__fp_inf>

00003d78 <log>:
    3d78:	0e 94 4c 1e 	call	0x3c98	; 0x3c98 <__fp_splitA>
    3d7c:	a8 f3       	brcs	.-22     	; 0x3d68 <ldexp+0x6c>
    3d7e:	99 23       	and	r25, r25
    3d80:	c1 f3       	breq	.-16     	; 0x3d72 <ldexp+0x76>
    3d82:	ae f3       	brts	.-22     	; 0x3d6e <ldexp+0x72>
    3d84:	df 93       	push	r29
    3d86:	cf 93       	push	r28
    3d88:	1f 93       	push	r17
    3d8a:	0f 93       	push	r16
    3d8c:	ff 92       	push	r15
    3d8e:	c9 2f       	mov	r28, r25
    3d90:	dd 27       	eor	r29, r29
    3d92:	88 23       	and	r24, r24
    3d94:	2a f0       	brmi	.+10     	; 0x3da0 <log+0x28>
    3d96:	21 97       	sbiw	r28, 0x01	; 1
    3d98:	66 0f       	add	r22, r22
    3d9a:	77 1f       	adc	r23, r23
    3d9c:	88 1f       	adc	r24, r24
    3d9e:	da f7       	brpl	.-10     	; 0x3d96 <log+0x1e>
    3da0:	20 e0       	ldi	r18, 0x00	; 0
    3da2:	30 e0       	ldi	r19, 0x00	; 0
    3da4:	40 e8       	ldi	r20, 0x80	; 128
    3da6:	5f eb       	ldi	r21, 0xBF	; 191
    3da8:	9f e3       	ldi	r25, 0x3F	; 63
    3daa:	88 39       	cpi	r24, 0x98	; 152
    3dac:	20 f0       	brcs	.+8      	; 0x3db6 <log+0x3e>
    3dae:	80 3e       	cpi	r24, 0xE0	; 224
    3db0:	38 f0       	brcs	.+14     	; 0x3dc0 <log+0x48>
    3db2:	21 96       	adiw	r28, 0x01	; 1
    3db4:	8f 77       	andi	r24, 0x7F	; 127
    3db6:	0e 94 f4 1b 	call	0x37e8	; 0x37e8 <__addsf3>
    3dba:	e2 ee       	ldi	r30, 0xE2	; 226
    3dbc:	f0 e0       	ldi	r31, 0x00	; 0
    3dbe:	04 c0       	rjmp	.+8      	; 0x3dc8 <log+0x50>
    3dc0:	0e 94 f4 1b 	call	0x37e8	; 0x37e8 <__addsf3>
    3dc4:	ef e0       	ldi	r30, 0x0F	; 15
    3dc6:	f1 e0       	ldi	r31, 0x01	; 1
    3dc8:	0e 94 fe 1d 	call	0x3bfc	; 0x3bfc <__fp_powser>
    3dcc:	8b 01       	movw	r16, r22
    3dce:	be 01       	movw	r22, r28
    3dd0:	ec 01       	movw	r28, r24
    3dd2:	fb 2e       	mov	r15, r27
    3dd4:	6f 57       	subi	r22, 0x7F	; 127
    3dd6:	71 09       	sbc	r23, r1
    3dd8:	75 95       	asr	r23
    3dda:	77 1f       	adc	r23, r23
    3ddc:	88 0b       	sbc	r24, r24
    3dde:	99 0b       	sbc	r25, r25
    3de0:	0e 94 48 1d 	call	0x3a90	; 0x3a90 <__floatsisf>
    3de4:	28 e1       	ldi	r18, 0x18	; 24
    3de6:	32 e7       	ldi	r19, 0x72	; 114
    3de8:	41 e3       	ldi	r20, 0x31	; 49
    3dea:	5f e3       	ldi	r21, 0x3F	; 63
    3dec:	0e 94 4b 1f 	call	0x3e96	; 0x3e96 <__mulsf3x>
    3df0:	af 2d       	mov	r26, r15
    3df2:	98 01       	movw	r18, r16
    3df4:	ae 01       	movw	r20, r28
    3df6:	ff 90       	pop	r15
    3df8:	0f 91       	pop	r16
    3dfa:	1f 91       	pop	r17
    3dfc:	cf 91       	pop	r28
    3dfe:	df 91       	pop	r29
    3e00:	0e 94 0b 1c 	call	0x3816	; 0x3816 <__addsf3x>
    3e04:	0c 94 33 1e 	jmp	0x3c66	; 0x3c66 <__fp_round>

00003e08 <modf>:
    3e08:	fa 01       	movw	r30, r20
    3e0a:	dc 01       	movw	r26, r24
    3e0c:	aa 0f       	add	r26, r26
    3e0e:	bb 1f       	adc	r27, r27
    3e10:	9b 01       	movw	r18, r22
    3e12:	ac 01       	movw	r20, r24
    3e14:	bf 57       	subi	r27, 0x7F	; 127
    3e16:	28 f4       	brcc	.+10     	; 0x3e22 <modf+0x1a>
    3e18:	22 27       	eor	r18, r18
    3e1a:	33 27       	eor	r19, r19
    3e1c:	44 27       	eor	r20, r20
    3e1e:	50 78       	andi	r21, 0x80	; 128
    3e20:	20 c0       	rjmp	.+64     	; 0x3e62 <modf+0x5a>
    3e22:	b7 51       	subi	r27, 0x17	; 23
    3e24:	90 f4       	brcc	.+36     	; 0x3e4a <modf+0x42>
    3e26:	ab 2f       	mov	r26, r27
    3e28:	00 24       	eor	r0, r0
    3e2a:	46 95       	lsr	r20
    3e2c:	37 95       	ror	r19
    3e2e:	27 95       	ror	r18
    3e30:	01 1c       	adc	r0, r1
    3e32:	a3 95       	inc	r26
    3e34:	d2 f3       	brmi	.-12     	; 0x3e2a <modf+0x22>
    3e36:	00 20       	and	r0, r0
    3e38:	71 f0       	breq	.+28     	; 0x3e56 <modf+0x4e>
    3e3a:	22 0f       	add	r18, r18
    3e3c:	33 1f       	adc	r19, r19
    3e3e:	44 1f       	adc	r20, r20
    3e40:	b3 95       	inc	r27
    3e42:	da f3       	brmi	.-10     	; 0x3e3a <modf+0x32>
    3e44:	0e d0       	rcall	.+28     	; 0x3e62 <modf+0x5a>
    3e46:	0c 94 f3 1b 	jmp	0x37e6	; 0x37e6 <__subsf3>
    3e4a:	61 30       	cpi	r22, 0x01	; 1
    3e4c:	71 05       	cpc	r23, r1
    3e4e:	a0 e8       	ldi	r26, 0x80	; 128
    3e50:	8a 07       	cpc	r24, r26
    3e52:	b9 46       	sbci	r27, 0x69	; 105
    3e54:	30 f4       	brcc	.+12     	; 0x3e62 <modf+0x5a>
    3e56:	9b 01       	movw	r18, r22
    3e58:	ac 01       	movw	r20, r24
    3e5a:	66 27       	eor	r22, r22
    3e5c:	77 27       	eor	r23, r23
    3e5e:	88 27       	eor	r24, r24
    3e60:	90 78       	andi	r25, 0x80	; 128
    3e62:	30 96       	adiw	r30, 0x00	; 0
    3e64:	21 f0       	breq	.+8      	; 0x3e6e <modf+0x66>
    3e66:	20 83       	st	Z, r18
    3e68:	31 83       	std	Z+1, r19	; 0x01
    3e6a:	42 83       	std	Z+2, r20	; 0x02
    3e6c:	53 83       	std	Z+3, r21	; 0x03
    3e6e:	08 95       	ret

00003e70 <__mulsf3>:
    3e70:	0e 94 4b 1f 	call	0x3e96	; 0x3e96 <__mulsf3x>
    3e74:	0c 94 33 1e 	jmp	0x3c66	; 0x3c66 <__fp_round>
    3e78:	0e 94 25 1e 	call	0x3c4a	; 0x3c4a <__fp_pscA>
    3e7c:	38 f0       	brcs	.+14     	; 0x3e8c <__mulsf3+0x1c>
    3e7e:	0e 94 2c 1e 	call	0x3c58	; 0x3c58 <__fp_pscB>
    3e82:	20 f0       	brcs	.+8      	; 0x3e8c <__mulsf3+0x1c>
    3e84:	95 23       	and	r25, r21
    3e86:	11 f0       	breq	.+4      	; 0x3e8c <__mulsf3+0x1c>
    3e88:	0c 94 e5 1d 	jmp	0x3bca	; 0x3bca <__fp_inf>
    3e8c:	0c 94 eb 1d 	jmp	0x3bd6	; 0x3bd6 <__fp_nan>
    3e90:	11 24       	eor	r1, r1
    3e92:	0c 94 67 1e 	jmp	0x3cce	; 0x3cce <__fp_szero>

00003e96 <__mulsf3x>:
    3e96:	0e 94 44 1e 	call	0x3c88	; 0x3c88 <__fp_split3>
    3e9a:	70 f3       	brcs	.-36     	; 0x3e78 <__mulsf3+0x8>

00003e9c <__mulsf3_pse>:
    3e9c:	95 9f       	mul	r25, r21
    3e9e:	c1 f3       	breq	.-16     	; 0x3e90 <__mulsf3+0x20>
    3ea0:	95 0f       	add	r25, r21
    3ea2:	50 e0       	ldi	r21, 0x00	; 0
    3ea4:	55 1f       	adc	r21, r21
    3ea6:	62 9f       	mul	r22, r18
    3ea8:	f0 01       	movw	r30, r0
    3eaa:	72 9f       	mul	r23, r18
    3eac:	bb 27       	eor	r27, r27
    3eae:	f0 0d       	add	r31, r0
    3eb0:	b1 1d       	adc	r27, r1
    3eb2:	63 9f       	mul	r22, r19
    3eb4:	aa 27       	eor	r26, r26
    3eb6:	f0 0d       	add	r31, r0
    3eb8:	b1 1d       	adc	r27, r1
    3eba:	aa 1f       	adc	r26, r26
    3ebc:	64 9f       	mul	r22, r20
    3ebe:	66 27       	eor	r22, r22
    3ec0:	b0 0d       	add	r27, r0
    3ec2:	a1 1d       	adc	r26, r1
    3ec4:	66 1f       	adc	r22, r22
    3ec6:	82 9f       	mul	r24, r18
    3ec8:	22 27       	eor	r18, r18
    3eca:	b0 0d       	add	r27, r0
    3ecc:	a1 1d       	adc	r26, r1
    3ece:	62 1f       	adc	r22, r18
    3ed0:	73 9f       	mul	r23, r19
    3ed2:	b0 0d       	add	r27, r0
    3ed4:	a1 1d       	adc	r26, r1
    3ed6:	62 1f       	adc	r22, r18
    3ed8:	83 9f       	mul	r24, r19
    3eda:	a0 0d       	add	r26, r0
    3edc:	61 1d       	adc	r22, r1
    3ede:	22 1f       	adc	r18, r18
    3ee0:	74 9f       	mul	r23, r20
    3ee2:	33 27       	eor	r19, r19
    3ee4:	a0 0d       	add	r26, r0
    3ee6:	61 1d       	adc	r22, r1
    3ee8:	23 1f       	adc	r18, r19
    3eea:	84 9f       	mul	r24, r20
    3eec:	60 0d       	add	r22, r0
    3eee:	21 1d       	adc	r18, r1
    3ef0:	82 2f       	mov	r24, r18
    3ef2:	76 2f       	mov	r23, r22
    3ef4:	6a 2f       	mov	r22, r26
    3ef6:	11 24       	eor	r1, r1
    3ef8:	9f 57       	subi	r25, 0x7F	; 127
    3efa:	50 40       	sbci	r21, 0x00	; 0
    3efc:	9a f0       	brmi	.+38     	; 0x3f24 <__mulsf3_pse+0x88>
    3efe:	f1 f0       	breq	.+60     	; 0x3f3c <__mulsf3_pse+0xa0>
    3f00:	88 23       	and	r24, r24
    3f02:	4a f0       	brmi	.+18     	; 0x3f16 <__mulsf3_pse+0x7a>
    3f04:	ee 0f       	add	r30, r30
    3f06:	ff 1f       	adc	r31, r31
    3f08:	bb 1f       	adc	r27, r27
    3f0a:	66 1f       	adc	r22, r22
    3f0c:	77 1f       	adc	r23, r23
    3f0e:	88 1f       	adc	r24, r24
    3f10:	91 50       	subi	r25, 0x01	; 1
    3f12:	50 40       	sbci	r21, 0x00	; 0
    3f14:	a9 f7       	brne	.-22     	; 0x3f00 <__mulsf3_pse+0x64>
    3f16:	9e 3f       	cpi	r25, 0xFE	; 254
    3f18:	51 05       	cpc	r21, r1
    3f1a:	80 f0       	brcs	.+32     	; 0x3f3c <__mulsf3_pse+0xa0>
    3f1c:	0c 94 e5 1d 	jmp	0x3bca	; 0x3bca <__fp_inf>
    3f20:	0c 94 67 1e 	jmp	0x3cce	; 0x3cce <__fp_szero>
    3f24:	5f 3f       	cpi	r21, 0xFF	; 255
    3f26:	e4 f3       	brlt	.-8      	; 0x3f20 <__mulsf3_pse+0x84>
    3f28:	98 3e       	cpi	r25, 0xE8	; 232
    3f2a:	d4 f3       	brlt	.-12     	; 0x3f20 <__mulsf3_pse+0x84>
    3f2c:	86 95       	lsr	r24
    3f2e:	77 95       	ror	r23
    3f30:	67 95       	ror	r22
    3f32:	b7 95       	ror	r27
    3f34:	f7 95       	ror	r31
    3f36:	e7 95       	ror	r30
    3f38:	9f 5f       	subi	r25, 0xFF	; 255
    3f3a:	c1 f7       	brne	.-16     	; 0x3f2c <__mulsf3_pse+0x90>
    3f3c:	fe 2b       	or	r31, r30
    3f3e:	88 0f       	add	r24, r24
    3f40:	91 1d       	adc	r25, r1
    3f42:	96 95       	lsr	r25
    3f44:	87 95       	ror	r24
    3f46:	97 f9       	bld	r25, 7
    3f48:	08 95       	ret

00003f4a <pow>:
    3f4a:	fa 01       	movw	r30, r20
    3f4c:	ee 0f       	add	r30, r30
    3f4e:	ff 1f       	adc	r31, r31
    3f50:	30 96       	adiw	r30, 0x00	; 0
    3f52:	21 05       	cpc	r18, r1
    3f54:	31 05       	cpc	r19, r1
    3f56:	a1 f1       	breq	.+104    	; 0x3fc0 <pow+0x76>
    3f58:	61 15       	cp	r22, r1
    3f5a:	71 05       	cpc	r23, r1
    3f5c:	61 f4       	brne	.+24     	; 0x3f76 <pow+0x2c>
    3f5e:	80 38       	cpi	r24, 0x80	; 128
    3f60:	bf e3       	ldi	r27, 0x3F	; 63
    3f62:	9b 07       	cpc	r25, r27
    3f64:	49 f1       	breq	.+82     	; 0x3fb8 <pow+0x6e>
    3f66:	68 94       	set
    3f68:	90 38       	cpi	r25, 0x80	; 128
    3f6a:	81 05       	cpc	r24, r1
    3f6c:	61 f0       	breq	.+24     	; 0x3f86 <pow+0x3c>
    3f6e:	80 38       	cpi	r24, 0x80	; 128
    3f70:	bf ef       	ldi	r27, 0xFF	; 255
    3f72:	9b 07       	cpc	r25, r27
    3f74:	41 f0       	breq	.+16     	; 0x3f86 <pow+0x3c>
    3f76:	99 23       	and	r25, r25
    3f78:	4a f5       	brpl	.+82     	; 0x3fcc <pow+0x82>
    3f7a:	ff 3f       	cpi	r31, 0xFF	; 255
    3f7c:	e1 05       	cpc	r30, r1
    3f7e:	31 05       	cpc	r19, r1
    3f80:	21 05       	cpc	r18, r1
    3f82:	19 f1       	breq	.+70     	; 0x3fca <pow+0x80>
    3f84:	e8 94       	clt
    3f86:	08 94       	sec
    3f88:	e7 95       	ror	r30
    3f8a:	d9 01       	movw	r26, r18
    3f8c:	aa 23       	and	r26, r26
    3f8e:	29 f4       	brne	.+10     	; 0x3f9a <pow+0x50>
    3f90:	ab 2f       	mov	r26, r27
    3f92:	be 2f       	mov	r27, r30
    3f94:	f8 5f       	subi	r31, 0xF8	; 248
    3f96:	d0 f3       	brcs	.-12     	; 0x3f8c <pow+0x42>
    3f98:	10 c0       	rjmp	.+32     	; 0x3fba <pow+0x70>
    3f9a:	ff 5f       	subi	r31, 0xFF	; 255
    3f9c:	70 f4       	brcc	.+28     	; 0x3fba <pow+0x70>
    3f9e:	a6 95       	lsr	r26
    3fa0:	e0 f7       	brcc	.-8      	; 0x3f9a <pow+0x50>
    3fa2:	f7 39       	cpi	r31, 0x97	; 151
    3fa4:	50 f0       	brcs	.+20     	; 0x3fba <pow+0x70>
    3fa6:	19 f0       	breq	.+6      	; 0x3fae <pow+0x64>
    3fa8:	ff 3a       	cpi	r31, 0xAF	; 175
    3faa:	38 f4       	brcc	.+14     	; 0x3fba <pow+0x70>
    3fac:	9f 77       	andi	r25, 0x7F	; 127
    3fae:	9f 93       	push	r25
    3fb0:	0d d0       	rcall	.+26     	; 0x3fcc <pow+0x82>
    3fb2:	0f 90       	pop	r0
    3fb4:	07 fc       	sbrc	r0, 7
    3fb6:	90 58       	subi	r25, 0x80	; 128
    3fb8:	08 95       	ret
    3fba:	46 f0       	brts	.+16     	; 0x3fcc <pow+0x82>
    3fbc:	0c 94 eb 1d 	jmp	0x3bd6	; 0x3bd6 <__fp_nan>
    3fc0:	60 e0       	ldi	r22, 0x00	; 0
    3fc2:	70 e0       	ldi	r23, 0x00	; 0
    3fc4:	80 e8       	ldi	r24, 0x80	; 128
    3fc6:	9f e3       	ldi	r25, 0x3F	; 63
    3fc8:	08 95       	ret
    3fca:	4f e7       	ldi	r20, 0x7F	; 127
    3fcc:	9f 77       	andi	r25, 0x7F	; 127
    3fce:	5f 93       	push	r21
    3fd0:	4f 93       	push	r20
    3fd2:	3f 93       	push	r19
    3fd4:	2f 93       	push	r18
    3fd6:	0e 94 bc 1e 	call	0x3d78	; 0x3d78 <log>
    3fda:	2f 91       	pop	r18
    3fdc:	3f 91       	pop	r19
    3fde:	4f 91       	pop	r20
    3fe0:	5f 91       	pop	r21
    3fe2:	0e 94 38 1f 	call	0x3e70	; 0x3e70 <__mulsf3>
    3fe6:	0c 94 df 1c 	jmp	0x39be	; 0x39be <exp>

00003fea <round>:
    3fea:	0e 94 4c 1e 	call	0x3c98	; 0x3c98 <__fp_splitA>
    3fee:	e8 f0       	brcs	.+58     	; 0x402a <round+0x40>
    3ff0:	9e 37       	cpi	r25, 0x7E	; 126
    3ff2:	e8 f0       	brcs	.+58     	; 0x402e <round+0x44>
    3ff4:	96 39       	cpi	r25, 0x96	; 150
    3ff6:	b8 f4       	brcc	.+46     	; 0x4026 <round+0x3c>
    3ff8:	9e 38       	cpi	r25, 0x8E	; 142
    3ffa:	48 f4       	brcc	.+18     	; 0x400e <round+0x24>
    3ffc:	67 2f       	mov	r22, r23
    3ffe:	78 2f       	mov	r23, r24
    4000:	88 27       	eor	r24, r24
    4002:	98 5f       	subi	r25, 0xF8	; 248
    4004:	f9 cf       	rjmp	.-14     	; 0x3ff8 <round+0xe>
    4006:	86 95       	lsr	r24
    4008:	77 95       	ror	r23
    400a:	67 95       	ror	r22
    400c:	93 95       	inc	r25
    400e:	95 39       	cpi	r25, 0x95	; 149
    4010:	d0 f3       	brcs	.-12     	; 0x4006 <round+0x1c>
    4012:	b6 2f       	mov	r27, r22
    4014:	b1 70       	andi	r27, 0x01	; 1
    4016:	6b 0f       	add	r22, r27
    4018:	71 1d       	adc	r23, r1
    401a:	81 1d       	adc	r24, r1
    401c:	20 f4       	brcc	.+8      	; 0x4026 <round+0x3c>
    401e:	87 95       	ror	r24
    4020:	77 95       	ror	r23
    4022:	67 95       	ror	r22
    4024:	93 95       	inc	r25
    4026:	0c 94 3e 20 	jmp	0x407c	; 0x407c <__fp_mintl>
    402a:	0c 94 59 20 	jmp	0x40b2	; 0x40b2 <__fp_mpack>
    402e:	0c 94 67 1e 	jmp	0x3cce	; 0x3cce <__fp_szero>

00004032 <tan>:
    4032:	df 93       	push	r29
    4034:	d9 2f       	mov	r29, r25
    4036:	0e 94 7d 20 	call	0x40fa	; 0x40fa <__fp_rempio2>
    403a:	e6 95       	lsr	r30
    403c:	d7 95       	ror	r29
    403e:	2a ed       	ldi	r18, 0xDA	; 218
    4040:	3f e0       	ldi	r19, 0x0F	; 15
    4042:	49 e4       	ldi	r20, 0x49	; 73
    4044:	5f e3       	ldi	r21, 0x3F	; 63
    4046:	b3 3a       	cpi	r27, 0xA3	; 163
    4048:	62 07       	cpc	r22, r18
    404a:	73 07       	cpc	r23, r19
    404c:	84 07       	cpc	r24, r20
    404e:	95 07       	cpc	r25, r21
    4050:	d7 95       	ror	r29
    4052:	3a f0       	brmi	.+14     	; 0x4062 <tan+0x30>
    4054:	a2 ea       	ldi	r26, 0xA2	; 162
    4056:	49 ec       	ldi	r20, 0xC9	; 201
    4058:	90 68       	ori	r25, 0x80	; 128
    405a:	0e 94 0b 1c 	call	0x3816	; 0x3816 <__addsf3x>
    405e:	0e 94 33 1e 	call	0x3c66	; 0x3c66 <__fp_round>
    4062:	ec e3       	ldi	r30, 0x3C	; 60
    4064:	f1 e0       	ldi	r31, 0x01	; 1
    4066:	0e 94 67 20 	call	0x40ce	; 0x40ce <__fp_powsodd>
    406a:	dd 0f       	add	r29, r29
    406c:	13 f0       	brvs	.+4      	; 0x4072 <tan+0x40>
    406e:	0e 94 72 1e 	call	0x3ce4	; 0x3ce4 <inverse>
    4072:	dd 0f       	add	r29, r29
    4074:	0b f4       	brvc	.+2      	; 0x4078 <tan+0x46>
    4076:	90 58       	subi	r25, 0x80	; 128
    4078:	df 91       	pop	r29
    407a:	08 95       	ret

0000407c <__fp_mintl>:
    407c:	88 23       	and	r24, r24
    407e:	71 f4       	brne	.+28     	; 0x409c <__fp_mintl+0x20>
    4080:	77 23       	and	r23, r23
    4082:	21 f0       	breq	.+8      	; 0x408c <__fp_mintl+0x10>
    4084:	98 50       	subi	r25, 0x08	; 8
    4086:	87 2b       	or	r24, r23
    4088:	76 2f       	mov	r23, r22
    408a:	07 c0       	rjmp	.+14     	; 0x409a <__fp_mintl+0x1e>
    408c:	66 23       	and	r22, r22
    408e:	11 f4       	brne	.+4      	; 0x4094 <__fp_mintl+0x18>
    4090:	99 27       	eor	r25, r25
    4092:	0d c0       	rjmp	.+26     	; 0x40ae <__fp_mintl+0x32>
    4094:	90 51       	subi	r25, 0x10	; 16
    4096:	86 2b       	or	r24, r22
    4098:	70 e0       	ldi	r23, 0x00	; 0
    409a:	60 e0       	ldi	r22, 0x00	; 0
    409c:	2a f0       	brmi	.+10     	; 0x40a8 <__fp_mintl+0x2c>
    409e:	9a 95       	dec	r25
    40a0:	66 0f       	add	r22, r22
    40a2:	77 1f       	adc	r23, r23
    40a4:	88 1f       	adc	r24, r24
    40a6:	da f7       	brpl	.-10     	; 0x409e <__fp_mintl+0x22>
    40a8:	88 0f       	add	r24, r24
    40aa:	96 95       	lsr	r25
    40ac:	87 95       	ror	r24
    40ae:	97 f9       	bld	r25, 7
    40b0:	08 95       	ret

000040b2 <__fp_mpack>:
    40b2:	9f 3f       	cpi	r25, 0xFF	; 255
    40b4:	31 f0       	breq	.+12     	; 0x40c2 <__fp_mpack_finite+0xc>

000040b6 <__fp_mpack_finite>:
    40b6:	91 50       	subi	r25, 0x01	; 1
    40b8:	20 f4       	brcc	.+8      	; 0x40c2 <__fp_mpack_finite+0xc>
    40ba:	87 95       	ror	r24
    40bc:	77 95       	ror	r23
    40be:	67 95       	ror	r22
    40c0:	b7 95       	ror	r27
    40c2:	88 0f       	add	r24, r24
    40c4:	91 1d       	adc	r25, r1
    40c6:	96 95       	lsr	r25
    40c8:	87 95       	ror	r24
    40ca:	97 f9       	bld	r25, 7
    40cc:	08 95       	ret

000040ce <__fp_powsodd>:
    40ce:	9f 93       	push	r25
    40d0:	8f 93       	push	r24
    40d2:	7f 93       	push	r23
    40d4:	6f 93       	push	r22
    40d6:	ff 93       	push	r31
    40d8:	ef 93       	push	r30
    40da:	9b 01       	movw	r18, r22
    40dc:	ac 01       	movw	r20, r24
    40de:	0e 94 38 1f 	call	0x3e70	; 0x3e70 <__mulsf3>
    40e2:	ef 91       	pop	r30
    40e4:	ff 91       	pop	r31
    40e6:	0e 94 fe 1d 	call	0x3bfc	; 0x3bfc <__fp_powser>
    40ea:	2f 91       	pop	r18
    40ec:	3f 91       	pop	r19
    40ee:	4f 91       	pop	r20
    40f0:	5f 91       	pop	r21
    40f2:	0c 94 38 1f 	jmp	0x3e70	; 0x3e70 <__mulsf3>
    40f6:	0c 94 eb 1d 	jmp	0x3bd6	; 0x3bd6 <__fp_nan>

000040fa <__fp_rempio2>:
    40fa:	0e 94 4c 1e 	call	0x3c98	; 0x3c98 <__fp_splitA>
    40fe:	d8 f3       	brcs	.-10     	; 0x40f6 <__fp_powsodd+0x28>
    4100:	e8 94       	clt
    4102:	e0 e0       	ldi	r30, 0x00	; 0
    4104:	bb 27       	eor	r27, r27
    4106:	9f 57       	subi	r25, 0x7F	; 127
    4108:	f0 f0       	brcs	.+60     	; 0x4146 <__fp_rempio2+0x4c>
    410a:	2a ed       	ldi	r18, 0xDA	; 218
    410c:	3f e0       	ldi	r19, 0x0F	; 15
    410e:	49 ec       	ldi	r20, 0xC9	; 201
    4110:	06 c0       	rjmp	.+12     	; 0x411e <__fp_rempio2+0x24>
    4112:	ee 0f       	add	r30, r30
    4114:	bb 0f       	add	r27, r27
    4116:	66 1f       	adc	r22, r22
    4118:	77 1f       	adc	r23, r23
    411a:	88 1f       	adc	r24, r24
    411c:	28 f0       	brcs	.+10     	; 0x4128 <__fp_rempio2+0x2e>
    411e:	b2 3a       	cpi	r27, 0xA2	; 162
    4120:	62 07       	cpc	r22, r18
    4122:	73 07       	cpc	r23, r19
    4124:	84 07       	cpc	r24, r20
    4126:	28 f0       	brcs	.+10     	; 0x4132 <__fp_rempio2+0x38>
    4128:	b2 5a       	subi	r27, 0xA2	; 162
    412a:	62 0b       	sbc	r22, r18
    412c:	73 0b       	sbc	r23, r19
    412e:	84 0b       	sbc	r24, r20
    4130:	e3 95       	inc	r30
    4132:	9a 95       	dec	r25
    4134:	72 f7       	brpl	.-36     	; 0x4112 <__fp_rempio2+0x18>
    4136:	80 38       	cpi	r24, 0x80	; 128
    4138:	30 f4       	brcc	.+12     	; 0x4146 <__fp_rempio2+0x4c>
    413a:	9a 95       	dec	r25
    413c:	bb 0f       	add	r27, r27
    413e:	66 1f       	adc	r22, r22
    4140:	77 1f       	adc	r23, r23
    4142:	88 1f       	adc	r24, r24
    4144:	d2 f7       	brpl	.-12     	; 0x413a <__fp_rempio2+0x40>
    4146:	90 48       	sbci	r25, 0x80	; 128
    4148:	0c 94 5b 20 	jmp	0x40b6	; 0x40b6 <__fp_mpack_finite>

0000414c <vfprintf>:
    414c:	a0 e1       	ldi	r26, 0x10	; 16
    414e:	b0 e0       	ldi	r27, 0x00	; 0
    4150:	ec ea       	ldi	r30, 0xAC	; 172
    4152:	f0 e2       	ldi	r31, 0x20	; 32
    4154:	0c 94 9e 25 	jmp	0x4b3c	; 0x4b3c <__prologue_saves__>
    4158:	7c 01       	movw	r14, r24
    415a:	1b 01       	movw	r2, r22
    415c:	6a 01       	movw	r12, r20
    415e:	fc 01       	movw	r30, r24
    4160:	16 82       	std	Z+6, r1	; 0x06
    4162:	17 82       	std	Z+7, r1	; 0x07
    4164:	83 81       	ldd	r24, Z+3	; 0x03
    4166:	81 ff       	sbrs	r24, 1
    4168:	44 c3       	rjmp	.+1672   	; 0x47f2 <vfprintf+0x6a6>
    416a:	9e 01       	movw	r18, r28
    416c:	2f 5f       	subi	r18, 0xFF	; 255
    416e:	3f 4f       	sbci	r19, 0xFF	; 255
    4170:	39 01       	movw	r6, r18
    4172:	f7 01       	movw	r30, r14
    4174:	93 81       	ldd	r25, Z+3	; 0x03
    4176:	f1 01       	movw	r30, r2
    4178:	93 fd       	sbrc	r25, 3
    417a:	85 91       	lpm	r24, Z+
    417c:	93 ff       	sbrs	r25, 3
    417e:	81 91       	ld	r24, Z+
    4180:	1f 01       	movw	r2, r30
    4182:	88 23       	and	r24, r24
    4184:	09 f4       	brne	.+2      	; 0x4188 <vfprintf+0x3c>
    4186:	31 c3       	rjmp	.+1634   	; 0x47ea <vfprintf+0x69e>
    4188:	85 32       	cpi	r24, 0x25	; 37
    418a:	39 f4       	brne	.+14     	; 0x419a <vfprintf+0x4e>
    418c:	93 fd       	sbrc	r25, 3
    418e:	85 91       	lpm	r24, Z+
    4190:	93 ff       	sbrs	r25, 3
    4192:	81 91       	ld	r24, Z+
    4194:	1f 01       	movw	r2, r30
    4196:	85 32       	cpi	r24, 0x25	; 37
    4198:	39 f4       	brne	.+14     	; 0x41a8 <vfprintf+0x5c>
    419a:	b7 01       	movw	r22, r14
    419c:	90 e0       	ldi	r25, 0x00	; 0
    419e:	0e 94 68 27 	call	0x4ed0	; 0x4ed0 <fputc>
    41a2:	56 01       	movw	r10, r12
    41a4:	65 01       	movw	r12, r10
    41a6:	e5 cf       	rjmp	.-54     	; 0x4172 <vfprintf+0x26>
    41a8:	10 e0       	ldi	r17, 0x00	; 0
    41aa:	51 2c       	mov	r5, r1
    41ac:	91 2c       	mov	r9, r1
    41ae:	ff e1       	ldi	r31, 0x1F	; 31
    41b0:	f9 15       	cp	r31, r9
    41b2:	d8 f0       	brcs	.+54     	; 0x41ea <vfprintf+0x9e>
    41b4:	8b 32       	cpi	r24, 0x2B	; 43
    41b6:	79 f0       	breq	.+30     	; 0x41d6 <vfprintf+0x8a>
    41b8:	38 f4       	brcc	.+14     	; 0x41c8 <vfprintf+0x7c>
    41ba:	80 32       	cpi	r24, 0x20	; 32
    41bc:	79 f0       	breq	.+30     	; 0x41dc <vfprintf+0x90>
    41be:	83 32       	cpi	r24, 0x23	; 35
    41c0:	a1 f4       	brne	.+40     	; 0x41ea <vfprintf+0x9e>
    41c2:	f9 2d       	mov	r31, r9
    41c4:	f0 61       	ori	r31, 0x10	; 16
    41c6:	2e c0       	rjmp	.+92     	; 0x4224 <vfprintf+0xd8>
    41c8:	8d 32       	cpi	r24, 0x2D	; 45
    41ca:	61 f0       	breq	.+24     	; 0x41e4 <vfprintf+0x98>
    41cc:	80 33       	cpi	r24, 0x30	; 48
    41ce:	69 f4       	brne	.+26     	; 0x41ea <vfprintf+0x9e>
    41d0:	29 2d       	mov	r18, r9
    41d2:	21 60       	ori	r18, 0x01	; 1
    41d4:	2d c0       	rjmp	.+90     	; 0x4230 <vfprintf+0xe4>
    41d6:	39 2d       	mov	r19, r9
    41d8:	32 60       	ori	r19, 0x02	; 2
    41da:	93 2e       	mov	r9, r19
    41dc:	89 2d       	mov	r24, r9
    41de:	84 60       	ori	r24, 0x04	; 4
    41e0:	98 2e       	mov	r9, r24
    41e2:	2a c0       	rjmp	.+84     	; 0x4238 <vfprintf+0xec>
    41e4:	e9 2d       	mov	r30, r9
    41e6:	e8 60       	ori	r30, 0x08	; 8
    41e8:	15 c0       	rjmp	.+42     	; 0x4214 <vfprintf+0xc8>
    41ea:	97 fc       	sbrc	r9, 7
    41ec:	2d c0       	rjmp	.+90     	; 0x4248 <vfprintf+0xfc>
    41ee:	20 ed       	ldi	r18, 0xD0	; 208
    41f0:	28 0f       	add	r18, r24
    41f2:	2a 30       	cpi	r18, 0x0A	; 10
    41f4:	88 f4       	brcc	.+34     	; 0x4218 <vfprintf+0xcc>
    41f6:	96 fe       	sbrs	r9, 6
    41f8:	06 c0       	rjmp	.+12     	; 0x4206 <vfprintf+0xba>
    41fa:	3a e0       	ldi	r19, 0x0A	; 10
    41fc:	13 9f       	mul	r17, r19
    41fe:	20 0d       	add	r18, r0
    4200:	11 24       	eor	r1, r1
    4202:	12 2f       	mov	r17, r18
    4204:	19 c0       	rjmp	.+50     	; 0x4238 <vfprintf+0xec>
    4206:	8a e0       	ldi	r24, 0x0A	; 10
    4208:	58 9e       	mul	r5, r24
    420a:	20 0d       	add	r18, r0
    420c:	11 24       	eor	r1, r1
    420e:	52 2e       	mov	r5, r18
    4210:	e9 2d       	mov	r30, r9
    4212:	e0 62       	ori	r30, 0x20	; 32
    4214:	9e 2e       	mov	r9, r30
    4216:	10 c0       	rjmp	.+32     	; 0x4238 <vfprintf+0xec>
    4218:	8e 32       	cpi	r24, 0x2E	; 46
    421a:	31 f4       	brne	.+12     	; 0x4228 <vfprintf+0xdc>
    421c:	96 fc       	sbrc	r9, 6
    421e:	e5 c2       	rjmp	.+1482   	; 0x47ea <vfprintf+0x69e>
    4220:	f9 2d       	mov	r31, r9
    4222:	f0 64       	ori	r31, 0x40	; 64
    4224:	9f 2e       	mov	r9, r31
    4226:	08 c0       	rjmp	.+16     	; 0x4238 <vfprintf+0xec>
    4228:	8c 36       	cpi	r24, 0x6C	; 108
    422a:	21 f4       	brne	.+8      	; 0x4234 <vfprintf+0xe8>
    422c:	29 2d       	mov	r18, r9
    422e:	20 68       	ori	r18, 0x80	; 128
    4230:	92 2e       	mov	r9, r18
    4232:	02 c0       	rjmp	.+4      	; 0x4238 <vfprintf+0xec>
    4234:	88 36       	cpi	r24, 0x68	; 104
    4236:	41 f4       	brne	.+16     	; 0x4248 <vfprintf+0xfc>
    4238:	f1 01       	movw	r30, r2
    423a:	93 fd       	sbrc	r25, 3
    423c:	85 91       	lpm	r24, Z+
    423e:	93 ff       	sbrs	r25, 3
    4240:	81 91       	ld	r24, Z+
    4242:	1f 01       	movw	r2, r30
    4244:	81 11       	cpse	r24, r1
    4246:	b3 cf       	rjmp	.-154    	; 0x41ae <vfprintf+0x62>
    4248:	9b eb       	ldi	r25, 0xBB	; 187
    424a:	98 0f       	add	r25, r24
    424c:	93 30       	cpi	r25, 0x03	; 3
    424e:	20 f4       	brcc	.+8      	; 0x4258 <vfprintf+0x10c>
    4250:	99 2d       	mov	r25, r9
    4252:	90 61       	ori	r25, 0x10	; 16
    4254:	80 5e       	subi	r24, 0xE0	; 224
    4256:	07 c0       	rjmp	.+14     	; 0x4266 <vfprintf+0x11a>
    4258:	9b e9       	ldi	r25, 0x9B	; 155
    425a:	98 0f       	add	r25, r24
    425c:	93 30       	cpi	r25, 0x03	; 3
    425e:	08 f0       	brcs	.+2      	; 0x4262 <vfprintf+0x116>
    4260:	66 c1       	rjmp	.+716    	; 0x452e <vfprintf+0x3e2>
    4262:	99 2d       	mov	r25, r9
    4264:	9f 7e       	andi	r25, 0xEF	; 239
    4266:	96 ff       	sbrs	r25, 6
    4268:	16 e0       	ldi	r17, 0x06	; 6
    426a:	9f 73       	andi	r25, 0x3F	; 63
    426c:	99 2e       	mov	r9, r25
    426e:	85 36       	cpi	r24, 0x65	; 101
    4270:	19 f4       	brne	.+6      	; 0x4278 <vfprintf+0x12c>
    4272:	90 64       	ori	r25, 0x40	; 64
    4274:	99 2e       	mov	r9, r25
    4276:	08 c0       	rjmp	.+16     	; 0x4288 <vfprintf+0x13c>
    4278:	86 36       	cpi	r24, 0x66	; 102
    427a:	21 f4       	brne	.+8      	; 0x4284 <vfprintf+0x138>
    427c:	39 2f       	mov	r19, r25
    427e:	30 68       	ori	r19, 0x80	; 128
    4280:	93 2e       	mov	r9, r19
    4282:	02 c0       	rjmp	.+4      	; 0x4288 <vfprintf+0x13c>
    4284:	11 11       	cpse	r17, r1
    4286:	11 50       	subi	r17, 0x01	; 1
    4288:	97 fe       	sbrs	r9, 7
    428a:	07 c0       	rjmp	.+14     	; 0x429a <vfprintf+0x14e>
    428c:	1c 33       	cpi	r17, 0x3C	; 60
    428e:	50 f4       	brcc	.+20     	; 0x42a4 <vfprintf+0x158>
    4290:	44 24       	eor	r4, r4
    4292:	43 94       	inc	r4
    4294:	41 0e       	add	r4, r17
    4296:	27 e0       	ldi	r18, 0x07	; 7
    4298:	0b c0       	rjmp	.+22     	; 0x42b0 <vfprintf+0x164>
    429a:	18 30       	cpi	r17, 0x08	; 8
    429c:	38 f0       	brcs	.+14     	; 0x42ac <vfprintf+0x160>
    429e:	27 e0       	ldi	r18, 0x07	; 7
    42a0:	17 e0       	ldi	r17, 0x07	; 7
    42a2:	05 c0       	rjmp	.+10     	; 0x42ae <vfprintf+0x162>
    42a4:	27 e0       	ldi	r18, 0x07	; 7
    42a6:	9c e3       	ldi	r25, 0x3C	; 60
    42a8:	49 2e       	mov	r4, r25
    42aa:	02 c0       	rjmp	.+4      	; 0x42b0 <vfprintf+0x164>
    42ac:	21 2f       	mov	r18, r17
    42ae:	41 2c       	mov	r4, r1
    42b0:	56 01       	movw	r10, r12
    42b2:	84 e0       	ldi	r24, 0x04	; 4
    42b4:	a8 0e       	add	r10, r24
    42b6:	b1 1c       	adc	r11, r1
    42b8:	f6 01       	movw	r30, r12
    42ba:	60 81       	ld	r22, Z
    42bc:	71 81       	ldd	r23, Z+1	; 0x01
    42be:	82 81       	ldd	r24, Z+2	; 0x02
    42c0:	93 81       	ldd	r25, Z+3	; 0x03
    42c2:	04 2d       	mov	r16, r4
    42c4:	a3 01       	movw	r20, r6
    42c6:	0e 94 46 26 	call	0x4c8c	; 0x4c8c <__ftoa_engine>
    42ca:	6c 01       	movw	r12, r24
    42cc:	f9 81       	ldd	r31, Y+1	; 0x01
    42ce:	fc 87       	std	Y+12, r31	; 0x0c
    42d0:	f0 ff       	sbrs	r31, 0
    42d2:	02 c0       	rjmp	.+4      	; 0x42d8 <vfprintf+0x18c>
    42d4:	f3 ff       	sbrs	r31, 3
    42d6:	06 c0       	rjmp	.+12     	; 0x42e4 <vfprintf+0x198>
    42d8:	91 fc       	sbrc	r9, 1
    42da:	06 c0       	rjmp	.+12     	; 0x42e8 <vfprintf+0x19c>
    42dc:	92 fe       	sbrs	r9, 2
    42de:	06 c0       	rjmp	.+12     	; 0x42ec <vfprintf+0x1a0>
    42e0:	00 e2       	ldi	r16, 0x20	; 32
    42e2:	05 c0       	rjmp	.+10     	; 0x42ee <vfprintf+0x1a2>
    42e4:	0d e2       	ldi	r16, 0x2D	; 45
    42e6:	03 c0       	rjmp	.+6      	; 0x42ee <vfprintf+0x1a2>
    42e8:	0b e2       	ldi	r16, 0x2B	; 43
    42ea:	01 c0       	rjmp	.+2      	; 0x42ee <vfprintf+0x1a2>
    42ec:	00 e0       	ldi	r16, 0x00	; 0
    42ee:	8c 85       	ldd	r24, Y+12	; 0x0c
    42f0:	8c 70       	andi	r24, 0x0C	; 12
    42f2:	19 f0       	breq	.+6      	; 0x42fa <vfprintf+0x1ae>
    42f4:	01 11       	cpse	r16, r1
    42f6:	5a c2       	rjmp	.+1204   	; 0x47ac <vfprintf+0x660>
    42f8:	9b c2       	rjmp	.+1334   	; 0x4830 <vfprintf+0x6e4>
    42fa:	97 fe       	sbrs	r9, 7
    42fc:	10 c0       	rjmp	.+32     	; 0x431e <vfprintf+0x1d2>
    42fe:	4c 0c       	add	r4, r12
    4300:	fc 85       	ldd	r31, Y+12	; 0x0c
    4302:	f4 ff       	sbrs	r31, 4
    4304:	04 c0       	rjmp	.+8      	; 0x430e <vfprintf+0x1c2>
    4306:	8a 81       	ldd	r24, Y+2	; 0x02
    4308:	81 33       	cpi	r24, 0x31	; 49
    430a:	09 f4       	brne	.+2      	; 0x430e <vfprintf+0x1c2>
    430c:	4a 94       	dec	r4
    430e:	14 14       	cp	r1, r4
    4310:	74 f5       	brge	.+92     	; 0x436e <vfprintf+0x222>
    4312:	28 e0       	ldi	r18, 0x08	; 8
    4314:	24 15       	cp	r18, r4
    4316:	78 f5       	brcc	.+94     	; 0x4376 <vfprintf+0x22a>
    4318:	88 e0       	ldi	r24, 0x08	; 8
    431a:	48 2e       	mov	r4, r24
    431c:	2c c0       	rjmp	.+88     	; 0x4376 <vfprintf+0x22a>
    431e:	96 fc       	sbrc	r9, 6
    4320:	2a c0       	rjmp	.+84     	; 0x4376 <vfprintf+0x22a>
    4322:	81 2f       	mov	r24, r17
    4324:	90 e0       	ldi	r25, 0x00	; 0
    4326:	8c 15       	cp	r24, r12
    4328:	9d 05       	cpc	r25, r13
    432a:	9c f0       	brlt	.+38     	; 0x4352 <vfprintf+0x206>
    432c:	3c ef       	ldi	r19, 0xFC	; 252
    432e:	c3 16       	cp	r12, r19
    4330:	3f ef       	ldi	r19, 0xFF	; 255
    4332:	d3 06       	cpc	r13, r19
    4334:	74 f0       	brlt	.+28     	; 0x4352 <vfprintf+0x206>
    4336:	89 2d       	mov	r24, r9
    4338:	80 68       	ori	r24, 0x80	; 128
    433a:	98 2e       	mov	r9, r24
    433c:	0a c0       	rjmp	.+20     	; 0x4352 <vfprintf+0x206>
    433e:	e2 e0       	ldi	r30, 0x02	; 2
    4340:	f0 e0       	ldi	r31, 0x00	; 0
    4342:	ec 0f       	add	r30, r28
    4344:	fd 1f       	adc	r31, r29
    4346:	e1 0f       	add	r30, r17
    4348:	f1 1d       	adc	r31, r1
    434a:	80 81       	ld	r24, Z
    434c:	80 33       	cpi	r24, 0x30	; 48
    434e:	19 f4       	brne	.+6      	; 0x4356 <vfprintf+0x20a>
    4350:	11 50       	subi	r17, 0x01	; 1
    4352:	11 11       	cpse	r17, r1
    4354:	f4 cf       	rjmp	.-24     	; 0x433e <vfprintf+0x1f2>
    4356:	97 fe       	sbrs	r9, 7
    4358:	0e c0       	rjmp	.+28     	; 0x4376 <vfprintf+0x22a>
    435a:	44 24       	eor	r4, r4
    435c:	43 94       	inc	r4
    435e:	41 0e       	add	r4, r17
    4360:	81 2f       	mov	r24, r17
    4362:	90 e0       	ldi	r25, 0x00	; 0
    4364:	c8 16       	cp	r12, r24
    4366:	d9 06       	cpc	r13, r25
    4368:	2c f4       	brge	.+10     	; 0x4374 <vfprintf+0x228>
    436a:	1c 19       	sub	r17, r12
    436c:	04 c0       	rjmp	.+8      	; 0x4376 <vfprintf+0x22a>
    436e:	44 24       	eor	r4, r4
    4370:	43 94       	inc	r4
    4372:	01 c0       	rjmp	.+2      	; 0x4376 <vfprintf+0x22a>
    4374:	10 e0       	ldi	r17, 0x00	; 0
    4376:	97 fe       	sbrs	r9, 7
    4378:	06 c0       	rjmp	.+12     	; 0x4386 <vfprintf+0x23a>
    437a:	1c 14       	cp	r1, r12
    437c:	1d 04       	cpc	r1, r13
    437e:	34 f4       	brge	.+12     	; 0x438c <vfprintf+0x240>
    4380:	c6 01       	movw	r24, r12
    4382:	01 96       	adiw	r24, 0x01	; 1
    4384:	05 c0       	rjmp	.+10     	; 0x4390 <vfprintf+0x244>
    4386:	85 e0       	ldi	r24, 0x05	; 5
    4388:	90 e0       	ldi	r25, 0x00	; 0
    438a:	02 c0       	rjmp	.+4      	; 0x4390 <vfprintf+0x244>
    438c:	81 e0       	ldi	r24, 0x01	; 1
    438e:	90 e0       	ldi	r25, 0x00	; 0
    4390:	01 11       	cpse	r16, r1
    4392:	01 96       	adiw	r24, 0x01	; 1
    4394:	11 23       	and	r17, r17
    4396:	31 f0       	breq	.+12     	; 0x43a4 <vfprintf+0x258>
    4398:	21 2f       	mov	r18, r17
    439a:	30 e0       	ldi	r19, 0x00	; 0
    439c:	2f 5f       	subi	r18, 0xFF	; 255
    439e:	3f 4f       	sbci	r19, 0xFF	; 255
    43a0:	82 0f       	add	r24, r18
    43a2:	93 1f       	adc	r25, r19
    43a4:	25 2d       	mov	r18, r5
    43a6:	30 e0       	ldi	r19, 0x00	; 0
    43a8:	82 17       	cp	r24, r18
    43aa:	93 07       	cpc	r25, r19
    43ac:	14 f4       	brge	.+4      	; 0x43b2 <vfprintf+0x266>
    43ae:	58 1a       	sub	r5, r24
    43b0:	01 c0       	rjmp	.+2      	; 0x43b4 <vfprintf+0x268>
    43b2:	51 2c       	mov	r5, r1
    43b4:	89 2d       	mov	r24, r9
    43b6:	89 70       	andi	r24, 0x09	; 9
    43b8:	49 f4       	brne	.+18     	; 0x43cc <vfprintf+0x280>
    43ba:	55 20       	and	r5, r5
    43bc:	39 f0       	breq	.+14     	; 0x43cc <vfprintf+0x280>
    43be:	b7 01       	movw	r22, r14
    43c0:	80 e2       	ldi	r24, 0x20	; 32
    43c2:	90 e0       	ldi	r25, 0x00	; 0
    43c4:	0e 94 68 27 	call	0x4ed0	; 0x4ed0 <fputc>
    43c8:	5a 94       	dec	r5
    43ca:	f7 cf       	rjmp	.-18     	; 0x43ba <vfprintf+0x26e>
    43cc:	00 23       	and	r16, r16
    43ce:	29 f0       	breq	.+10     	; 0x43da <vfprintf+0x28e>
    43d0:	b7 01       	movw	r22, r14
    43d2:	80 2f       	mov	r24, r16
    43d4:	90 e0       	ldi	r25, 0x00	; 0
    43d6:	0e 94 68 27 	call	0x4ed0	; 0x4ed0 <fputc>
    43da:	93 fc       	sbrc	r9, 3
    43dc:	09 c0       	rjmp	.+18     	; 0x43f0 <vfprintf+0x2a4>
    43de:	55 20       	and	r5, r5
    43e0:	39 f0       	breq	.+14     	; 0x43f0 <vfprintf+0x2a4>
    43e2:	b7 01       	movw	r22, r14
    43e4:	80 e3       	ldi	r24, 0x30	; 48
    43e6:	90 e0       	ldi	r25, 0x00	; 0
    43e8:	0e 94 68 27 	call	0x4ed0	; 0x4ed0 <fputc>
    43ec:	5a 94       	dec	r5
    43ee:	f7 cf       	rjmp	.-18     	; 0x43de <vfprintf+0x292>
    43f0:	97 fe       	sbrs	r9, 7
    43f2:	4c c0       	rjmp	.+152    	; 0x448c <vfprintf+0x340>
    43f4:	46 01       	movw	r8, r12
    43f6:	d7 fe       	sbrs	r13, 7
    43f8:	02 c0       	rjmp	.+4      	; 0x43fe <vfprintf+0x2b2>
    43fa:	81 2c       	mov	r8, r1
    43fc:	91 2c       	mov	r9, r1
    43fe:	c6 01       	movw	r24, r12
    4400:	88 19       	sub	r24, r8
    4402:	99 09       	sbc	r25, r9
    4404:	f3 01       	movw	r30, r6
    4406:	e8 0f       	add	r30, r24
    4408:	f9 1f       	adc	r31, r25
    440a:	ed 87       	std	Y+13, r30	; 0x0d
    440c:	fe 87       	std	Y+14, r31	; 0x0e
    440e:	96 01       	movw	r18, r12
    4410:	24 19       	sub	r18, r4
    4412:	31 09       	sbc	r19, r1
    4414:	2f 87       	std	Y+15, r18	; 0x0f
    4416:	38 8b       	std	Y+16, r19	; 0x10
    4418:	01 2f       	mov	r16, r17
    441a:	10 e0       	ldi	r17, 0x00	; 0
    441c:	11 95       	neg	r17
    441e:	01 95       	neg	r16
    4420:	11 09       	sbc	r17, r1
    4422:	3f ef       	ldi	r19, 0xFF	; 255
    4424:	83 16       	cp	r8, r19
    4426:	93 06       	cpc	r9, r19
    4428:	29 f4       	brne	.+10     	; 0x4434 <vfprintf+0x2e8>
    442a:	b7 01       	movw	r22, r14
    442c:	8e e2       	ldi	r24, 0x2E	; 46
    442e:	90 e0       	ldi	r25, 0x00	; 0
    4430:	0e 94 68 27 	call	0x4ed0	; 0x4ed0 <fputc>
    4434:	c8 14       	cp	r12, r8
    4436:	d9 04       	cpc	r13, r9
    4438:	4c f0       	brlt	.+18     	; 0x444c <vfprintf+0x300>
    443a:	8f 85       	ldd	r24, Y+15	; 0x0f
    443c:	98 89       	ldd	r25, Y+16	; 0x10
    443e:	88 15       	cp	r24, r8
    4440:	99 05       	cpc	r25, r9
    4442:	24 f4       	brge	.+8      	; 0x444c <vfprintf+0x300>
    4444:	ed 85       	ldd	r30, Y+13	; 0x0d
    4446:	fe 85       	ldd	r31, Y+14	; 0x0e
    4448:	81 81       	ldd	r24, Z+1	; 0x01
    444a:	01 c0       	rjmp	.+2      	; 0x444e <vfprintf+0x302>
    444c:	80 e3       	ldi	r24, 0x30	; 48
    444e:	f1 e0       	ldi	r31, 0x01	; 1
    4450:	8f 1a       	sub	r8, r31
    4452:	91 08       	sbc	r9, r1
    4454:	2d 85       	ldd	r18, Y+13	; 0x0d
    4456:	3e 85       	ldd	r19, Y+14	; 0x0e
    4458:	2f 5f       	subi	r18, 0xFF	; 255
    445a:	3f 4f       	sbci	r19, 0xFF	; 255
    445c:	2d 87       	std	Y+13, r18	; 0x0d
    445e:	3e 87       	std	Y+14, r19	; 0x0e
    4460:	80 16       	cp	r8, r16
    4462:	91 06       	cpc	r9, r17
    4464:	2c f0       	brlt	.+10     	; 0x4470 <vfprintf+0x324>
    4466:	b7 01       	movw	r22, r14
    4468:	90 e0       	ldi	r25, 0x00	; 0
    446a:	0e 94 68 27 	call	0x4ed0	; 0x4ed0 <fputc>
    446e:	d9 cf       	rjmp	.-78     	; 0x4422 <vfprintf+0x2d6>
    4470:	c8 14       	cp	r12, r8
    4472:	d9 04       	cpc	r13, r9
    4474:	41 f4       	brne	.+16     	; 0x4486 <vfprintf+0x33a>
    4476:	9a 81       	ldd	r25, Y+2	; 0x02
    4478:	96 33       	cpi	r25, 0x36	; 54
    447a:	20 f4       	brcc	.+8      	; 0x4484 <vfprintf+0x338>
    447c:	95 33       	cpi	r25, 0x35	; 53
    447e:	19 f4       	brne	.+6      	; 0x4486 <vfprintf+0x33a>
    4480:	3c 85       	ldd	r19, Y+12	; 0x0c
    4482:	34 ff       	sbrs	r19, 4
    4484:	81 e3       	ldi	r24, 0x31	; 49
    4486:	b7 01       	movw	r22, r14
    4488:	90 e0       	ldi	r25, 0x00	; 0
    448a:	4e c0       	rjmp	.+156    	; 0x4528 <vfprintf+0x3dc>
    448c:	8a 81       	ldd	r24, Y+2	; 0x02
    448e:	81 33       	cpi	r24, 0x31	; 49
    4490:	19 f0       	breq	.+6      	; 0x4498 <vfprintf+0x34c>
    4492:	9c 85       	ldd	r25, Y+12	; 0x0c
    4494:	9f 7e       	andi	r25, 0xEF	; 239
    4496:	9c 87       	std	Y+12, r25	; 0x0c
    4498:	b7 01       	movw	r22, r14
    449a:	90 e0       	ldi	r25, 0x00	; 0
    449c:	0e 94 68 27 	call	0x4ed0	; 0x4ed0 <fputc>
    44a0:	11 11       	cpse	r17, r1
    44a2:	05 c0       	rjmp	.+10     	; 0x44ae <vfprintf+0x362>
    44a4:	94 fc       	sbrc	r9, 4
    44a6:	18 c0       	rjmp	.+48     	; 0x44d8 <vfprintf+0x38c>
    44a8:	85 e6       	ldi	r24, 0x65	; 101
    44aa:	90 e0       	ldi	r25, 0x00	; 0
    44ac:	17 c0       	rjmp	.+46     	; 0x44dc <vfprintf+0x390>
    44ae:	b7 01       	movw	r22, r14
    44b0:	8e e2       	ldi	r24, 0x2E	; 46
    44b2:	90 e0       	ldi	r25, 0x00	; 0
    44b4:	0e 94 68 27 	call	0x4ed0	; 0x4ed0 <fputc>
    44b8:	1e 5f       	subi	r17, 0xFE	; 254
    44ba:	82 e0       	ldi	r24, 0x02	; 2
    44bc:	01 e0       	ldi	r16, 0x01	; 1
    44be:	08 0f       	add	r16, r24
    44c0:	f3 01       	movw	r30, r6
    44c2:	e8 0f       	add	r30, r24
    44c4:	f1 1d       	adc	r31, r1
    44c6:	80 81       	ld	r24, Z
    44c8:	b7 01       	movw	r22, r14
    44ca:	90 e0       	ldi	r25, 0x00	; 0
    44cc:	0e 94 68 27 	call	0x4ed0	; 0x4ed0 <fputc>
    44d0:	80 2f       	mov	r24, r16
    44d2:	01 13       	cpse	r16, r17
    44d4:	f3 cf       	rjmp	.-26     	; 0x44bc <vfprintf+0x370>
    44d6:	e6 cf       	rjmp	.-52     	; 0x44a4 <vfprintf+0x358>
    44d8:	85 e4       	ldi	r24, 0x45	; 69
    44da:	90 e0       	ldi	r25, 0x00	; 0
    44dc:	b7 01       	movw	r22, r14
    44de:	0e 94 68 27 	call	0x4ed0	; 0x4ed0 <fputc>
    44e2:	d7 fc       	sbrc	r13, 7
    44e4:	06 c0       	rjmp	.+12     	; 0x44f2 <vfprintf+0x3a6>
    44e6:	c1 14       	cp	r12, r1
    44e8:	d1 04       	cpc	r13, r1
    44ea:	41 f4       	brne	.+16     	; 0x44fc <vfprintf+0x3b0>
    44ec:	ec 85       	ldd	r30, Y+12	; 0x0c
    44ee:	e4 ff       	sbrs	r30, 4
    44f0:	05 c0       	rjmp	.+10     	; 0x44fc <vfprintf+0x3b0>
    44f2:	d1 94       	neg	r13
    44f4:	c1 94       	neg	r12
    44f6:	d1 08       	sbc	r13, r1
    44f8:	8d e2       	ldi	r24, 0x2D	; 45
    44fa:	01 c0       	rjmp	.+2      	; 0x44fe <vfprintf+0x3b2>
    44fc:	8b e2       	ldi	r24, 0x2B	; 43
    44fe:	b7 01       	movw	r22, r14
    4500:	90 e0       	ldi	r25, 0x00	; 0
    4502:	0e 94 68 27 	call	0x4ed0	; 0x4ed0 <fputc>
    4506:	80 e3       	ldi	r24, 0x30	; 48
    4508:	2a e0       	ldi	r18, 0x0A	; 10
    450a:	c2 16       	cp	r12, r18
    450c:	d1 04       	cpc	r13, r1
    450e:	2c f0       	brlt	.+10     	; 0x451a <vfprintf+0x3ce>
    4510:	8f 5f       	subi	r24, 0xFF	; 255
    4512:	fa e0       	ldi	r31, 0x0A	; 10
    4514:	cf 1a       	sub	r12, r31
    4516:	d1 08       	sbc	r13, r1
    4518:	f7 cf       	rjmp	.-18     	; 0x4508 <vfprintf+0x3bc>
    451a:	b7 01       	movw	r22, r14
    451c:	90 e0       	ldi	r25, 0x00	; 0
    451e:	0e 94 68 27 	call	0x4ed0	; 0x4ed0 <fputc>
    4522:	b7 01       	movw	r22, r14
    4524:	c6 01       	movw	r24, r12
    4526:	c0 96       	adiw	r24, 0x30	; 48
    4528:	0e 94 68 27 	call	0x4ed0	; 0x4ed0 <fputc>
    452c:	54 c1       	rjmp	.+680    	; 0x47d6 <vfprintf+0x68a>
    452e:	83 36       	cpi	r24, 0x63	; 99
    4530:	31 f0       	breq	.+12     	; 0x453e <vfprintf+0x3f2>
    4532:	83 37       	cpi	r24, 0x73	; 115
    4534:	79 f0       	breq	.+30     	; 0x4554 <vfprintf+0x408>
    4536:	83 35       	cpi	r24, 0x53	; 83
    4538:	09 f0       	breq	.+2      	; 0x453c <vfprintf+0x3f0>
    453a:	56 c0       	rjmp	.+172    	; 0x45e8 <vfprintf+0x49c>
    453c:	20 c0       	rjmp	.+64     	; 0x457e <vfprintf+0x432>
    453e:	56 01       	movw	r10, r12
    4540:	32 e0       	ldi	r19, 0x02	; 2
    4542:	a3 0e       	add	r10, r19
    4544:	b1 1c       	adc	r11, r1
    4546:	f6 01       	movw	r30, r12
    4548:	80 81       	ld	r24, Z
    454a:	89 83       	std	Y+1, r24	; 0x01
    454c:	01 e0       	ldi	r16, 0x01	; 1
    454e:	10 e0       	ldi	r17, 0x00	; 0
    4550:	63 01       	movw	r12, r6
    4552:	12 c0       	rjmp	.+36     	; 0x4578 <vfprintf+0x42c>
    4554:	56 01       	movw	r10, r12
    4556:	f2 e0       	ldi	r31, 0x02	; 2
    4558:	af 0e       	add	r10, r31
    455a:	b1 1c       	adc	r11, r1
    455c:	f6 01       	movw	r30, r12
    455e:	c0 80       	ld	r12, Z
    4560:	d1 80       	ldd	r13, Z+1	; 0x01
    4562:	96 fe       	sbrs	r9, 6
    4564:	03 c0       	rjmp	.+6      	; 0x456c <vfprintf+0x420>
    4566:	61 2f       	mov	r22, r17
    4568:	70 e0       	ldi	r23, 0x00	; 0
    456a:	02 c0       	rjmp	.+4      	; 0x4570 <vfprintf+0x424>
    456c:	6f ef       	ldi	r22, 0xFF	; 255
    456e:	7f ef       	ldi	r23, 0xFF	; 255
    4570:	c6 01       	movw	r24, r12
    4572:	0e 94 2e 27 	call	0x4e5c	; 0x4e5c <strnlen>
    4576:	8c 01       	movw	r16, r24
    4578:	f9 2d       	mov	r31, r9
    457a:	ff 77       	andi	r31, 0x7F	; 127
    457c:	14 c0       	rjmp	.+40     	; 0x45a6 <vfprintf+0x45a>
    457e:	56 01       	movw	r10, r12
    4580:	22 e0       	ldi	r18, 0x02	; 2
    4582:	a2 0e       	add	r10, r18
    4584:	b1 1c       	adc	r11, r1
    4586:	f6 01       	movw	r30, r12
    4588:	c0 80       	ld	r12, Z
    458a:	d1 80       	ldd	r13, Z+1	; 0x01
    458c:	96 fe       	sbrs	r9, 6
    458e:	03 c0       	rjmp	.+6      	; 0x4596 <vfprintf+0x44a>
    4590:	61 2f       	mov	r22, r17
    4592:	70 e0       	ldi	r23, 0x00	; 0
    4594:	02 c0       	rjmp	.+4      	; 0x459a <vfprintf+0x44e>
    4596:	6f ef       	ldi	r22, 0xFF	; 255
    4598:	7f ef       	ldi	r23, 0xFF	; 255
    459a:	c6 01       	movw	r24, r12
    459c:	0e 94 1e 27 	call	0x4e3c	; 0x4e3c <strnlen_P>
    45a0:	8c 01       	movw	r16, r24
    45a2:	f9 2d       	mov	r31, r9
    45a4:	f0 68       	ori	r31, 0x80	; 128
    45a6:	9f 2e       	mov	r9, r31
    45a8:	f3 fd       	sbrc	r31, 3
    45aa:	1a c0       	rjmp	.+52     	; 0x45e0 <vfprintf+0x494>
    45ac:	85 2d       	mov	r24, r5
    45ae:	90 e0       	ldi	r25, 0x00	; 0
    45b0:	08 17       	cp	r16, r24
    45b2:	19 07       	cpc	r17, r25
    45b4:	a8 f4       	brcc	.+42     	; 0x45e0 <vfprintf+0x494>
    45b6:	b7 01       	movw	r22, r14
    45b8:	80 e2       	ldi	r24, 0x20	; 32
    45ba:	90 e0       	ldi	r25, 0x00	; 0
    45bc:	0e 94 68 27 	call	0x4ed0	; 0x4ed0 <fputc>
    45c0:	5a 94       	dec	r5
    45c2:	f4 cf       	rjmp	.-24     	; 0x45ac <vfprintf+0x460>
    45c4:	f6 01       	movw	r30, r12
    45c6:	97 fc       	sbrc	r9, 7
    45c8:	85 91       	lpm	r24, Z+
    45ca:	97 fe       	sbrs	r9, 7
    45cc:	81 91       	ld	r24, Z+
    45ce:	6f 01       	movw	r12, r30
    45d0:	b7 01       	movw	r22, r14
    45d2:	90 e0       	ldi	r25, 0x00	; 0
    45d4:	0e 94 68 27 	call	0x4ed0	; 0x4ed0 <fputc>
    45d8:	51 10       	cpse	r5, r1
    45da:	5a 94       	dec	r5
    45dc:	01 50       	subi	r16, 0x01	; 1
    45de:	11 09       	sbc	r17, r1
    45e0:	01 15       	cp	r16, r1
    45e2:	11 05       	cpc	r17, r1
    45e4:	79 f7       	brne	.-34     	; 0x45c4 <vfprintf+0x478>
    45e6:	f7 c0       	rjmp	.+494    	; 0x47d6 <vfprintf+0x68a>
    45e8:	84 36       	cpi	r24, 0x64	; 100
    45ea:	11 f0       	breq	.+4      	; 0x45f0 <vfprintf+0x4a4>
    45ec:	89 36       	cpi	r24, 0x69	; 105
    45ee:	61 f5       	brne	.+88     	; 0x4648 <vfprintf+0x4fc>
    45f0:	56 01       	movw	r10, r12
    45f2:	97 fe       	sbrs	r9, 7
    45f4:	09 c0       	rjmp	.+18     	; 0x4608 <vfprintf+0x4bc>
    45f6:	24 e0       	ldi	r18, 0x04	; 4
    45f8:	a2 0e       	add	r10, r18
    45fa:	b1 1c       	adc	r11, r1
    45fc:	f6 01       	movw	r30, r12
    45fe:	60 81       	ld	r22, Z
    4600:	71 81       	ldd	r23, Z+1	; 0x01
    4602:	82 81       	ldd	r24, Z+2	; 0x02
    4604:	93 81       	ldd	r25, Z+3	; 0x03
    4606:	0a c0       	rjmp	.+20     	; 0x461c <vfprintf+0x4d0>
    4608:	f2 e0       	ldi	r31, 0x02	; 2
    460a:	af 0e       	add	r10, r31
    460c:	b1 1c       	adc	r11, r1
    460e:	f6 01       	movw	r30, r12
    4610:	60 81       	ld	r22, Z
    4612:	71 81       	ldd	r23, Z+1	; 0x01
    4614:	07 2e       	mov	r0, r23
    4616:	00 0c       	add	r0, r0
    4618:	88 0b       	sbc	r24, r24
    461a:	99 0b       	sbc	r25, r25
    461c:	f9 2d       	mov	r31, r9
    461e:	ff 76       	andi	r31, 0x6F	; 111
    4620:	9f 2e       	mov	r9, r31
    4622:	97 ff       	sbrs	r25, 7
    4624:	09 c0       	rjmp	.+18     	; 0x4638 <vfprintf+0x4ec>
    4626:	90 95       	com	r25
    4628:	80 95       	com	r24
    462a:	70 95       	com	r23
    462c:	61 95       	neg	r22
    462e:	7f 4f       	sbci	r23, 0xFF	; 255
    4630:	8f 4f       	sbci	r24, 0xFF	; 255
    4632:	9f 4f       	sbci	r25, 0xFF	; 255
    4634:	f0 68       	ori	r31, 0x80	; 128
    4636:	9f 2e       	mov	r9, r31
    4638:	2a e0       	ldi	r18, 0x0A	; 10
    463a:	30 e0       	ldi	r19, 0x00	; 0
    463c:	a3 01       	movw	r20, r6
    463e:	0e 94 ff 27 	call	0x4ffe	; 0x4ffe <__ultoa_invert>
    4642:	c8 2e       	mov	r12, r24
    4644:	c6 18       	sub	r12, r6
    4646:	3f c0       	rjmp	.+126    	; 0x46c6 <vfprintf+0x57a>
    4648:	09 2d       	mov	r16, r9
    464a:	85 37       	cpi	r24, 0x75	; 117
    464c:	21 f4       	brne	.+8      	; 0x4656 <vfprintf+0x50a>
    464e:	0f 7e       	andi	r16, 0xEF	; 239
    4650:	2a e0       	ldi	r18, 0x0A	; 10
    4652:	30 e0       	ldi	r19, 0x00	; 0
    4654:	1d c0       	rjmp	.+58     	; 0x4690 <vfprintf+0x544>
    4656:	09 7f       	andi	r16, 0xF9	; 249
    4658:	8f 36       	cpi	r24, 0x6F	; 111
    465a:	91 f0       	breq	.+36     	; 0x4680 <vfprintf+0x534>
    465c:	18 f4       	brcc	.+6      	; 0x4664 <vfprintf+0x518>
    465e:	88 35       	cpi	r24, 0x58	; 88
    4660:	59 f0       	breq	.+22     	; 0x4678 <vfprintf+0x52c>
    4662:	c3 c0       	rjmp	.+390    	; 0x47ea <vfprintf+0x69e>
    4664:	80 37       	cpi	r24, 0x70	; 112
    4666:	19 f0       	breq	.+6      	; 0x466e <vfprintf+0x522>
    4668:	88 37       	cpi	r24, 0x78	; 120
    466a:	11 f0       	breq	.+4      	; 0x4670 <vfprintf+0x524>
    466c:	be c0       	rjmp	.+380    	; 0x47ea <vfprintf+0x69e>
    466e:	00 61       	ori	r16, 0x10	; 16
    4670:	04 ff       	sbrs	r16, 4
    4672:	09 c0       	rjmp	.+18     	; 0x4686 <vfprintf+0x53a>
    4674:	04 60       	ori	r16, 0x04	; 4
    4676:	07 c0       	rjmp	.+14     	; 0x4686 <vfprintf+0x53a>
    4678:	94 fe       	sbrs	r9, 4
    467a:	08 c0       	rjmp	.+16     	; 0x468c <vfprintf+0x540>
    467c:	06 60       	ori	r16, 0x06	; 6
    467e:	06 c0       	rjmp	.+12     	; 0x468c <vfprintf+0x540>
    4680:	28 e0       	ldi	r18, 0x08	; 8
    4682:	30 e0       	ldi	r19, 0x00	; 0
    4684:	05 c0       	rjmp	.+10     	; 0x4690 <vfprintf+0x544>
    4686:	20 e1       	ldi	r18, 0x10	; 16
    4688:	30 e0       	ldi	r19, 0x00	; 0
    468a:	02 c0       	rjmp	.+4      	; 0x4690 <vfprintf+0x544>
    468c:	20 e1       	ldi	r18, 0x10	; 16
    468e:	32 e0       	ldi	r19, 0x02	; 2
    4690:	56 01       	movw	r10, r12
    4692:	07 ff       	sbrs	r16, 7
    4694:	09 c0       	rjmp	.+18     	; 0x46a8 <vfprintf+0x55c>
    4696:	84 e0       	ldi	r24, 0x04	; 4
    4698:	a8 0e       	add	r10, r24
    469a:	b1 1c       	adc	r11, r1
    469c:	f6 01       	movw	r30, r12
    469e:	60 81       	ld	r22, Z
    46a0:	71 81       	ldd	r23, Z+1	; 0x01
    46a2:	82 81       	ldd	r24, Z+2	; 0x02
    46a4:	93 81       	ldd	r25, Z+3	; 0x03
    46a6:	08 c0       	rjmp	.+16     	; 0x46b8 <vfprintf+0x56c>
    46a8:	f2 e0       	ldi	r31, 0x02	; 2
    46aa:	af 0e       	add	r10, r31
    46ac:	b1 1c       	adc	r11, r1
    46ae:	f6 01       	movw	r30, r12
    46b0:	60 81       	ld	r22, Z
    46b2:	71 81       	ldd	r23, Z+1	; 0x01
    46b4:	80 e0       	ldi	r24, 0x00	; 0
    46b6:	90 e0       	ldi	r25, 0x00	; 0
    46b8:	a3 01       	movw	r20, r6
    46ba:	0e 94 ff 27 	call	0x4ffe	; 0x4ffe <__ultoa_invert>
    46be:	c8 2e       	mov	r12, r24
    46c0:	c6 18       	sub	r12, r6
    46c2:	0f 77       	andi	r16, 0x7F	; 127
    46c4:	90 2e       	mov	r9, r16
    46c6:	96 fe       	sbrs	r9, 6
    46c8:	0b c0       	rjmp	.+22     	; 0x46e0 <vfprintf+0x594>
    46ca:	09 2d       	mov	r16, r9
    46cc:	0e 7f       	andi	r16, 0xFE	; 254
    46ce:	c1 16       	cp	r12, r17
    46d0:	50 f4       	brcc	.+20     	; 0x46e6 <vfprintf+0x59a>
    46d2:	94 fe       	sbrs	r9, 4
    46d4:	0a c0       	rjmp	.+20     	; 0x46ea <vfprintf+0x59e>
    46d6:	92 fc       	sbrc	r9, 2
    46d8:	08 c0       	rjmp	.+16     	; 0x46ea <vfprintf+0x59e>
    46da:	09 2d       	mov	r16, r9
    46dc:	0e 7e       	andi	r16, 0xEE	; 238
    46de:	05 c0       	rjmp	.+10     	; 0x46ea <vfprintf+0x59e>
    46e0:	dc 2c       	mov	r13, r12
    46e2:	09 2d       	mov	r16, r9
    46e4:	03 c0       	rjmp	.+6      	; 0x46ec <vfprintf+0x5a0>
    46e6:	dc 2c       	mov	r13, r12
    46e8:	01 c0       	rjmp	.+2      	; 0x46ec <vfprintf+0x5a0>
    46ea:	d1 2e       	mov	r13, r17
    46ec:	04 ff       	sbrs	r16, 4
    46ee:	0d c0       	rjmp	.+26     	; 0x470a <vfprintf+0x5be>
    46f0:	fe 01       	movw	r30, r28
    46f2:	ec 0d       	add	r30, r12
    46f4:	f1 1d       	adc	r31, r1
    46f6:	80 81       	ld	r24, Z
    46f8:	80 33       	cpi	r24, 0x30	; 48
    46fa:	11 f4       	brne	.+4      	; 0x4700 <vfprintf+0x5b4>
    46fc:	09 7e       	andi	r16, 0xE9	; 233
    46fe:	09 c0       	rjmp	.+18     	; 0x4712 <vfprintf+0x5c6>
    4700:	02 ff       	sbrs	r16, 2
    4702:	06 c0       	rjmp	.+12     	; 0x4710 <vfprintf+0x5c4>
    4704:	d3 94       	inc	r13
    4706:	d3 94       	inc	r13
    4708:	04 c0       	rjmp	.+8      	; 0x4712 <vfprintf+0x5c6>
    470a:	80 2f       	mov	r24, r16
    470c:	86 78       	andi	r24, 0x86	; 134
    470e:	09 f0       	breq	.+2      	; 0x4712 <vfprintf+0x5c6>
    4710:	d3 94       	inc	r13
    4712:	03 fd       	sbrc	r16, 3
    4714:	11 c0       	rjmp	.+34     	; 0x4738 <vfprintf+0x5ec>
    4716:	00 ff       	sbrs	r16, 0
    4718:	06 c0       	rjmp	.+12     	; 0x4726 <vfprintf+0x5da>
    471a:	1c 2d       	mov	r17, r12
    471c:	d5 14       	cp	r13, r5
    471e:	80 f4       	brcc	.+32     	; 0x4740 <vfprintf+0x5f4>
    4720:	15 0d       	add	r17, r5
    4722:	1d 19       	sub	r17, r13
    4724:	0d c0       	rjmp	.+26     	; 0x4740 <vfprintf+0x5f4>
    4726:	d5 14       	cp	r13, r5
    4728:	58 f4       	brcc	.+22     	; 0x4740 <vfprintf+0x5f4>
    472a:	b7 01       	movw	r22, r14
    472c:	80 e2       	ldi	r24, 0x20	; 32
    472e:	90 e0       	ldi	r25, 0x00	; 0
    4730:	0e 94 68 27 	call	0x4ed0	; 0x4ed0 <fputc>
    4734:	d3 94       	inc	r13
    4736:	f7 cf       	rjmp	.-18     	; 0x4726 <vfprintf+0x5da>
    4738:	d5 14       	cp	r13, r5
    473a:	10 f4       	brcc	.+4      	; 0x4740 <vfprintf+0x5f4>
    473c:	5d 18       	sub	r5, r13
    473e:	01 c0       	rjmp	.+2      	; 0x4742 <vfprintf+0x5f6>
    4740:	51 2c       	mov	r5, r1
    4742:	04 ff       	sbrs	r16, 4
    4744:	10 c0       	rjmp	.+32     	; 0x4766 <vfprintf+0x61a>
    4746:	b7 01       	movw	r22, r14
    4748:	80 e3       	ldi	r24, 0x30	; 48
    474a:	90 e0       	ldi	r25, 0x00	; 0
    474c:	0e 94 68 27 	call	0x4ed0	; 0x4ed0 <fputc>
    4750:	02 ff       	sbrs	r16, 2
    4752:	17 c0       	rjmp	.+46     	; 0x4782 <vfprintf+0x636>
    4754:	01 fd       	sbrc	r16, 1
    4756:	03 c0       	rjmp	.+6      	; 0x475e <vfprintf+0x612>
    4758:	88 e7       	ldi	r24, 0x78	; 120
    475a:	90 e0       	ldi	r25, 0x00	; 0
    475c:	02 c0       	rjmp	.+4      	; 0x4762 <vfprintf+0x616>
    475e:	88 e5       	ldi	r24, 0x58	; 88
    4760:	90 e0       	ldi	r25, 0x00	; 0
    4762:	b7 01       	movw	r22, r14
    4764:	0c c0       	rjmp	.+24     	; 0x477e <vfprintf+0x632>
    4766:	80 2f       	mov	r24, r16
    4768:	86 78       	andi	r24, 0x86	; 134
    476a:	59 f0       	breq	.+22     	; 0x4782 <vfprintf+0x636>
    476c:	01 ff       	sbrs	r16, 1
    476e:	02 c0       	rjmp	.+4      	; 0x4774 <vfprintf+0x628>
    4770:	8b e2       	ldi	r24, 0x2B	; 43
    4772:	01 c0       	rjmp	.+2      	; 0x4776 <vfprintf+0x62a>
    4774:	80 e2       	ldi	r24, 0x20	; 32
    4776:	07 fd       	sbrc	r16, 7
    4778:	8d e2       	ldi	r24, 0x2D	; 45
    477a:	b7 01       	movw	r22, r14
    477c:	90 e0       	ldi	r25, 0x00	; 0
    477e:	0e 94 68 27 	call	0x4ed0	; 0x4ed0 <fputc>
    4782:	c1 16       	cp	r12, r17
    4784:	38 f4       	brcc	.+14     	; 0x4794 <vfprintf+0x648>
    4786:	b7 01       	movw	r22, r14
    4788:	80 e3       	ldi	r24, 0x30	; 48
    478a:	90 e0       	ldi	r25, 0x00	; 0
    478c:	0e 94 68 27 	call	0x4ed0	; 0x4ed0 <fputc>
    4790:	11 50       	subi	r17, 0x01	; 1
    4792:	f7 cf       	rjmp	.-18     	; 0x4782 <vfprintf+0x636>
    4794:	ca 94       	dec	r12
    4796:	f3 01       	movw	r30, r6
    4798:	ec 0d       	add	r30, r12
    479a:	f1 1d       	adc	r31, r1
    479c:	80 81       	ld	r24, Z
    479e:	b7 01       	movw	r22, r14
    47a0:	90 e0       	ldi	r25, 0x00	; 0
    47a2:	0e 94 68 27 	call	0x4ed0	; 0x4ed0 <fputc>
    47a6:	c1 10       	cpse	r12, r1
    47a8:	f5 cf       	rjmp	.-22     	; 0x4794 <vfprintf+0x648>
    47aa:	15 c0       	rjmp	.+42     	; 0x47d6 <vfprintf+0x68a>
    47ac:	f4 e0       	ldi	r31, 0x04	; 4
    47ae:	f5 15       	cp	r31, r5
    47b0:	60 f5       	brcc	.+88     	; 0x480a <vfprintf+0x6be>
    47b2:	84 e0       	ldi	r24, 0x04	; 4
    47b4:	58 1a       	sub	r5, r24
    47b6:	93 fe       	sbrs	r9, 3
    47b8:	1f c0       	rjmp	.+62     	; 0x47f8 <vfprintf+0x6ac>
    47ba:	01 11       	cpse	r16, r1
    47bc:	27 c0       	rjmp	.+78     	; 0x480c <vfprintf+0x6c0>
    47be:	2c 85       	ldd	r18, Y+12	; 0x0c
    47c0:	23 ff       	sbrs	r18, 3
    47c2:	2a c0       	rjmp	.+84     	; 0x4818 <vfprintf+0x6cc>
    47c4:	00 e6       	ldi	r16, 0x60	; 96
    47c6:	11 e0       	ldi	r17, 0x01	; 1
    47c8:	39 2d       	mov	r19, r9
    47ca:	30 71       	andi	r19, 0x10	; 16
    47cc:	93 2e       	mov	r9, r19
    47ce:	f8 01       	movw	r30, r16
    47d0:	84 91       	lpm	r24, Z
    47d2:	81 11       	cpse	r24, r1
    47d4:	24 c0       	rjmp	.+72     	; 0x481e <vfprintf+0x6d2>
    47d6:	55 20       	and	r5, r5
    47d8:	09 f4       	brne	.+2      	; 0x47dc <vfprintf+0x690>
    47da:	e4 cc       	rjmp	.-1592   	; 0x41a4 <vfprintf+0x58>
    47dc:	b7 01       	movw	r22, r14
    47de:	80 e2       	ldi	r24, 0x20	; 32
    47e0:	90 e0       	ldi	r25, 0x00	; 0
    47e2:	0e 94 68 27 	call	0x4ed0	; 0x4ed0 <fputc>
    47e6:	5a 94       	dec	r5
    47e8:	f6 cf       	rjmp	.-20     	; 0x47d6 <vfprintf+0x68a>
    47ea:	f7 01       	movw	r30, r14
    47ec:	86 81       	ldd	r24, Z+6	; 0x06
    47ee:	97 81       	ldd	r25, Z+7	; 0x07
    47f0:	26 c0       	rjmp	.+76     	; 0x483e <vfprintf+0x6f2>
    47f2:	8f ef       	ldi	r24, 0xFF	; 255
    47f4:	9f ef       	ldi	r25, 0xFF	; 255
    47f6:	23 c0       	rjmp	.+70     	; 0x483e <vfprintf+0x6f2>
    47f8:	b7 01       	movw	r22, r14
    47fa:	80 e2       	ldi	r24, 0x20	; 32
    47fc:	90 e0       	ldi	r25, 0x00	; 0
    47fe:	0e 94 68 27 	call	0x4ed0	; 0x4ed0 <fputc>
    4802:	5a 94       	dec	r5
    4804:	51 10       	cpse	r5, r1
    4806:	f8 cf       	rjmp	.-16     	; 0x47f8 <vfprintf+0x6ac>
    4808:	d8 cf       	rjmp	.-80     	; 0x47ba <vfprintf+0x66e>
    480a:	51 2c       	mov	r5, r1
    480c:	b7 01       	movw	r22, r14
    480e:	80 2f       	mov	r24, r16
    4810:	90 e0       	ldi	r25, 0x00	; 0
    4812:	0e 94 68 27 	call	0x4ed0	; 0x4ed0 <fputc>
    4816:	d3 cf       	rjmp	.-90     	; 0x47be <vfprintf+0x672>
    4818:	04 e6       	ldi	r16, 0x64	; 100
    481a:	11 e0       	ldi	r17, 0x01	; 1
    481c:	d5 cf       	rjmp	.-86     	; 0x47c8 <vfprintf+0x67c>
    481e:	91 10       	cpse	r9, r1
    4820:	80 52       	subi	r24, 0x20	; 32
    4822:	b7 01       	movw	r22, r14
    4824:	90 e0       	ldi	r25, 0x00	; 0
    4826:	0e 94 68 27 	call	0x4ed0	; 0x4ed0 <fputc>
    482a:	0f 5f       	subi	r16, 0xFF	; 255
    482c:	1f 4f       	sbci	r17, 0xFF	; 255
    482e:	cf cf       	rjmp	.-98     	; 0x47ce <vfprintf+0x682>
    4830:	23 e0       	ldi	r18, 0x03	; 3
    4832:	25 15       	cp	r18, r5
    4834:	10 f4       	brcc	.+4      	; 0x483a <vfprintf+0x6ee>
    4836:	83 e0       	ldi	r24, 0x03	; 3
    4838:	bd cf       	rjmp	.-134    	; 0x47b4 <vfprintf+0x668>
    483a:	51 2c       	mov	r5, r1
    483c:	c0 cf       	rjmp	.-128    	; 0x47be <vfprintf+0x672>
    483e:	60 96       	adiw	r28, 0x10	; 16
    4840:	e2 e1       	ldi	r30, 0x12	; 18
    4842:	0c 94 b7 25 	jmp	0x4b6e	; 0x4b6e <__epilogue_restores__>

00004846 <__mulsi3>:
    4846:	db 01       	movw	r26, r22
    4848:	8f 93       	push	r24
    484a:	9f 93       	push	r25
    484c:	0e 94 92 24 	call	0x4924	; 0x4924 <__muluhisi3>
    4850:	bf 91       	pop	r27
    4852:	af 91       	pop	r26
    4854:	a2 9f       	mul	r26, r18
    4856:	80 0d       	add	r24, r0
    4858:	91 1d       	adc	r25, r1
    485a:	a3 9f       	mul	r26, r19
    485c:	90 0d       	add	r25, r0
    485e:	b2 9f       	mul	r27, r18
    4860:	90 0d       	add	r25, r0
    4862:	11 24       	eor	r1, r1
    4864:	08 95       	ret

00004866 <__udivmodhi4>:
    4866:	aa 1b       	sub	r26, r26
    4868:	bb 1b       	sub	r27, r27
    486a:	51 e1       	ldi	r21, 0x11	; 17
    486c:	07 c0       	rjmp	.+14     	; 0x487c <__udivmodhi4_ep>

0000486e <__udivmodhi4_loop>:
    486e:	aa 1f       	adc	r26, r26
    4870:	bb 1f       	adc	r27, r27
    4872:	a6 17       	cp	r26, r22
    4874:	b7 07       	cpc	r27, r23
    4876:	10 f0       	brcs	.+4      	; 0x487c <__udivmodhi4_ep>
    4878:	a6 1b       	sub	r26, r22
    487a:	b7 0b       	sbc	r27, r23

0000487c <__udivmodhi4_ep>:
    487c:	88 1f       	adc	r24, r24
    487e:	99 1f       	adc	r25, r25
    4880:	5a 95       	dec	r21
    4882:	a9 f7       	brne	.-22     	; 0x486e <__udivmodhi4_loop>
    4884:	80 95       	com	r24
    4886:	90 95       	com	r25
    4888:	bc 01       	movw	r22, r24
    488a:	cd 01       	movw	r24, r26
    488c:	08 95       	ret

0000488e <__divmodhi4>:
    488e:	97 fb       	bst	r25, 7
    4890:	07 2e       	mov	r0, r23
    4892:	16 f4       	brtc	.+4      	; 0x4898 <__divmodhi4+0xa>
    4894:	00 94       	com	r0
    4896:	07 d0       	rcall	.+14     	; 0x48a6 <__divmodhi4_neg1>
    4898:	77 fd       	sbrc	r23, 7
    489a:	09 d0       	rcall	.+18     	; 0x48ae <__divmodhi4_neg2>
    489c:	0e 94 33 24 	call	0x4866	; 0x4866 <__udivmodhi4>
    48a0:	07 fc       	sbrc	r0, 7
    48a2:	05 d0       	rcall	.+10     	; 0x48ae <__divmodhi4_neg2>
    48a4:	3e f4       	brtc	.+14     	; 0x48b4 <__divmodhi4_exit>

000048a6 <__divmodhi4_neg1>:
    48a6:	90 95       	com	r25
    48a8:	81 95       	neg	r24
    48aa:	9f 4f       	sbci	r25, 0xFF	; 255
    48ac:	08 95       	ret

000048ae <__divmodhi4_neg2>:
    48ae:	70 95       	com	r23
    48b0:	61 95       	neg	r22
    48b2:	7f 4f       	sbci	r23, 0xFF	; 255

000048b4 <__divmodhi4_exit>:
    48b4:	08 95       	ret

000048b6 <__udivmodsi4>:
    48b6:	a1 e2       	ldi	r26, 0x21	; 33
    48b8:	1a 2e       	mov	r1, r26
    48ba:	aa 1b       	sub	r26, r26
    48bc:	bb 1b       	sub	r27, r27
    48be:	fd 01       	movw	r30, r26
    48c0:	0d c0       	rjmp	.+26     	; 0x48dc <__udivmodsi4_ep>

000048c2 <__udivmodsi4_loop>:
    48c2:	aa 1f       	adc	r26, r26
    48c4:	bb 1f       	adc	r27, r27
    48c6:	ee 1f       	adc	r30, r30
    48c8:	ff 1f       	adc	r31, r31
    48ca:	a2 17       	cp	r26, r18
    48cc:	b3 07       	cpc	r27, r19
    48ce:	e4 07       	cpc	r30, r20
    48d0:	f5 07       	cpc	r31, r21
    48d2:	20 f0       	brcs	.+8      	; 0x48dc <__udivmodsi4_ep>
    48d4:	a2 1b       	sub	r26, r18
    48d6:	b3 0b       	sbc	r27, r19
    48d8:	e4 0b       	sbc	r30, r20
    48da:	f5 0b       	sbc	r31, r21

000048dc <__udivmodsi4_ep>:
    48dc:	66 1f       	adc	r22, r22
    48de:	77 1f       	adc	r23, r23
    48e0:	88 1f       	adc	r24, r24
    48e2:	99 1f       	adc	r25, r25
    48e4:	1a 94       	dec	r1
    48e6:	69 f7       	brne	.-38     	; 0x48c2 <__udivmodsi4_loop>
    48e8:	60 95       	com	r22
    48ea:	70 95       	com	r23
    48ec:	80 95       	com	r24
    48ee:	90 95       	com	r25
    48f0:	9b 01       	movw	r18, r22
    48f2:	ac 01       	movw	r20, r24
    48f4:	bd 01       	movw	r22, r26
    48f6:	cf 01       	movw	r24, r30
    48f8:	08 95       	ret

000048fa <__tablejump2__>:
    48fa:	ee 0f       	add	r30, r30
    48fc:	ff 1f       	adc	r31, r31
    48fe:	05 90       	lpm	r0, Z+
    4900:	f4 91       	lpm	r31, Z
    4902:	e0 2d       	mov	r30, r0
    4904:	09 94       	ijmp

00004906 <__umulhisi3>:
    4906:	a2 9f       	mul	r26, r18
    4908:	b0 01       	movw	r22, r0
    490a:	b3 9f       	mul	r27, r19
    490c:	c0 01       	movw	r24, r0
    490e:	a3 9f       	mul	r26, r19
    4910:	70 0d       	add	r23, r0
    4912:	81 1d       	adc	r24, r1
    4914:	11 24       	eor	r1, r1
    4916:	91 1d       	adc	r25, r1
    4918:	b2 9f       	mul	r27, r18
    491a:	70 0d       	add	r23, r0
    491c:	81 1d       	adc	r24, r1
    491e:	11 24       	eor	r1, r1
    4920:	91 1d       	adc	r25, r1
    4922:	08 95       	ret

00004924 <__muluhisi3>:
    4924:	0e 94 83 24 	call	0x4906	; 0x4906 <__umulhisi3>
    4928:	a5 9f       	mul	r26, r21
    492a:	90 0d       	add	r25, r0
    492c:	b4 9f       	mul	r27, r20
    492e:	90 0d       	add	r25, r0
    4930:	a4 9f       	mul	r26, r20
    4932:	80 0d       	add	r24, r0
    4934:	91 1d       	adc	r25, r1
    4936:	11 24       	eor	r1, r1
    4938:	08 95       	ret

0000493a <__mulshisi3>:
    493a:	b7 ff       	sbrs	r27, 7
    493c:	0c 94 92 24 	jmp	0x4924	; 0x4924 <__muluhisi3>

00004940 <__mulohisi3>:
    4940:	0e 94 92 24 	call	0x4924	; 0x4924 <__muluhisi3>
    4944:	82 1b       	sub	r24, r18
    4946:	93 0b       	sbc	r25, r19
    4948:	08 95       	ret

0000494a <__muldi3>:
    494a:	df 93       	push	r29
    494c:	cf 93       	push	r28
    494e:	1f 93       	push	r17
    4950:	0f 93       	push	r16
    4952:	9a 9d       	mul	r25, r10
    4954:	f0 2d       	mov	r31, r0
    4956:	21 9f       	mul	r18, r17
    4958:	f0 0d       	add	r31, r0
    495a:	8b 9d       	mul	r24, r11
    495c:	f0 0d       	add	r31, r0
    495e:	8a 9d       	mul	r24, r10
    4960:	e0 2d       	mov	r30, r0
    4962:	f1 0d       	add	r31, r1
    4964:	03 9f       	mul	r16, r19
    4966:	f0 0d       	add	r31, r0
    4968:	02 9f       	mul	r16, r18
    496a:	e0 0d       	add	r30, r0
    496c:	f1 1d       	adc	r31, r1
    496e:	4e 9d       	mul	r20, r14
    4970:	e0 0d       	add	r30, r0
    4972:	f1 1d       	adc	r31, r1
    4974:	5e 9d       	mul	r21, r14
    4976:	f0 0d       	add	r31, r0
    4978:	4f 9d       	mul	r20, r15
    497a:	f0 0d       	add	r31, r0
    497c:	7f 93       	push	r23
    497e:	6f 93       	push	r22
    4980:	bf 92       	push	r11
    4982:	af 92       	push	r10
    4984:	5f 93       	push	r21
    4986:	4f 93       	push	r20
    4988:	d5 01       	movw	r26, r10
    498a:	0e 94 83 24 	call	0x4906	; 0x4906 <__umulhisi3>
    498e:	8b 01       	movw	r16, r22
    4990:	ac 01       	movw	r20, r24
    4992:	d7 01       	movw	r26, r14
    4994:	0e 94 83 24 	call	0x4906	; 0x4906 <__umulhisi3>
    4998:	eb 01       	movw	r28, r22
    499a:	e8 0f       	add	r30, r24
    499c:	f9 1f       	adc	r31, r25
    499e:	d6 01       	movw	r26, r12
    49a0:	0e 94 f5 24 	call	0x49ea	; 0x49ea <__muldi3_6>
    49a4:	2f 91       	pop	r18
    49a6:	3f 91       	pop	r19
    49a8:	d6 01       	movw	r26, r12
    49aa:	0e 94 83 24 	call	0x4906	; 0x4906 <__umulhisi3>
    49ae:	c6 0f       	add	r28, r22
    49b0:	d7 1f       	adc	r29, r23
    49b2:	e8 1f       	adc	r30, r24
    49b4:	f9 1f       	adc	r31, r25
    49b6:	af 91       	pop	r26
    49b8:	bf 91       	pop	r27
    49ba:	0e 94 f5 24 	call	0x49ea	; 0x49ea <__muldi3_6>
    49be:	2f 91       	pop	r18
    49c0:	3f 91       	pop	r19
    49c2:	0e 94 83 24 	call	0x4906	; 0x4906 <__umulhisi3>
    49c6:	c6 0f       	add	r28, r22
    49c8:	d7 1f       	adc	r29, r23
    49ca:	e8 1f       	adc	r30, r24
    49cc:	f9 1f       	adc	r31, r25
    49ce:	d6 01       	movw	r26, r12
    49d0:	0e 94 83 24 	call	0x4906	; 0x4906 <__umulhisi3>
    49d4:	e6 0f       	add	r30, r22
    49d6:	f7 1f       	adc	r31, r23
    49d8:	98 01       	movw	r18, r16
    49da:	be 01       	movw	r22, r28
    49dc:	cf 01       	movw	r24, r30
    49de:	11 24       	eor	r1, r1
    49e0:	0f 91       	pop	r16
    49e2:	1f 91       	pop	r17
    49e4:	cf 91       	pop	r28
    49e6:	df 91       	pop	r29
    49e8:	08 95       	ret

000049ea <__muldi3_6>:
    49ea:	0e 94 83 24 	call	0x4906	; 0x4906 <__umulhisi3>
    49ee:	46 0f       	add	r20, r22
    49f0:	57 1f       	adc	r21, r23
    49f2:	c8 1f       	adc	r28, r24
    49f4:	d9 1f       	adc	r29, r25
    49f6:	08 f4       	brcc	.+2      	; 0x49fa <__muldi3_6+0x10>
    49f8:	31 96       	adiw	r30, 0x01	; 1
    49fa:	08 95       	ret

000049fc <__moddi3>:
    49fc:	68 94       	set
    49fe:	01 c0       	rjmp	.+2      	; 0x4a02 <__divdi3_moddi3>

00004a00 <__divdi3>:
    4a00:	e8 94       	clt

00004a02 <__divdi3_moddi3>:
    4a02:	f9 2f       	mov	r31, r25
    4a04:	f1 2b       	or	r31, r17
    4a06:	12 f0       	brmi	.+4      	; 0x4a0c <__divdi3_moddi3+0xa>
    4a08:	0c 94 32 25 	jmp	0x4a64	; 0x4a64 <__udivdi3_umoddi3>
    4a0c:	a0 e0       	ldi	r26, 0x00	; 0
    4a0e:	b0 e0       	ldi	r27, 0x00	; 0
    4a10:	ec e0       	ldi	r30, 0x0C	; 12
    4a12:	f5 e2       	ldi	r31, 0x25	; 37
    4a14:	0c 94 a4 25 	jmp	0x4b48	; 0x4b48 <__prologue_saves__+0xc>
    4a18:	09 2e       	mov	r0, r25
    4a1a:	05 94       	asr	r0
    4a1c:	22 f4       	brpl	.+8      	; 0x4a26 <__divdi3_moddi3+0x24>
    4a1e:	0e 94 8e 25 	call	0x4b1c	; 0x4b1c <__negdi2>
    4a22:	11 23       	and	r17, r17
    4a24:	92 f4       	brpl	.+36     	; 0x4a4a <__divdi3_moddi3+0x48>
    4a26:	f0 e8       	ldi	r31, 0x80	; 128
    4a28:	0f 26       	eor	r0, r31
    4a2a:	ff ef       	ldi	r31, 0xFF	; 255
    4a2c:	e0 94       	com	r14
    4a2e:	f0 94       	com	r15
    4a30:	00 95       	com	r16
    4a32:	10 95       	com	r17
    4a34:	b0 94       	com	r11
    4a36:	c0 94       	com	r12
    4a38:	d0 94       	com	r13
    4a3a:	a1 94       	neg	r10
    4a3c:	bf 0a       	sbc	r11, r31
    4a3e:	cf 0a       	sbc	r12, r31
    4a40:	df 0a       	sbc	r13, r31
    4a42:	ef 0a       	sbc	r14, r31
    4a44:	ff 0a       	sbc	r15, r31
    4a46:	0f 0b       	sbc	r16, r31
    4a48:	1f 0b       	sbc	r17, r31
    4a4a:	0e 94 3d 25 	call	0x4a7a	; 0x4a7a <__udivmod64>
    4a4e:	07 fc       	sbrc	r0, 7
    4a50:	0e 94 8e 25 	call	0x4b1c	; 0x4b1c <__negdi2>
    4a54:	cd b7       	in	r28, 0x3d	; 61
    4a56:	de b7       	in	r29, 0x3e	; 62
    4a58:	ec e0       	ldi	r30, 0x0C	; 12
    4a5a:	0c 94 bd 25 	jmp	0x4b7a	; 0x4b7a <__epilogue_restores__+0xc>

00004a5e <__umoddi3>:
    4a5e:	68 94       	set
    4a60:	01 c0       	rjmp	.+2      	; 0x4a64 <__udivdi3_umoddi3>

00004a62 <__udivdi3>:
    4a62:	e8 94       	clt

00004a64 <__udivdi3_umoddi3>:
    4a64:	8f 92       	push	r8
    4a66:	9f 92       	push	r9
    4a68:	cf 93       	push	r28
    4a6a:	df 93       	push	r29
    4a6c:	0e 94 3d 25 	call	0x4a7a	; 0x4a7a <__udivmod64>
    4a70:	df 91       	pop	r29
    4a72:	cf 91       	pop	r28
    4a74:	9f 90       	pop	r9
    4a76:	8f 90       	pop	r8
    4a78:	08 95       	ret

00004a7a <__udivmod64>:
    4a7a:	88 24       	eor	r8, r8
    4a7c:	99 24       	eor	r9, r9
    4a7e:	f4 01       	movw	r30, r8
    4a80:	e4 01       	movw	r28, r8
    4a82:	b0 e4       	ldi	r27, 0x40	; 64
    4a84:	9f 93       	push	r25
    4a86:	aa 27       	eor	r26, r26
    4a88:	9a 15       	cp	r25, r10
    4a8a:	8b 04       	cpc	r8, r11
    4a8c:	9c 04       	cpc	r9, r12
    4a8e:	ed 05       	cpc	r30, r13
    4a90:	fe 05       	cpc	r31, r14
    4a92:	cf 05       	cpc	r28, r15
    4a94:	d0 07       	cpc	r29, r16
    4a96:	a1 07       	cpc	r26, r17
    4a98:	98 f4       	brcc	.+38     	; 0x4ac0 <__udivmod64+0x46>
    4a9a:	ad 2f       	mov	r26, r29
    4a9c:	dc 2f       	mov	r29, r28
    4a9e:	cf 2f       	mov	r28, r31
    4aa0:	fe 2f       	mov	r31, r30
    4aa2:	e9 2d       	mov	r30, r9
    4aa4:	98 2c       	mov	r9, r8
    4aa6:	89 2e       	mov	r8, r25
    4aa8:	98 2f       	mov	r25, r24
    4aaa:	87 2f       	mov	r24, r23
    4aac:	76 2f       	mov	r23, r22
    4aae:	65 2f       	mov	r22, r21
    4ab0:	54 2f       	mov	r21, r20
    4ab2:	43 2f       	mov	r20, r19
    4ab4:	32 2f       	mov	r19, r18
    4ab6:	22 27       	eor	r18, r18
    4ab8:	b8 50       	subi	r27, 0x08	; 8
    4aba:	31 f7       	brne	.-52     	; 0x4a88 <__udivmod64+0xe>
    4abc:	bf 91       	pop	r27
    4abe:	27 c0       	rjmp	.+78     	; 0x4b0e <__udivmod64+0x94>
    4ac0:	1b 2e       	mov	r1, r27
    4ac2:	bf 91       	pop	r27
    4ac4:	bb 27       	eor	r27, r27
    4ac6:	22 0f       	add	r18, r18
    4ac8:	33 1f       	adc	r19, r19
    4aca:	44 1f       	adc	r20, r20
    4acc:	55 1f       	adc	r21, r21
    4ace:	66 1f       	adc	r22, r22
    4ad0:	77 1f       	adc	r23, r23
    4ad2:	88 1f       	adc	r24, r24
    4ad4:	99 1f       	adc	r25, r25
    4ad6:	88 1c       	adc	r8, r8
    4ad8:	99 1c       	adc	r9, r9
    4ada:	ee 1f       	adc	r30, r30
    4adc:	ff 1f       	adc	r31, r31
    4ade:	cc 1f       	adc	r28, r28
    4ae0:	dd 1f       	adc	r29, r29
    4ae2:	aa 1f       	adc	r26, r26
    4ae4:	bb 1f       	adc	r27, r27
    4ae6:	8a 14       	cp	r8, r10
    4ae8:	9b 04       	cpc	r9, r11
    4aea:	ec 05       	cpc	r30, r12
    4aec:	fd 05       	cpc	r31, r13
    4aee:	ce 05       	cpc	r28, r14
    4af0:	df 05       	cpc	r29, r15
    4af2:	a0 07       	cpc	r26, r16
    4af4:	b1 07       	cpc	r27, r17
    4af6:	48 f0       	brcs	.+18     	; 0x4b0a <__udivmod64+0x90>
    4af8:	8a 18       	sub	r8, r10
    4afa:	9b 08       	sbc	r9, r11
    4afc:	ec 09       	sbc	r30, r12
    4afe:	fd 09       	sbc	r31, r13
    4b00:	ce 09       	sbc	r28, r14
    4b02:	df 09       	sbc	r29, r15
    4b04:	a0 0b       	sbc	r26, r16
    4b06:	b1 0b       	sbc	r27, r17
    4b08:	21 60       	ori	r18, 0x01	; 1
    4b0a:	1a 94       	dec	r1
    4b0c:	e1 f6       	brne	.-72     	; 0x4ac6 <__udivmod64+0x4c>
    4b0e:	2e f4       	brtc	.+10     	; 0x4b1a <__udivmod64+0xa0>
    4b10:	94 01       	movw	r18, r8
    4b12:	af 01       	movw	r20, r30
    4b14:	be 01       	movw	r22, r28
    4b16:	cd 01       	movw	r24, r26
    4b18:	00 0c       	add	r0, r0
    4b1a:	08 95       	ret

00004b1c <__negdi2>:
    4b1c:	60 95       	com	r22
    4b1e:	70 95       	com	r23
    4b20:	80 95       	com	r24
    4b22:	90 95       	com	r25
    4b24:	30 95       	com	r19
    4b26:	40 95       	com	r20
    4b28:	50 95       	com	r21
    4b2a:	21 95       	neg	r18
    4b2c:	3f 4f       	sbci	r19, 0xFF	; 255
    4b2e:	4f 4f       	sbci	r20, 0xFF	; 255
    4b30:	5f 4f       	sbci	r21, 0xFF	; 255
    4b32:	6f 4f       	sbci	r22, 0xFF	; 255
    4b34:	7f 4f       	sbci	r23, 0xFF	; 255
    4b36:	8f 4f       	sbci	r24, 0xFF	; 255
    4b38:	9f 4f       	sbci	r25, 0xFF	; 255
    4b3a:	08 95       	ret

00004b3c <__prologue_saves__>:
    4b3c:	2f 92       	push	r2
    4b3e:	3f 92       	push	r3
    4b40:	4f 92       	push	r4
    4b42:	5f 92       	push	r5
    4b44:	6f 92       	push	r6
    4b46:	7f 92       	push	r7
    4b48:	8f 92       	push	r8
    4b4a:	9f 92       	push	r9
    4b4c:	af 92       	push	r10
    4b4e:	bf 92       	push	r11
    4b50:	cf 92       	push	r12
    4b52:	df 92       	push	r13
    4b54:	ef 92       	push	r14
    4b56:	ff 92       	push	r15
    4b58:	0f 93       	push	r16
    4b5a:	1f 93       	push	r17
    4b5c:	cf 93       	push	r28
    4b5e:	df 93       	push	r29
    4b60:	cd b7       	in	r28, 0x3d	; 61
    4b62:	de b7       	in	r29, 0x3e	; 62
    4b64:	ca 1b       	sub	r28, r26
    4b66:	db 0b       	sbc	r29, r27
    4b68:	cd bf       	out	0x3d, r28	; 61
    4b6a:	de bf       	out	0x3e, r29	; 62
    4b6c:	09 94       	ijmp

00004b6e <__epilogue_restores__>:
    4b6e:	2a 88       	ldd	r2, Y+18	; 0x12
    4b70:	39 88       	ldd	r3, Y+17	; 0x11
    4b72:	48 88       	ldd	r4, Y+16	; 0x10
    4b74:	5f 84       	ldd	r5, Y+15	; 0x0f
    4b76:	6e 84       	ldd	r6, Y+14	; 0x0e
    4b78:	7d 84       	ldd	r7, Y+13	; 0x0d
    4b7a:	8c 84       	ldd	r8, Y+12	; 0x0c
    4b7c:	9b 84       	ldd	r9, Y+11	; 0x0b
    4b7e:	aa 84       	ldd	r10, Y+10	; 0x0a
    4b80:	b9 84       	ldd	r11, Y+9	; 0x09
    4b82:	c8 84       	ldd	r12, Y+8	; 0x08
    4b84:	df 80       	ldd	r13, Y+7	; 0x07
    4b86:	ee 80       	ldd	r14, Y+6	; 0x06
    4b88:	fd 80       	ldd	r15, Y+5	; 0x05
    4b8a:	0c 81       	ldd	r16, Y+4	; 0x04
    4b8c:	1b 81       	ldd	r17, Y+3	; 0x03
    4b8e:	aa 81       	ldd	r26, Y+2	; 0x02
    4b90:	b9 81       	ldd	r27, Y+1	; 0x01
    4b92:	ce 0f       	add	r28, r30
    4b94:	d1 1d       	adc	r29, r1
    4b96:	cd bf       	out	0x3d, r28	; 61
    4b98:	de bf       	out	0x3e, r29	; 62
    4b9a:	ed 01       	movw	r28, r26
    4b9c:	08 95       	ret

00004b9e <__ashldi3>:
    4b9e:	0f 93       	push	r16
    4ba0:	08 30       	cpi	r16, 0x08	; 8
    4ba2:	90 f0       	brcs	.+36     	; 0x4bc8 <__ashldi3+0x2a>
    4ba4:	98 2f       	mov	r25, r24
    4ba6:	87 2f       	mov	r24, r23
    4ba8:	76 2f       	mov	r23, r22
    4baa:	65 2f       	mov	r22, r21
    4bac:	54 2f       	mov	r21, r20
    4bae:	43 2f       	mov	r20, r19
    4bb0:	32 2f       	mov	r19, r18
    4bb2:	22 27       	eor	r18, r18
    4bb4:	08 50       	subi	r16, 0x08	; 8
    4bb6:	f4 cf       	rjmp	.-24     	; 0x4ba0 <__ashldi3+0x2>
    4bb8:	22 0f       	add	r18, r18
    4bba:	33 1f       	adc	r19, r19
    4bbc:	44 1f       	adc	r20, r20
    4bbe:	55 1f       	adc	r21, r21
    4bc0:	66 1f       	adc	r22, r22
    4bc2:	77 1f       	adc	r23, r23
    4bc4:	88 1f       	adc	r24, r24
    4bc6:	99 1f       	adc	r25, r25
    4bc8:	0a 95       	dec	r16
    4bca:	b2 f7       	brpl	.-20     	; 0x4bb8 <__ashldi3+0x1a>
    4bcc:	0f 91       	pop	r16
    4bce:	08 95       	ret

00004bd0 <__ashrdi3>:
    4bd0:	97 fb       	bst	r25, 7
    4bd2:	10 f8       	bld	r1, 0

00004bd4 <__lshrdi3>:
    4bd4:	16 94       	lsr	r1
    4bd6:	00 08       	sbc	r0, r0
    4bd8:	0f 93       	push	r16
    4bda:	08 30       	cpi	r16, 0x08	; 8
    4bdc:	98 f0       	brcs	.+38     	; 0x4c04 <__lshrdi3+0x30>
    4bde:	08 50       	subi	r16, 0x08	; 8
    4be0:	23 2f       	mov	r18, r19
    4be2:	34 2f       	mov	r19, r20
    4be4:	45 2f       	mov	r20, r21
    4be6:	56 2f       	mov	r21, r22
    4be8:	67 2f       	mov	r22, r23
    4bea:	78 2f       	mov	r23, r24
    4bec:	89 2f       	mov	r24, r25
    4bee:	90 2d       	mov	r25, r0
    4bf0:	f4 cf       	rjmp	.-24     	; 0x4bda <__lshrdi3+0x6>
    4bf2:	05 94       	asr	r0
    4bf4:	97 95       	ror	r25
    4bf6:	87 95       	ror	r24
    4bf8:	77 95       	ror	r23
    4bfa:	67 95       	ror	r22
    4bfc:	57 95       	ror	r21
    4bfe:	47 95       	ror	r20
    4c00:	37 95       	ror	r19
    4c02:	27 95       	ror	r18
    4c04:	0a 95       	dec	r16
    4c06:	aa f7       	brpl	.-22     	; 0x4bf2 <__lshrdi3+0x1e>
    4c08:	0f 91       	pop	r16
    4c0a:	08 95       	ret

00004c0c <__adddi3>:
    4c0c:	2a 0d       	add	r18, r10
    4c0e:	3b 1d       	adc	r19, r11
    4c10:	4c 1d       	adc	r20, r12
    4c12:	5d 1d       	adc	r21, r13
    4c14:	6e 1d       	adc	r22, r14
    4c16:	7f 1d       	adc	r23, r15
    4c18:	80 1f       	adc	r24, r16
    4c1a:	91 1f       	adc	r25, r17
    4c1c:	08 95       	ret

00004c1e <__subdi3>:
    4c1e:	2a 19       	sub	r18, r10
    4c20:	3b 09       	sbc	r19, r11
    4c22:	4c 09       	sbc	r20, r12
    4c24:	5d 09       	sbc	r21, r13
    4c26:	6e 09       	sbc	r22, r14
    4c28:	7f 09       	sbc	r23, r15
    4c2a:	80 0b       	sbc	r24, r16
    4c2c:	91 0b       	sbc	r25, r17
    4c2e:	08 95       	ret

00004c30 <__cmpdi2_s8>:
    4c30:	00 24       	eor	r0, r0
    4c32:	a7 fd       	sbrc	r26, 7
    4c34:	00 94       	com	r0
    4c36:	2a 17       	cp	r18, r26
    4c38:	30 05       	cpc	r19, r0
    4c3a:	40 05       	cpc	r20, r0
    4c3c:	50 05       	cpc	r21, r0
    4c3e:	60 05       	cpc	r22, r0
    4c40:	70 05       	cpc	r23, r0
    4c42:	80 05       	cpc	r24, r0
    4c44:	90 05       	cpc	r25, r0
    4c46:	08 95       	ret

00004c48 <atof>:
    4c48:	66 27       	eor	r22, r22
    4c4a:	77 27       	eor	r23, r23
    4c4c:	0c 94 0a 2b 	jmp	0x5614	; 0x5614 <strtod>

00004c50 <atoi>:
    4c50:	fc 01       	movw	r30, r24
    4c52:	88 27       	eor	r24, r24
    4c54:	99 27       	eor	r25, r25
    4c56:	e8 94       	clt
    4c58:	21 91       	ld	r18, Z+
    4c5a:	20 32       	cpi	r18, 0x20	; 32
    4c5c:	e9 f3       	breq	.-6      	; 0x4c58 <atoi+0x8>
    4c5e:	29 30       	cpi	r18, 0x09	; 9
    4c60:	10 f0       	brcs	.+4      	; 0x4c66 <atoi+0x16>
    4c62:	2e 30       	cpi	r18, 0x0E	; 14
    4c64:	c8 f3       	brcs	.-14     	; 0x4c58 <atoi+0x8>
    4c66:	2b 32       	cpi	r18, 0x2B	; 43
    4c68:	41 f0       	breq	.+16     	; 0x4c7a <atoi+0x2a>
    4c6a:	2d 32       	cpi	r18, 0x2D	; 45
    4c6c:	39 f4       	brne	.+14     	; 0x4c7c <atoi+0x2c>
    4c6e:	68 94       	set
    4c70:	04 c0       	rjmp	.+8      	; 0x4c7a <atoi+0x2a>
    4c72:	0e 94 60 27 	call	0x4ec0	; 0x4ec0 <__mulhi_const_10>
    4c76:	82 0f       	add	r24, r18
    4c78:	91 1d       	adc	r25, r1
    4c7a:	21 91       	ld	r18, Z+
    4c7c:	20 53       	subi	r18, 0x30	; 48
    4c7e:	2a 30       	cpi	r18, 0x0A	; 10
    4c80:	c0 f3       	brcs	.-16     	; 0x4c72 <atoi+0x22>
    4c82:	1e f4       	brtc	.+6      	; 0x4c8a <atoi+0x3a>
    4c84:	90 95       	com	r25
    4c86:	81 95       	neg	r24
    4c88:	9f 4f       	sbci	r25, 0xFF	; 255
    4c8a:	08 95       	ret

00004c8c <__ftoa_engine>:
    4c8c:	28 30       	cpi	r18, 0x08	; 8
    4c8e:	08 f0       	brcs	.+2      	; 0x4c92 <__ftoa_engine+0x6>
    4c90:	27 e0       	ldi	r18, 0x07	; 7
    4c92:	33 27       	eor	r19, r19
    4c94:	da 01       	movw	r26, r20
    4c96:	99 0f       	add	r25, r25
    4c98:	31 1d       	adc	r19, r1
    4c9a:	87 fd       	sbrc	r24, 7
    4c9c:	91 60       	ori	r25, 0x01	; 1
    4c9e:	00 96       	adiw	r24, 0x00	; 0
    4ca0:	61 05       	cpc	r22, r1
    4ca2:	71 05       	cpc	r23, r1
    4ca4:	39 f4       	brne	.+14     	; 0x4cb4 <__ftoa_engine+0x28>
    4ca6:	32 60       	ori	r19, 0x02	; 2
    4ca8:	2e 5f       	subi	r18, 0xFE	; 254
    4caa:	3d 93       	st	X+, r19
    4cac:	30 e3       	ldi	r19, 0x30	; 48
    4cae:	2a 95       	dec	r18
    4cb0:	e1 f7       	brne	.-8      	; 0x4caa <__ftoa_engine+0x1e>
    4cb2:	08 95       	ret
    4cb4:	9f 3f       	cpi	r25, 0xFF	; 255
    4cb6:	30 f0       	brcs	.+12     	; 0x4cc4 <__ftoa_engine+0x38>
    4cb8:	80 38       	cpi	r24, 0x80	; 128
    4cba:	71 05       	cpc	r23, r1
    4cbc:	61 05       	cpc	r22, r1
    4cbe:	09 f0       	breq	.+2      	; 0x4cc2 <__ftoa_engine+0x36>
    4cc0:	3c 5f       	subi	r19, 0xFC	; 252
    4cc2:	3c 5f       	subi	r19, 0xFC	; 252
    4cc4:	3d 93       	st	X+, r19
    4cc6:	91 30       	cpi	r25, 0x01	; 1
    4cc8:	08 f0       	brcs	.+2      	; 0x4ccc <__ftoa_engine+0x40>
    4cca:	80 68       	ori	r24, 0x80	; 128
    4ccc:	91 1d       	adc	r25, r1
    4cce:	df 93       	push	r29
    4cd0:	cf 93       	push	r28
    4cd2:	1f 93       	push	r17
    4cd4:	0f 93       	push	r16
    4cd6:	ff 92       	push	r15
    4cd8:	ef 92       	push	r14
    4cda:	19 2f       	mov	r17, r25
    4cdc:	98 7f       	andi	r25, 0xF8	; 248
    4cde:	96 95       	lsr	r25
    4ce0:	e9 2f       	mov	r30, r25
    4ce2:	96 95       	lsr	r25
    4ce4:	96 95       	lsr	r25
    4ce6:	e9 0f       	add	r30, r25
    4ce8:	ff 27       	eor	r31, r31
    4cea:	ee 53       	subi	r30, 0x3E	; 62
    4cec:	fe 4f       	sbci	r31, 0xFE	; 254
    4cee:	99 27       	eor	r25, r25
    4cf0:	33 27       	eor	r19, r19
    4cf2:	ee 24       	eor	r14, r14
    4cf4:	ff 24       	eor	r15, r15
    4cf6:	a7 01       	movw	r20, r14
    4cf8:	e7 01       	movw	r28, r14
    4cfa:	05 90       	lpm	r0, Z+
    4cfc:	08 94       	sec
    4cfe:	07 94       	ror	r0
    4d00:	28 f4       	brcc	.+10     	; 0x4d0c <__ftoa_engine+0x80>
    4d02:	36 0f       	add	r19, r22
    4d04:	e7 1e       	adc	r14, r23
    4d06:	f8 1e       	adc	r15, r24
    4d08:	49 1f       	adc	r20, r25
    4d0a:	51 1d       	adc	r21, r1
    4d0c:	66 0f       	add	r22, r22
    4d0e:	77 1f       	adc	r23, r23
    4d10:	88 1f       	adc	r24, r24
    4d12:	99 1f       	adc	r25, r25
    4d14:	06 94       	lsr	r0
    4d16:	a1 f7       	brne	.-24     	; 0x4d00 <__ftoa_engine+0x74>
    4d18:	05 90       	lpm	r0, Z+
    4d1a:	07 94       	ror	r0
    4d1c:	28 f4       	brcc	.+10     	; 0x4d28 <__ftoa_engine+0x9c>
    4d1e:	e7 0e       	add	r14, r23
    4d20:	f8 1e       	adc	r15, r24
    4d22:	49 1f       	adc	r20, r25
    4d24:	56 1f       	adc	r21, r22
    4d26:	c1 1d       	adc	r28, r1
    4d28:	77 0f       	add	r23, r23
    4d2a:	88 1f       	adc	r24, r24
    4d2c:	99 1f       	adc	r25, r25
    4d2e:	66 1f       	adc	r22, r22
    4d30:	06 94       	lsr	r0
    4d32:	a1 f7       	brne	.-24     	; 0x4d1c <__ftoa_engine+0x90>
    4d34:	05 90       	lpm	r0, Z+
    4d36:	07 94       	ror	r0
    4d38:	28 f4       	brcc	.+10     	; 0x4d44 <__ftoa_engine+0xb8>
    4d3a:	f8 0e       	add	r15, r24
    4d3c:	49 1f       	adc	r20, r25
    4d3e:	56 1f       	adc	r21, r22
    4d40:	c7 1f       	adc	r28, r23
    4d42:	d1 1d       	adc	r29, r1
    4d44:	88 0f       	add	r24, r24
    4d46:	99 1f       	adc	r25, r25
    4d48:	66 1f       	adc	r22, r22
    4d4a:	77 1f       	adc	r23, r23
    4d4c:	06 94       	lsr	r0
    4d4e:	a1 f7       	brne	.-24     	; 0x4d38 <__ftoa_engine+0xac>
    4d50:	05 90       	lpm	r0, Z+
    4d52:	07 94       	ror	r0
    4d54:	20 f4       	brcc	.+8      	; 0x4d5e <__ftoa_engine+0xd2>
    4d56:	49 0f       	add	r20, r25
    4d58:	56 1f       	adc	r21, r22
    4d5a:	c7 1f       	adc	r28, r23
    4d5c:	d8 1f       	adc	r29, r24
    4d5e:	99 0f       	add	r25, r25
    4d60:	66 1f       	adc	r22, r22
    4d62:	77 1f       	adc	r23, r23
    4d64:	88 1f       	adc	r24, r24
    4d66:	06 94       	lsr	r0
    4d68:	a9 f7       	brne	.-22     	; 0x4d54 <__ftoa_engine+0xc8>
    4d6a:	84 91       	lpm	r24, Z
    4d6c:	10 95       	com	r17
    4d6e:	17 70       	andi	r17, 0x07	; 7
    4d70:	41 f0       	breq	.+16     	; 0x4d82 <__ftoa_engine+0xf6>
    4d72:	d6 95       	lsr	r29
    4d74:	c7 95       	ror	r28
    4d76:	57 95       	ror	r21
    4d78:	47 95       	ror	r20
    4d7a:	f7 94       	ror	r15
    4d7c:	e7 94       	ror	r14
    4d7e:	1a 95       	dec	r17
    4d80:	c1 f7       	brne	.-16     	; 0x4d72 <__ftoa_engine+0xe6>
    4d82:	e8 e6       	ldi	r30, 0x68	; 104
    4d84:	f1 e0       	ldi	r31, 0x01	; 1
    4d86:	68 94       	set
    4d88:	15 90       	lpm	r1, Z+
    4d8a:	15 91       	lpm	r17, Z+
    4d8c:	35 91       	lpm	r19, Z+
    4d8e:	65 91       	lpm	r22, Z+
    4d90:	95 91       	lpm	r25, Z+
    4d92:	05 90       	lpm	r0, Z+
    4d94:	7f e2       	ldi	r23, 0x2F	; 47
    4d96:	73 95       	inc	r23
    4d98:	e1 18       	sub	r14, r1
    4d9a:	f1 0a       	sbc	r15, r17
    4d9c:	43 0b       	sbc	r20, r19
    4d9e:	56 0b       	sbc	r21, r22
    4da0:	c9 0b       	sbc	r28, r25
    4da2:	d0 09       	sbc	r29, r0
    4da4:	c0 f7       	brcc	.-16     	; 0x4d96 <__ftoa_engine+0x10a>
    4da6:	e1 0c       	add	r14, r1
    4da8:	f1 1e       	adc	r15, r17
    4daa:	43 1f       	adc	r20, r19
    4dac:	56 1f       	adc	r21, r22
    4dae:	c9 1f       	adc	r28, r25
    4db0:	d0 1d       	adc	r29, r0
    4db2:	7e f4       	brtc	.+30     	; 0x4dd2 <__ftoa_engine+0x146>
    4db4:	70 33       	cpi	r23, 0x30	; 48
    4db6:	11 f4       	brne	.+4      	; 0x4dbc <__ftoa_engine+0x130>
    4db8:	8a 95       	dec	r24
    4dba:	e6 cf       	rjmp	.-52     	; 0x4d88 <__ftoa_engine+0xfc>
    4dbc:	e8 94       	clt
    4dbe:	01 50       	subi	r16, 0x01	; 1
    4dc0:	30 f0       	brcs	.+12     	; 0x4dce <__ftoa_engine+0x142>
    4dc2:	08 0f       	add	r16, r24
    4dc4:	0a f4       	brpl	.+2      	; 0x4dc8 <__ftoa_engine+0x13c>
    4dc6:	00 27       	eor	r16, r16
    4dc8:	02 17       	cp	r16, r18
    4dca:	08 f4       	brcc	.+2      	; 0x4dce <__ftoa_engine+0x142>
    4dcc:	20 2f       	mov	r18, r16
    4dce:	23 95       	inc	r18
    4dd0:	02 2f       	mov	r16, r18
    4dd2:	7a 33       	cpi	r23, 0x3A	; 58
    4dd4:	28 f0       	brcs	.+10     	; 0x4de0 <__ftoa_engine+0x154>
    4dd6:	79 e3       	ldi	r23, 0x39	; 57
    4dd8:	7d 93       	st	X+, r23
    4dda:	2a 95       	dec	r18
    4ddc:	e9 f7       	brne	.-6      	; 0x4dd8 <__ftoa_engine+0x14c>
    4dde:	10 c0       	rjmp	.+32     	; 0x4e00 <__ftoa_engine+0x174>
    4de0:	7d 93       	st	X+, r23
    4de2:	2a 95       	dec	r18
    4de4:	89 f6       	brne	.-94     	; 0x4d88 <__ftoa_engine+0xfc>
    4de6:	06 94       	lsr	r0
    4de8:	97 95       	ror	r25
    4dea:	67 95       	ror	r22
    4dec:	37 95       	ror	r19
    4dee:	17 95       	ror	r17
    4df0:	17 94       	ror	r1
    4df2:	e1 18       	sub	r14, r1
    4df4:	f1 0a       	sbc	r15, r17
    4df6:	43 0b       	sbc	r20, r19
    4df8:	56 0b       	sbc	r21, r22
    4dfa:	c9 0b       	sbc	r28, r25
    4dfc:	d0 09       	sbc	r29, r0
    4dfe:	98 f0       	brcs	.+38     	; 0x4e26 <__ftoa_engine+0x19a>
    4e00:	23 95       	inc	r18
    4e02:	7e 91       	ld	r23, -X
    4e04:	73 95       	inc	r23
    4e06:	7a 33       	cpi	r23, 0x3A	; 58
    4e08:	08 f0       	brcs	.+2      	; 0x4e0c <__ftoa_engine+0x180>
    4e0a:	70 e3       	ldi	r23, 0x30	; 48
    4e0c:	7c 93       	st	X, r23
    4e0e:	20 13       	cpse	r18, r16
    4e10:	b8 f7       	brcc	.-18     	; 0x4e00 <__ftoa_engine+0x174>
    4e12:	7e 91       	ld	r23, -X
    4e14:	70 61       	ori	r23, 0x10	; 16
    4e16:	7d 93       	st	X+, r23
    4e18:	30 f0       	brcs	.+12     	; 0x4e26 <__ftoa_engine+0x19a>
    4e1a:	83 95       	inc	r24
    4e1c:	71 e3       	ldi	r23, 0x31	; 49
    4e1e:	7d 93       	st	X+, r23
    4e20:	70 e3       	ldi	r23, 0x30	; 48
    4e22:	2a 95       	dec	r18
    4e24:	e1 f7       	brne	.-8      	; 0x4e1e <__ftoa_engine+0x192>
    4e26:	11 24       	eor	r1, r1
    4e28:	ef 90       	pop	r14
    4e2a:	ff 90       	pop	r15
    4e2c:	0f 91       	pop	r16
    4e2e:	1f 91       	pop	r17
    4e30:	cf 91       	pop	r28
    4e32:	df 91       	pop	r29
    4e34:	99 27       	eor	r25, r25
    4e36:	87 fd       	sbrc	r24, 7
    4e38:	90 95       	com	r25
    4e3a:	08 95       	ret

00004e3c <strnlen_P>:
    4e3c:	fc 01       	movw	r30, r24
    4e3e:	05 90       	lpm	r0, Z+
    4e40:	61 50       	subi	r22, 0x01	; 1
    4e42:	70 40       	sbci	r23, 0x00	; 0
    4e44:	01 10       	cpse	r0, r1
    4e46:	d8 f7       	brcc	.-10     	; 0x4e3e <strnlen_P+0x2>
    4e48:	80 95       	com	r24
    4e4a:	90 95       	com	r25
    4e4c:	8e 0f       	add	r24, r30
    4e4e:	9f 1f       	adc	r25, r31
    4e50:	08 95       	ret

00004e52 <strtok>:
    4e52:	42 e5       	ldi	r20, 0x52	; 82
    4e54:	58 e6       	ldi	r21, 0x68	; 104
    4e56:	0e 94 39 27 	call	0x4e72	; 0x4e72 <strtok_r>
    4e5a:	08 95       	ret

00004e5c <strnlen>:
    4e5c:	fc 01       	movw	r30, r24
    4e5e:	61 50       	subi	r22, 0x01	; 1
    4e60:	70 40       	sbci	r23, 0x00	; 0
    4e62:	01 90       	ld	r0, Z+
    4e64:	01 10       	cpse	r0, r1
    4e66:	d8 f7       	brcc	.-10     	; 0x4e5e <strnlen+0x2>
    4e68:	80 95       	com	r24
    4e6a:	90 95       	com	r25
    4e6c:	8e 0f       	add	r24, r30
    4e6e:	9f 1f       	adc	r25, r31
    4e70:	08 95       	ret

00004e72 <strtok_r>:
    4e72:	fa 01       	movw	r30, r20
    4e74:	a1 91       	ld	r26, Z+
    4e76:	b0 81       	ld	r27, Z
    4e78:	00 97       	sbiw	r24, 0x00	; 0
    4e7a:	19 f4       	brne	.+6      	; 0x4e82 <strtok_r+0x10>
    4e7c:	10 97       	sbiw	r26, 0x00	; 0
    4e7e:	e1 f0       	breq	.+56     	; 0x4eb8 <strtok_r+0x46>
    4e80:	cd 01       	movw	r24, r26
    4e82:	dc 01       	movw	r26, r24
    4e84:	cd 01       	movw	r24, r26
    4e86:	0d 90       	ld	r0, X+
    4e88:	00 20       	and	r0, r0
    4e8a:	11 f4       	brne	.+4      	; 0x4e90 <strtok_r+0x1e>
    4e8c:	c0 01       	movw	r24, r0
    4e8e:	13 c0       	rjmp	.+38     	; 0x4eb6 <strtok_r+0x44>
    4e90:	fb 01       	movw	r30, r22
    4e92:	21 91       	ld	r18, Z+
    4e94:	22 23       	and	r18, r18
    4e96:	19 f0       	breq	.+6      	; 0x4e9e <strtok_r+0x2c>
    4e98:	20 15       	cp	r18, r0
    4e9a:	d9 f7       	brne	.-10     	; 0x4e92 <strtok_r+0x20>
    4e9c:	f3 cf       	rjmp	.-26     	; 0x4e84 <strtok_r+0x12>
    4e9e:	fb 01       	movw	r30, r22
    4ea0:	21 91       	ld	r18, Z+
    4ea2:	20 15       	cp	r18, r0
    4ea4:	19 f4       	brne	.+6      	; 0x4eac <strtok_r+0x3a>
    4ea6:	1e 92       	st	-X, r1
    4ea8:	11 96       	adiw	r26, 0x01	; 1
    4eaa:	06 c0       	rjmp	.+12     	; 0x4eb8 <strtok_r+0x46>
    4eac:	22 23       	and	r18, r18
    4eae:	c1 f7       	brne	.-16     	; 0x4ea0 <strtok_r+0x2e>
    4eb0:	0d 90       	ld	r0, X+
    4eb2:	00 20       	and	r0, r0
    4eb4:	a1 f7       	brne	.-24     	; 0x4e9e <strtok_r+0x2c>
    4eb6:	d0 01       	movw	r26, r0
    4eb8:	fa 01       	movw	r30, r20
    4eba:	a1 93       	st	Z+, r26
    4ebc:	b0 83       	st	Z, r27
    4ebe:	08 95       	ret

00004ec0 <__mulhi_const_10>:
    4ec0:	7a e0       	ldi	r23, 0x0A	; 10
    4ec2:	97 9f       	mul	r25, r23
    4ec4:	90 2d       	mov	r25, r0
    4ec6:	87 9f       	mul	r24, r23
    4ec8:	80 2d       	mov	r24, r0
    4eca:	91 0d       	add	r25, r1
    4ecc:	11 24       	eor	r1, r1
    4ece:	08 95       	ret

00004ed0 <fputc>:
    4ed0:	0f 93       	push	r16
    4ed2:	1f 93       	push	r17
    4ed4:	cf 93       	push	r28
    4ed6:	df 93       	push	r29
    4ed8:	fb 01       	movw	r30, r22
    4eda:	23 81       	ldd	r18, Z+3	; 0x03
    4edc:	21 fd       	sbrc	r18, 1
    4ede:	03 c0       	rjmp	.+6      	; 0x4ee6 <fputc+0x16>
    4ee0:	8f ef       	ldi	r24, 0xFF	; 255
    4ee2:	9f ef       	ldi	r25, 0xFF	; 255
    4ee4:	2c c0       	rjmp	.+88     	; 0x4f3e <fputc+0x6e>
    4ee6:	22 ff       	sbrs	r18, 2
    4ee8:	16 c0       	rjmp	.+44     	; 0x4f16 <fputc+0x46>
    4eea:	46 81       	ldd	r20, Z+6	; 0x06
    4eec:	57 81       	ldd	r21, Z+7	; 0x07
    4eee:	24 81       	ldd	r18, Z+4	; 0x04
    4ef0:	35 81       	ldd	r19, Z+5	; 0x05
    4ef2:	42 17       	cp	r20, r18
    4ef4:	53 07       	cpc	r21, r19
    4ef6:	44 f4       	brge	.+16     	; 0x4f08 <fputc+0x38>
    4ef8:	a0 81       	ld	r26, Z
    4efa:	b1 81       	ldd	r27, Z+1	; 0x01
    4efc:	9d 01       	movw	r18, r26
    4efe:	2f 5f       	subi	r18, 0xFF	; 255
    4f00:	3f 4f       	sbci	r19, 0xFF	; 255
    4f02:	20 83       	st	Z, r18
    4f04:	31 83       	std	Z+1, r19	; 0x01
    4f06:	8c 93       	st	X, r24
    4f08:	26 81       	ldd	r18, Z+6	; 0x06
    4f0a:	37 81       	ldd	r19, Z+7	; 0x07
    4f0c:	2f 5f       	subi	r18, 0xFF	; 255
    4f0e:	3f 4f       	sbci	r19, 0xFF	; 255
    4f10:	26 83       	std	Z+6, r18	; 0x06
    4f12:	37 83       	std	Z+7, r19	; 0x07
    4f14:	14 c0       	rjmp	.+40     	; 0x4f3e <fputc+0x6e>
    4f16:	8b 01       	movw	r16, r22
    4f18:	ec 01       	movw	r28, r24
    4f1a:	fb 01       	movw	r30, r22
    4f1c:	00 84       	ldd	r0, Z+8	; 0x08
    4f1e:	f1 85       	ldd	r31, Z+9	; 0x09
    4f20:	e0 2d       	mov	r30, r0
    4f22:	09 95       	icall
    4f24:	89 2b       	or	r24, r25
    4f26:	e1 f6       	brne	.-72     	; 0x4ee0 <fputc+0x10>
    4f28:	d8 01       	movw	r26, r16
    4f2a:	16 96       	adiw	r26, 0x06	; 6
    4f2c:	8d 91       	ld	r24, X+
    4f2e:	9c 91       	ld	r25, X
    4f30:	17 97       	sbiw	r26, 0x07	; 7
    4f32:	01 96       	adiw	r24, 0x01	; 1
    4f34:	16 96       	adiw	r26, 0x06	; 6
    4f36:	8d 93       	st	X+, r24
    4f38:	9c 93       	st	X, r25
    4f3a:	17 97       	sbiw	r26, 0x07	; 7
    4f3c:	ce 01       	movw	r24, r28
    4f3e:	df 91       	pop	r29
    4f40:	cf 91       	pop	r28
    4f42:	1f 91       	pop	r17
    4f44:	0f 91       	pop	r16
    4f46:	08 95       	ret

00004f48 <printf>:
    4f48:	a0 e0       	ldi	r26, 0x00	; 0
    4f4a:	b0 e0       	ldi	r27, 0x00	; 0
    4f4c:	ea ea       	ldi	r30, 0xAA	; 170
    4f4e:	f7 e2       	ldi	r31, 0x27	; 39
    4f50:	0c 94 ae 25 	jmp	0x4b5c	; 0x4b5c <__prologue_saves__+0x20>
    4f54:	ae 01       	movw	r20, r28
    4f56:	4b 5f       	subi	r20, 0xFB	; 251
    4f58:	5f 4f       	sbci	r21, 0xFF	; 255
    4f5a:	fa 01       	movw	r30, r20
    4f5c:	61 91       	ld	r22, Z+
    4f5e:	71 91       	ld	r23, Z+
    4f60:	af 01       	movw	r20, r30
    4f62:	80 91 be 68 	lds	r24, 0x68BE	; 0x8068be <__iob+0x2>
    4f66:	90 91 bf 68 	lds	r25, 0x68BF	; 0x8068bf <__iob+0x3>
    4f6a:	0e 94 a6 20 	call	0x414c	; 0x414c <vfprintf>
    4f6e:	e2 e0       	ldi	r30, 0x02	; 2
    4f70:	0c 94 c7 25 	jmp	0x4b8e	; 0x4b8e <__epilogue_restores__+0x20>

00004f74 <sscanf>:
    4f74:	ae e0       	ldi	r26, 0x0E	; 14
    4f76:	b0 e0       	ldi	r27, 0x00	; 0
    4f78:	e0 ec       	ldi	r30, 0xC0	; 192
    4f7a:	f7 e2       	ldi	r31, 0x27	; 39
    4f7c:	0c 94 ae 25 	jmp	0x4b5c	; 0x4b5c <__prologue_saves__+0x20>
    4f80:	85 e0       	ldi	r24, 0x05	; 5
    4f82:	8c 83       	std	Y+4, r24	; 0x04
    4f84:	8b 89       	ldd	r24, Y+19	; 0x13
    4f86:	9c 89       	ldd	r25, Y+20	; 0x14
    4f88:	89 83       	std	Y+1, r24	; 0x01
    4f8a:	9a 83       	std	Y+2, r25	; 0x02
    4f8c:	ae 01       	movw	r20, r28
    4f8e:	49 5e       	subi	r20, 0xE9	; 233
    4f90:	5f 4f       	sbci	r21, 0xFF	; 255
    4f92:	6d 89       	ldd	r22, Y+21	; 0x15
    4f94:	7e 89       	ldd	r23, Y+22	; 0x16
    4f96:	ce 01       	movw	r24, r28
    4f98:	01 96       	adiw	r24, 0x01	; 1
    4f9a:	0e 94 f9 29 	call	0x53f2	; 0x53f2 <vfscanf>
    4f9e:	2e 96       	adiw	r28, 0x0e	; 14
    4fa0:	e2 e0       	ldi	r30, 0x02	; 2
    4fa2:	0c 94 c7 25 	jmp	0x4b8e	; 0x4b8e <__epilogue_restores__+0x20>

00004fa6 <vsnprintf>:
    4fa6:	ae e0       	ldi	r26, 0x0E	; 14
    4fa8:	b0 e0       	ldi	r27, 0x00	; 0
    4faa:	e9 ed       	ldi	r30, 0xD9	; 217
    4fac:	f7 e2       	ldi	r31, 0x27	; 39
    4fae:	0c 94 ac 25 	jmp	0x4b58	; 0x4b58 <__prologue_saves__+0x1c>
    4fb2:	8c 01       	movw	r16, r24
    4fb4:	fa 01       	movw	r30, r20
    4fb6:	86 e0       	ldi	r24, 0x06	; 6
    4fb8:	8c 83       	std	Y+4, r24	; 0x04
    4fba:	09 83       	std	Y+1, r16	; 0x01
    4fbc:	1a 83       	std	Y+2, r17	; 0x02
    4fbe:	77 ff       	sbrs	r23, 7
    4fc0:	02 c0       	rjmp	.+4      	; 0x4fc6 <vsnprintf+0x20>
    4fc2:	60 e0       	ldi	r22, 0x00	; 0
    4fc4:	70 e8       	ldi	r23, 0x80	; 128
    4fc6:	cb 01       	movw	r24, r22
    4fc8:	01 97       	sbiw	r24, 0x01	; 1
    4fca:	8d 83       	std	Y+5, r24	; 0x05
    4fcc:	9e 83       	std	Y+6, r25	; 0x06
    4fce:	a9 01       	movw	r20, r18
    4fd0:	bf 01       	movw	r22, r30
    4fd2:	ce 01       	movw	r24, r28
    4fd4:	01 96       	adiw	r24, 0x01	; 1
    4fd6:	0e 94 a6 20 	call	0x414c	; 0x414c <vfprintf>
    4fda:	4d 81       	ldd	r20, Y+5	; 0x05
    4fdc:	5e 81       	ldd	r21, Y+6	; 0x06
    4fde:	57 fd       	sbrc	r21, 7
    4fe0:	0a c0       	rjmp	.+20     	; 0x4ff6 <vsnprintf+0x50>
    4fe2:	2f 81       	ldd	r18, Y+7	; 0x07
    4fe4:	38 85       	ldd	r19, Y+8	; 0x08
    4fe6:	42 17       	cp	r20, r18
    4fe8:	53 07       	cpc	r21, r19
    4fea:	0c f4       	brge	.+2      	; 0x4fee <vsnprintf+0x48>
    4fec:	9a 01       	movw	r18, r20
    4fee:	f8 01       	movw	r30, r16
    4ff0:	e2 0f       	add	r30, r18
    4ff2:	f3 1f       	adc	r31, r19
    4ff4:	10 82       	st	Z, r1
    4ff6:	2e 96       	adiw	r28, 0x0e	; 14
    4ff8:	e4 e0       	ldi	r30, 0x04	; 4
    4ffa:	0c 94 c5 25 	jmp	0x4b8a	; 0x4b8a <__epilogue_restores__+0x1c>

00004ffe <__ultoa_invert>:
    4ffe:	fa 01       	movw	r30, r20
    5000:	aa 27       	eor	r26, r26
    5002:	28 30       	cpi	r18, 0x08	; 8
    5004:	51 f1       	breq	.+84     	; 0x505a <__ultoa_invert+0x5c>
    5006:	20 31       	cpi	r18, 0x10	; 16
    5008:	81 f1       	breq	.+96     	; 0x506a <__ultoa_invert+0x6c>
    500a:	e8 94       	clt
    500c:	6f 93       	push	r22
    500e:	6e 7f       	andi	r22, 0xFE	; 254
    5010:	6e 5f       	subi	r22, 0xFE	; 254
    5012:	7f 4f       	sbci	r23, 0xFF	; 255
    5014:	8f 4f       	sbci	r24, 0xFF	; 255
    5016:	9f 4f       	sbci	r25, 0xFF	; 255
    5018:	af 4f       	sbci	r26, 0xFF	; 255
    501a:	b1 e0       	ldi	r27, 0x01	; 1
    501c:	3e d0       	rcall	.+124    	; 0x509a <__ultoa_invert+0x9c>
    501e:	b4 e0       	ldi	r27, 0x04	; 4
    5020:	3c d0       	rcall	.+120    	; 0x509a <__ultoa_invert+0x9c>
    5022:	67 0f       	add	r22, r23
    5024:	78 1f       	adc	r23, r24
    5026:	89 1f       	adc	r24, r25
    5028:	9a 1f       	adc	r25, r26
    502a:	a1 1d       	adc	r26, r1
    502c:	68 0f       	add	r22, r24
    502e:	79 1f       	adc	r23, r25
    5030:	8a 1f       	adc	r24, r26
    5032:	91 1d       	adc	r25, r1
    5034:	a1 1d       	adc	r26, r1
    5036:	6a 0f       	add	r22, r26
    5038:	71 1d       	adc	r23, r1
    503a:	81 1d       	adc	r24, r1
    503c:	91 1d       	adc	r25, r1
    503e:	a1 1d       	adc	r26, r1
    5040:	20 d0       	rcall	.+64     	; 0x5082 <__ultoa_invert+0x84>
    5042:	09 f4       	brne	.+2      	; 0x5046 <__ultoa_invert+0x48>
    5044:	68 94       	set
    5046:	3f 91       	pop	r19
    5048:	2a e0       	ldi	r18, 0x0A	; 10
    504a:	26 9f       	mul	r18, r22
    504c:	11 24       	eor	r1, r1
    504e:	30 19       	sub	r19, r0
    5050:	30 5d       	subi	r19, 0xD0	; 208
    5052:	31 93       	st	Z+, r19
    5054:	de f6       	brtc	.-74     	; 0x500c <__ultoa_invert+0xe>
    5056:	cf 01       	movw	r24, r30
    5058:	08 95       	ret
    505a:	46 2f       	mov	r20, r22
    505c:	47 70       	andi	r20, 0x07	; 7
    505e:	40 5d       	subi	r20, 0xD0	; 208
    5060:	41 93       	st	Z+, r20
    5062:	b3 e0       	ldi	r27, 0x03	; 3
    5064:	0f d0       	rcall	.+30     	; 0x5084 <__ultoa_invert+0x86>
    5066:	c9 f7       	brne	.-14     	; 0x505a <__ultoa_invert+0x5c>
    5068:	f6 cf       	rjmp	.-20     	; 0x5056 <__ultoa_invert+0x58>
    506a:	46 2f       	mov	r20, r22
    506c:	4f 70       	andi	r20, 0x0F	; 15
    506e:	40 5d       	subi	r20, 0xD0	; 208
    5070:	4a 33       	cpi	r20, 0x3A	; 58
    5072:	18 f0       	brcs	.+6      	; 0x507a <__ultoa_invert+0x7c>
    5074:	49 5d       	subi	r20, 0xD9	; 217
    5076:	31 fd       	sbrc	r19, 1
    5078:	40 52       	subi	r20, 0x20	; 32
    507a:	41 93       	st	Z+, r20
    507c:	02 d0       	rcall	.+4      	; 0x5082 <__ultoa_invert+0x84>
    507e:	a9 f7       	brne	.-22     	; 0x506a <__ultoa_invert+0x6c>
    5080:	ea cf       	rjmp	.-44     	; 0x5056 <__ultoa_invert+0x58>
    5082:	b4 e0       	ldi	r27, 0x04	; 4
    5084:	a6 95       	lsr	r26
    5086:	97 95       	ror	r25
    5088:	87 95       	ror	r24
    508a:	77 95       	ror	r23
    508c:	67 95       	ror	r22
    508e:	ba 95       	dec	r27
    5090:	c9 f7       	brne	.-14     	; 0x5084 <__ultoa_invert+0x86>
    5092:	00 97       	sbiw	r24, 0x00	; 0
    5094:	61 05       	cpc	r22, r1
    5096:	71 05       	cpc	r23, r1
    5098:	08 95       	ret
    509a:	9b 01       	movw	r18, r22
    509c:	ac 01       	movw	r20, r24
    509e:	0a 2e       	mov	r0, r26
    50a0:	06 94       	lsr	r0
    50a2:	57 95       	ror	r21
    50a4:	47 95       	ror	r20
    50a6:	37 95       	ror	r19
    50a8:	27 95       	ror	r18
    50aa:	ba 95       	dec	r27
    50ac:	c9 f7       	brne	.-14     	; 0x50a0 <__ultoa_invert+0xa2>
    50ae:	62 0f       	add	r22, r18
    50b0:	73 1f       	adc	r23, r19
    50b2:	84 1f       	adc	r24, r20
    50b4:	95 1f       	adc	r25, r21
    50b6:	a0 1d       	adc	r26, r0
    50b8:	08 95       	ret

000050ba <putval>:
    50ba:	20 fd       	sbrc	r18, 0
    50bc:	09 c0       	rjmp	.+18     	; 0x50d0 <putval+0x16>
    50be:	fc 01       	movw	r30, r24
    50c0:	23 fd       	sbrc	r18, 3
    50c2:	05 c0       	rjmp	.+10     	; 0x50ce <putval+0x14>
    50c4:	22 ff       	sbrs	r18, 2
    50c6:	02 c0       	rjmp	.+4      	; 0x50cc <putval+0x12>
    50c8:	73 83       	std	Z+3, r23	; 0x03
    50ca:	62 83       	std	Z+2, r22	; 0x02
    50cc:	51 83       	std	Z+1, r21	; 0x01
    50ce:	40 83       	st	Z, r20
    50d0:	08 95       	ret

000050d2 <mulacc>:
    50d2:	44 fd       	sbrc	r20, 4
    50d4:	17 c0       	rjmp	.+46     	; 0x5104 <mulacc+0x32>
    50d6:	46 fd       	sbrc	r20, 6
    50d8:	17 c0       	rjmp	.+46     	; 0x5108 <mulacc+0x36>
    50da:	ab 01       	movw	r20, r22
    50dc:	bc 01       	movw	r22, r24
    50de:	da 01       	movw	r26, r20
    50e0:	fb 01       	movw	r30, r22
    50e2:	aa 0f       	add	r26, r26
    50e4:	bb 1f       	adc	r27, r27
    50e6:	ee 1f       	adc	r30, r30
    50e8:	ff 1f       	adc	r31, r31
    50ea:	10 94       	com	r1
    50ec:	d1 f7       	brne	.-12     	; 0x50e2 <mulacc+0x10>
    50ee:	4a 0f       	add	r20, r26
    50f0:	5b 1f       	adc	r21, r27
    50f2:	6e 1f       	adc	r22, r30
    50f4:	7f 1f       	adc	r23, r31
    50f6:	cb 01       	movw	r24, r22
    50f8:	ba 01       	movw	r22, r20
    50fa:	66 0f       	add	r22, r22
    50fc:	77 1f       	adc	r23, r23
    50fe:	88 1f       	adc	r24, r24
    5100:	99 1f       	adc	r25, r25
    5102:	09 c0       	rjmp	.+18     	; 0x5116 <mulacc+0x44>
    5104:	33 e0       	ldi	r19, 0x03	; 3
    5106:	01 c0       	rjmp	.+2      	; 0x510a <mulacc+0x38>
    5108:	34 e0       	ldi	r19, 0x04	; 4
    510a:	66 0f       	add	r22, r22
    510c:	77 1f       	adc	r23, r23
    510e:	88 1f       	adc	r24, r24
    5110:	99 1f       	adc	r25, r25
    5112:	31 50       	subi	r19, 0x01	; 1
    5114:	d1 f7       	brne	.-12     	; 0x510a <mulacc+0x38>
    5116:	62 0f       	add	r22, r18
    5118:	71 1d       	adc	r23, r1
    511a:	81 1d       	adc	r24, r1
    511c:	91 1d       	adc	r25, r1
    511e:	08 95       	ret

00005120 <skip_spaces>:
    5120:	0f 93       	push	r16
    5122:	1f 93       	push	r17
    5124:	cf 93       	push	r28
    5126:	df 93       	push	r29
    5128:	8c 01       	movw	r16, r24
    512a:	c8 01       	movw	r24, r16
    512c:	0e 94 84 2c 	call	0x5908	; 0x5908 <fgetc>
    5130:	ec 01       	movw	r28, r24
    5132:	97 fd       	sbrc	r25, 7
    5134:	08 c0       	rjmp	.+16     	; 0x5146 <skip_spaces+0x26>
    5136:	0e 94 58 2c 	call	0x58b0	; 0x58b0 <isspace>
    513a:	89 2b       	or	r24, r25
    513c:	b1 f7       	brne	.-20     	; 0x512a <skip_spaces+0xa>
    513e:	b8 01       	movw	r22, r16
    5140:	ce 01       	movw	r24, r28
    5142:	0e 94 c2 2c 	call	0x5984	; 0x5984 <ungetc>
    5146:	ce 01       	movw	r24, r28
    5148:	df 91       	pop	r29
    514a:	cf 91       	pop	r28
    514c:	1f 91       	pop	r17
    514e:	0f 91       	pop	r16
    5150:	08 95       	ret

00005152 <conv_int>:
    5152:	8f 92       	push	r8
    5154:	9f 92       	push	r9
    5156:	af 92       	push	r10
    5158:	bf 92       	push	r11
    515a:	ef 92       	push	r14
    515c:	ff 92       	push	r15
    515e:	0f 93       	push	r16
    5160:	1f 93       	push	r17
    5162:	cf 93       	push	r28
    5164:	df 93       	push	r29
    5166:	8c 01       	movw	r16, r24
    5168:	d6 2f       	mov	r29, r22
    516a:	7a 01       	movw	r14, r20
    516c:	b2 2e       	mov	r11, r18
    516e:	0e 94 84 2c 	call	0x5908	; 0x5908 <fgetc>
    5172:	9c 01       	movw	r18, r24
    5174:	33 27       	eor	r19, r19
    5176:	2b 32       	cpi	r18, 0x2B	; 43
    5178:	31 05       	cpc	r19, r1
    517a:	31 f0       	breq	.+12     	; 0x5188 <conv_int+0x36>
    517c:	2d 32       	cpi	r18, 0x2D	; 45
    517e:	31 05       	cpc	r19, r1
    5180:	61 f4       	brne	.+24     	; 0x519a <conv_int+0x48>
    5182:	8b 2d       	mov	r24, r11
    5184:	80 68       	ori	r24, 0x80	; 128
    5186:	b8 2e       	mov	r11, r24
    5188:	d1 50       	subi	r29, 0x01	; 1
    518a:	11 f4       	brne	.+4      	; 0x5190 <conv_int+0x3e>
    518c:	80 e0       	ldi	r24, 0x00	; 0
    518e:	68 c0       	rjmp	.+208    	; 0x5260 <conv_int+0x10e>
    5190:	c8 01       	movw	r24, r16
    5192:	0e 94 84 2c 	call	0x5908	; 0x5908 <fgetc>
    5196:	97 fd       	sbrc	r25, 7
    5198:	f9 cf       	rjmp	.-14     	; 0x518c <conv_int+0x3a>
    519a:	cb 2d       	mov	r28, r11
    519c:	cd 7f       	andi	r28, 0xFD	; 253
    519e:	2b 2d       	mov	r18, r11
    51a0:	20 73       	andi	r18, 0x30	; 48
    51a2:	09 f5       	brne	.+66     	; 0x51e6 <conv_int+0x94>
    51a4:	80 33       	cpi	r24, 0x30	; 48
    51a6:	f9 f4       	brne	.+62     	; 0x51e6 <conv_int+0x94>
    51a8:	aa 24       	eor	r10, r10
    51aa:	aa 94       	dec	r10
    51ac:	ad 0e       	add	r10, r29
    51ae:	09 f4       	brne	.+2      	; 0x51b2 <conv_int+0x60>
    51b0:	43 c0       	rjmp	.+134    	; 0x5238 <conv_int+0xe6>
    51b2:	c8 01       	movw	r24, r16
    51b4:	0e 94 84 2c 	call	0x5908	; 0x5908 <fgetc>
    51b8:	97 fd       	sbrc	r25, 7
    51ba:	3e c0       	rjmp	.+124    	; 0x5238 <conv_int+0xe6>
    51bc:	9c 01       	movw	r18, r24
    51be:	2f 7d       	andi	r18, 0xDF	; 223
    51c0:	33 27       	eor	r19, r19
    51c2:	28 35       	cpi	r18, 0x58	; 88
    51c4:	31 05       	cpc	r19, r1
    51c6:	49 f4       	brne	.+18     	; 0x51da <conv_int+0x88>
    51c8:	c2 64       	ori	r28, 0x42	; 66
    51ca:	d2 50       	subi	r29, 0x02	; 2
    51cc:	a9 f1       	breq	.+106    	; 0x5238 <conv_int+0xe6>
    51ce:	c8 01       	movw	r24, r16
    51d0:	0e 94 84 2c 	call	0x5908	; 0x5908 <fgetc>
    51d4:	97 ff       	sbrs	r25, 7
    51d6:	07 c0       	rjmp	.+14     	; 0x51e6 <conv_int+0x94>
    51d8:	2f c0       	rjmp	.+94     	; 0x5238 <conv_int+0xe6>
    51da:	b6 fe       	sbrs	r11, 6
    51dc:	02 c0       	rjmp	.+4      	; 0x51e2 <conv_int+0x90>
    51de:	c2 60       	ori	r28, 0x02	; 2
    51e0:	01 c0       	rjmp	.+2      	; 0x51e4 <conv_int+0x92>
    51e2:	c2 61       	ori	r28, 0x12	; 18
    51e4:	da 2d       	mov	r29, r10
    51e6:	81 2c       	mov	r8, r1
    51e8:	91 2c       	mov	r9, r1
    51ea:	54 01       	movw	r10, r8
    51ec:	20 ed       	ldi	r18, 0xD0	; 208
    51ee:	28 0f       	add	r18, r24
    51f0:	28 30       	cpi	r18, 0x08	; 8
    51f2:	80 f0       	brcs	.+32     	; 0x5214 <conv_int+0xc2>
    51f4:	c4 ff       	sbrs	r28, 4
    51f6:	04 c0       	rjmp	.+8      	; 0x5200 <conv_int+0xae>
    51f8:	b8 01       	movw	r22, r16
    51fa:	0e 94 c2 2c 	call	0x5984	; 0x5984 <ungetc>
    51fe:	19 c0       	rjmp	.+50     	; 0x5232 <conv_int+0xe0>
    5200:	2a 30       	cpi	r18, 0x0A	; 10
    5202:	40 f0       	brcs	.+16     	; 0x5214 <conv_int+0xc2>
    5204:	c6 ff       	sbrs	r28, 6
    5206:	f8 cf       	rjmp	.-16     	; 0x51f8 <conv_int+0xa6>
    5208:	2f 7d       	andi	r18, 0xDF	; 223
    520a:	3f ee       	ldi	r19, 0xEF	; 239
    520c:	32 0f       	add	r19, r18
    520e:	36 30       	cpi	r19, 0x06	; 6
    5210:	98 f7       	brcc	.-26     	; 0x51f8 <conv_int+0xa6>
    5212:	27 50       	subi	r18, 0x07	; 7
    5214:	4c 2f       	mov	r20, r28
    5216:	c5 01       	movw	r24, r10
    5218:	b4 01       	movw	r22, r8
    521a:	0e 94 69 28 	call	0x50d2	; 0x50d2 <mulacc>
    521e:	4b 01       	movw	r8, r22
    5220:	5c 01       	movw	r10, r24
    5222:	c2 60       	ori	r28, 0x02	; 2
    5224:	d1 50       	subi	r29, 0x01	; 1
    5226:	59 f0       	breq	.+22     	; 0x523e <conv_int+0xec>
    5228:	c8 01       	movw	r24, r16
    522a:	0e 94 84 2c 	call	0x5908	; 0x5908 <fgetc>
    522e:	97 ff       	sbrs	r25, 7
    5230:	dd cf       	rjmp	.-70     	; 0x51ec <conv_int+0x9a>
    5232:	c1 fd       	sbrc	r28, 1
    5234:	04 c0       	rjmp	.+8      	; 0x523e <conv_int+0xec>
    5236:	aa cf       	rjmp	.-172    	; 0x518c <conv_int+0x3a>
    5238:	81 2c       	mov	r8, r1
    523a:	91 2c       	mov	r9, r1
    523c:	54 01       	movw	r10, r8
    523e:	c7 ff       	sbrs	r28, 7
    5240:	08 c0       	rjmp	.+16     	; 0x5252 <conv_int+0x100>
    5242:	b0 94       	com	r11
    5244:	a0 94       	com	r10
    5246:	90 94       	com	r9
    5248:	80 94       	com	r8
    524a:	81 1c       	adc	r8, r1
    524c:	91 1c       	adc	r9, r1
    524e:	a1 1c       	adc	r10, r1
    5250:	b1 1c       	adc	r11, r1
    5252:	2c 2f       	mov	r18, r28
    5254:	b5 01       	movw	r22, r10
    5256:	a4 01       	movw	r20, r8
    5258:	c7 01       	movw	r24, r14
    525a:	0e 94 5d 28 	call	0x50ba	; 0x50ba <putval>
    525e:	81 e0       	ldi	r24, 0x01	; 1
    5260:	df 91       	pop	r29
    5262:	cf 91       	pop	r28
    5264:	1f 91       	pop	r17
    5266:	0f 91       	pop	r16
    5268:	ff 90       	pop	r15
    526a:	ef 90       	pop	r14
    526c:	bf 90       	pop	r11
    526e:	af 90       	pop	r10
    5270:	9f 90       	pop	r9
    5272:	8f 90       	pop	r8
    5274:	08 95       	ret

00005276 <conv_brk>:
    5276:	a0 e2       	ldi	r26, 0x20	; 32
    5278:	b0 e0       	ldi	r27, 0x00	; 0
    527a:	e1 e4       	ldi	r30, 0x41	; 65
    527c:	f9 e2       	ldi	r31, 0x29	; 41
    527e:	0c 94 a1 25 	jmp	0x4b42	; 0x4b42 <__prologue_saves__+0x6>
    5282:	5c 01       	movw	r10, r24
    5284:	96 2e       	mov	r9, r22
    5286:	7a 01       	movw	r14, r20
    5288:	f9 01       	movw	r30, r18
    528a:	8e 01       	movw	r16, r28
    528c:	0f 5f       	subi	r16, 0xFF	; 255
    528e:	1f 4f       	sbci	r17, 0xFF	; 255
    5290:	68 01       	movw	r12, r16
    5292:	80 e2       	ldi	r24, 0x20	; 32
    5294:	d8 01       	movw	r26, r16
    5296:	1d 92       	st	X+, r1
    5298:	8a 95       	dec	r24
    529a:	e9 f7       	brne	.-6      	; 0x5296 <conv_brk+0x20>
    529c:	d5 01       	movw	r26, r10
    529e:	13 96       	adiw	r26, 0x03	; 3
    52a0:	8c 90       	ld	r8, X
    52a2:	80 e0       	ldi	r24, 0x00	; 0
    52a4:	90 e0       	ldi	r25, 0x00	; 0
    52a6:	61 2c       	mov	r6, r1
    52a8:	71 2c       	mov	r7, r1
    52aa:	30 e0       	ldi	r19, 0x00	; 0
    52ac:	61 e0       	ldi	r22, 0x01	; 1
    52ae:	70 e0       	ldi	r23, 0x00	; 0
    52b0:	83 fc       	sbrc	r8, 3
    52b2:	25 91       	lpm	r18, Z+
    52b4:	83 fe       	sbrs	r8, 3
    52b6:	21 91       	ld	r18, Z+
    52b8:	8f 01       	movw	r16, r30
    52ba:	52 2e       	mov	r5, r18
    52bc:	21 11       	cpse	r18, r1
    52be:	03 c0       	rjmp	.+6      	; 0x52c6 <conv_brk+0x50>
    52c0:	80 e0       	ldi	r24, 0x00	; 0
    52c2:	90 e0       	ldi	r25, 0x00	; 0
    52c4:	92 c0       	rjmp	.+292    	; 0x53ea <conv_brk+0x174>
    52c6:	2e 35       	cpi	r18, 0x5E	; 94
    52c8:	11 f4       	brne	.+4      	; 0x52ce <conv_brk+0x58>
    52ca:	00 97       	sbiw	r24, 0x00	; 0
    52cc:	51 f1       	breq	.+84     	; 0x5322 <conv_brk+0xac>
    52ce:	43 2f       	mov	r20, r19
    52d0:	50 e0       	ldi	r21, 0x00	; 0
    52d2:	48 17       	cp	r20, r24
    52d4:	59 07       	cpc	r21, r25
    52d6:	3c f4       	brge	.+14     	; 0x52e6 <conv_brk+0x70>
    52d8:	2d 35       	cpi	r18, 0x5D	; 93
    52da:	59 f1       	breq	.+86     	; 0x5332 <conv_brk+0xbc>
    52dc:	2d 32       	cpi	r18, 0x2D	; 45
    52de:	19 f4       	brne	.+6      	; 0x52e6 <conv_brk+0x70>
    52e0:	77 20       	and	r7, r7
    52e2:	09 f1       	breq	.+66     	; 0x5326 <conv_brk+0xb0>
    52e4:	03 c0       	rjmp	.+6      	; 0x52ec <conv_brk+0x76>
    52e6:	77 20       	and	r7, r7
    52e8:	09 f4       	brne	.+2      	; 0x52ec <conv_brk+0x76>
    52ea:	6a c0       	rjmp	.+212    	; 0x53c0 <conv_brk+0x14a>
    52ec:	45 2d       	mov	r20, r5
    52ee:	46 95       	lsr	r20
    52f0:	46 95       	lsr	r20
    52f2:	46 95       	lsr	r20
    52f4:	d6 01       	movw	r26, r12
    52f6:	a4 0f       	add	r26, r20
    52f8:	b1 1d       	adc	r27, r1
    52fa:	45 2d       	mov	r20, r5
    52fc:	47 70       	andi	r20, 0x07	; 7
    52fe:	8b 01       	movw	r16, r22
    5300:	02 c0       	rjmp	.+4      	; 0x5306 <conv_brk+0x90>
    5302:	00 0f       	add	r16, r16
    5304:	11 1f       	adc	r17, r17
    5306:	4a 95       	dec	r20
    5308:	e2 f7       	brpl	.-8      	; 0x5302 <conv_brk+0x8c>
    530a:	a8 01       	movw	r20, r16
    530c:	5c 91       	ld	r21, X
    530e:	45 2b       	or	r20, r21
    5310:	4c 93       	st	X, r20
    5312:	65 14       	cp	r6, r5
    5314:	59 f0       	breq	.+22     	; 0x532c <conv_brk+0xb6>
    5316:	56 14       	cp	r5, r6
    5318:	10 f4       	brcc	.+4      	; 0x531e <conv_brk+0xa8>
    531a:	53 94       	inc	r5
    531c:	e7 cf       	rjmp	.-50     	; 0x52ec <conv_brk+0x76>
    531e:	5a 94       	dec	r5
    5320:	e5 cf       	rjmp	.-54     	; 0x52ec <conv_brk+0x76>
    5322:	31 e0       	ldi	r19, 0x01	; 1
    5324:	04 c0       	rjmp	.+8      	; 0x532e <conv_brk+0xb8>
    5326:	77 24       	eor	r7, r7
    5328:	73 94       	inc	r7
    532a:	01 c0       	rjmp	.+2      	; 0x532e <conv_brk+0xb8>
    532c:	71 2c       	mov	r7, r1
    532e:	01 96       	adiw	r24, 0x01	; 1
    5330:	bf cf       	rjmp	.-130    	; 0x52b0 <conv_brk+0x3a>
    5332:	77 20       	and	r7, r7
    5334:	19 f0       	breq	.+6      	; 0x533c <conv_brk+0xc6>
    5336:	8e 81       	ldd	r24, Y+6	; 0x06
    5338:	80 62       	ori	r24, 0x20	; 32
    533a:	8e 83       	std	Y+6, r24	; 0x06
    533c:	31 11       	cpse	r19, r1
    533e:	03 c0       	rjmp	.+6      	; 0x5346 <conv_brk+0xd0>
    5340:	88 24       	eor	r8, r8
    5342:	83 94       	inc	r8
    5344:	17 c0       	rjmp	.+46     	; 0x5374 <conv_brk+0xfe>
    5346:	f6 01       	movw	r30, r12
    5348:	9e 01       	movw	r18, r28
    534a:	2f 5d       	subi	r18, 0xDF	; 223
    534c:	3f 4f       	sbci	r19, 0xFF	; 255
    534e:	80 81       	ld	r24, Z
    5350:	80 95       	com	r24
    5352:	81 93       	st	Z+, r24
    5354:	2e 17       	cp	r18, r30
    5356:	3f 07       	cpc	r19, r31
    5358:	d1 f7       	brne	.-12     	; 0x534e <conv_brk+0xd8>
    535a:	f2 cf       	rjmp	.-28     	; 0x5340 <conv_brk+0xca>
    535c:	e1 14       	cp	r14, r1
    535e:	f1 04       	cpc	r15, r1
    5360:	29 f0       	breq	.+10     	; 0x536c <conv_brk+0xf6>
    5362:	d7 01       	movw	r26, r14
    5364:	8c 93       	st	X, r24
    5366:	f7 01       	movw	r30, r14
    5368:	31 96       	adiw	r30, 0x01	; 1
    536a:	7f 01       	movw	r14, r30
    536c:	9a 94       	dec	r9
    536e:	81 2c       	mov	r8, r1
    5370:	99 20       	and	r9, r9
    5372:	f9 f0       	breq	.+62     	; 0x53b2 <conv_brk+0x13c>
    5374:	c5 01       	movw	r24, r10
    5376:	0e 94 84 2c 	call	0x5908	; 0x5908 <fgetc>
    537a:	97 fd       	sbrc	r25, 7
    537c:	18 c0       	rjmp	.+48     	; 0x53ae <conv_brk+0x138>
    537e:	fc 01       	movw	r30, r24
    5380:	ff 27       	eor	r31, r31
    5382:	23 e0       	ldi	r18, 0x03	; 3
    5384:	f5 95       	asr	r31
    5386:	e7 95       	ror	r30
    5388:	2a 95       	dec	r18
    538a:	e1 f7       	brne	.-8      	; 0x5384 <conv_brk+0x10e>
    538c:	ec 0d       	add	r30, r12
    538e:	fd 1d       	adc	r31, r13
    5390:	20 81       	ld	r18, Z
    5392:	30 e0       	ldi	r19, 0x00	; 0
    5394:	ac 01       	movw	r20, r24
    5396:	47 70       	andi	r20, 0x07	; 7
    5398:	55 27       	eor	r21, r21
    539a:	02 c0       	rjmp	.+4      	; 0x53a0 <conv_brk+0x12a>
    539c:	35 95       	asr	r19
    539e:	27 95       	ror	r18
    53a0:	4a 95       	dec	r20
    53a2:	e2 f7       	brpl	.-8      	; 0x539c <conv_brk+0x126>
    53a4:	20 fd       	sbrc	r18, 0
    53a6:	da cf       	rjmp	.-76     	; 0x535c <conv_brk+0xe6>
    53a8:	b5 01       	movw	r22, r10
    53aa:	0e 94 c2 2c 	call	0x5984	; 0x5984 <ungetc>
    53ae:	81 10       	cpse	r8, r1
    53b0:	87 cf       	rjmp	.-242    	; 0x52c0 <conv_brk+0x4a>
    53b2:	e1 14       	cp	r14, r1
    53b4:	f1 04       	cpc	r15, r1
    53b6:	11 f0       	breq	.+4      	; 0x53bc <conv_brk+0x146>
    53b8:	d7 01       	movw	r26, r14
    53ba:	1c 92       	st	X, r1
    53bc:	c8 01       	movw	r24, r16
    53be:	15 c0       	rjmp	.+42     	; 0x53ea <conv_brk+0x174>
    53c0:	42 2f       	mov	r20, r18
    53c2:	46 95       	lsr	r20
    53c4:	46 95       	lsr	r20
    53c6:	46 95       	lsr	r20
    53c8:	d6 01       	movw	r26, r12
    53ca:	a4 0f       	add	r26, r20
    53cc:	b1 1d       	adc	r27, r1
    53ce:	42 2f       	mov	r20, r18
    53d0:	47 70       	andi	r20, 0x07	; 7
    53d2:	8b 01       	movw	r16, r22
    53d4:	02 c0       	rjmp	.+4      	; 0x53da <conv_brk+0x164>
    53d6:	00 0f       	add	r16, r16
    53d8:	11 1f       	adc	r17, r17
    53da:	4a 95       	dec	r20
    53dc:	e2 f7       	brpl	.-8      	; 0x53d6 <conv_brk+0x160>
    53de:	a8 01       	movw	r20, r16
    53e0:	5c 91       	ld	r21, X
    53e2:	45 2b       	or	r20, r21
    53e4:	4c 93       	st	X, r20
    53e6:	62 2e       	mov	r6, r18
    53e8:	a2 cf       	rjmp	.-188    	; 0x532e <conv_brk+0xb8>
    53ea:	a0 96       	adiw	r28, 0x20	; 32
    53ec:	ef e0       	ldi	r30, 0x0F	; 15
    53ee:	0c 94 ba 25 	jmp	0x4b74	; 0x4b74 <__epilogue_restores__+0x6>

000053f2 <vfscanf>:
    53f2:	a0 e0       	ldi	r26, 0x00	; 0
    53f4:	b0 e0       	ldi	r27, 0x00	; 0
    53f6:	ef ef       	ldi	r30, 0xFF	; 255
    53f8:	f9 e2       	ldi	r31, 0x29	; 41
    53fa:	0c 94 a1 25 	jmp	0x4b42	; 0x4b42 <__prologue_saves__+0x6>
    53fe:	6c 01       	movw	r12, r24
    5400:	eb 01       	movw	r28, r22
    5402:	5a 01       	movw	r10, r20
    5404:	fc 01       	movw	r30, r24
    5406:	16 82       	std	Z+6, r1	; 0x06
    5408:	17 82       	std	Z+7, r1	; 0x07
    540a:	51 2c       	mov	r5, r1
    540c:	f6 01       	movw	r30, r12
    540e:	e3 80       	ldd	r14, Z+3	; 0x03
    5410:	fe 01       	movw	r30, r28
    5412:	e3 fc       	sbrc	r14, 3
    5414:	85 91       	lpm	r24, Z+
    5416:	e3 fe       	sbrs	r14, 3
    5418:	81 91       	ld	r24, Z+
    541a:	18 2f       	mov	r17, r24
    541c:	ef 01       	movw	r28, r30
    541e:	88 23       	and	r24, r24
    5420:	09 f4       	brne	.+2      	; 0x5424 <vfscanf+0x32>
    5422:	ee c0       	rjmp	.+476    	; 0x5600 <vfscanf+0x20e>
    5424:	90 e0       	ldi	r25, 0x00	; 0
    5426:	0e 94 58 2c 	call	0x58b0	; 0x58b0 <isspace>
    542a:	89 2b       	or	r24, r25
    542c:	21 f0       	breq	.+8      	; 0x5436 <vfscanf+0x44>
    542e:	c6 01       	movw	r24, r12
    5430:	0e 94 90 28 	call	0x5120	; 0x5120 <skip_spaces>
    5434:	eb cf       	rjmp	.-42     	; 0x540c <vfscanf+0x1a>
    5436:	15 32       	cpi	r17, 0x25	; 37
    5438:	41 f4       	brne	.+16     	; 0x544a <vfscanf+0x58>
    543a:	fe 01       	movw	r30, r28
    543c:	e3 fc       	sbrc	r14, 3
    543e:	15 91       	lpm	r17, Z+
    5440:	e3 fe       	sbrs	r14, 3
    5442:	11 91       	ld	r17, Z+
    5444:	ef 01       	movw	r28, r30
    5446:	15 32       	cpi	r17, 0x25	; 37
    5448:	81 f4       	brne	.+32     	; 0x546a <vfscanf+0x78>
    544a:	c6 01       	movw	r24, r12
    544c:	0e 94 84 2c 	call	0x5908	; 0x5908 <fgetc>
    5450:	97 fd       	sbrc	r25, 7
    5452:	d4 c0       	rjmp	.+424    	; 0x55fc <vfscanf+0x20a>
    5454:	41 2f       	mov	r20, r17
    5456:	50 e0       	ldi	r21, 0x00	; 0
    5458:	9c 01       	movw	r18, r24
    545a:	33 27       	eor	r19, r19
    545c:	24 17       	cp	r18, r20
    545e:	35 07       	cpc	r19, r21
    5460:	a9 f2       	breq	.-86     	; 0x540c <vfscanf+0x1a>
    5462:	b6 01       	movw	r22, r12
    5464:	0e 94 c2 2c 	call	0x5984	; 0x5984 <ungetc>
    5468:	cb c0       	rjmp	.+406    	; 0x5600 <vfscanf+0x20e>
    546a:	1a 32       	cpi	r17, 0x2A	; 42
    546c:	39 f4       	brne	.+14     	; 0x547c <vfscanf+0x8a>
    546e:	e3 fc       	sbrc	r14, 3
    5470:	15 91       	lpm	r17, Z+
    5472:	e3 fe       	sbrs	r14, 3
    5474:	11 91       	ld	r17, Z+
    5476:	ef 01       	movw	r28, r30
    5478:	01 e0       	ldi	r16, 0x01	; 1
    547a:	01 c0       	rjmp	.+2      	; 0x547e <vfscanf+0x8c>
    547c:	00 e0       	ldi	r16, 0x00	; 0
    547e:	f1 2c       	mov	r15, r1
    5480:	20 ed       	ldi	r18, 0xD0	; 208
    5482:	21 0f       	add	r18, r17
    5484:	2a 30       	cpi	r18, 0x0A	; 10
    5486:	80 f4       	brcc	.+32     	; 0x54a8 <vfscanf+0xb6>
    5488:	02 60       	ori	r16, 0x02	; 2
    548a:	6f 2d       	mov	r22, r15
    548c:	70 e0       	ldi	r23, 0x00	; 0
    548e:	80 e0       	ldi	r24, 0x00	; 0
    5490:	90 e0       	ldi	r25, 0x00	; 0
    5492:	40 e2       	ldi	r20, 0x20	; 32
    5494:	0e 94 69 28 	call	0x50d2	; 0x50d2 <mulacc>
    5498:	f6 2e       	mov	r15, r22
    549a:	fe 01       	movw	r30, r28
    549c:	e3 fc       	sbrc	r14, 3
    549e:	15 91       	lpm	r17, Z+
    54a0:	e3 fe       	sbrs	r14, 3
    54a2:	11 91       	ld	r17, Z+
    54a4:	ef 01       	movw	r28, r30
    54a6:	ec cf       	rjmp	.-40     	; 0x5480 <vfscanf+0x8e>
    54a8:	01 ff       	sbrs	r16, 1
    54aa:	03 c0       	rjmp	.+6      	; 0x54b2 <vfscanf+0xc0>
    54ac:	f1 10       	cpse	r15, r1
    54ae:	03 c0       	rjmp	.+6      	; 0x54b6 <vfscanf+0xc4>
    54b0:	a7 c0       	rjmp	.+334    	; 0x5600 <vfscanf+0x20e>
    54b2:	ff 24       	eor	r15, r15
    54b4:	fa 94       	dec	r15
    54b6:	18 36       	cpi	r17, 0x68	; 104
    54b8:	19 f0       	breq	.+6      	; 0x54c0 <vfscanf+0xce>
    54ba:	1c 36       	cpi	r17, 0x6C	; 108
    54bc:	51 f0       	breq	.+20     	; 0x54d2 <vfscanf+0xe0>
    54be:	10 c0       	rjmp	.+32     	; 0x54e0 <vfscanf+0xee>
    54c0:	fe 01       	movw	r30, r28
    54c2:	e3 fc       	sbrc	r14, 3
    54c4:	15 91       	lpm	r17, Z+
    54c6:	e3 fe       	sbrs	r14, 3
    54c8:	11 91       	ld	r17, Z+
    54ca:	ef 01       	movw	r28, r30
    54cc:	18 36       	cpi	r17, 0x68	; 104
    54ce:	41 f4       	brne	.+16     	; 0x54e0 <vfscanf+0xee>
    54d0:	08 60       	ori	r16, 0x08	; 8
    54d2:	04 60       	ori	r16, 0x04	; 4
    54d4:	fe 01       	movw	r30, r28
    54d6:	e3 fc       	sbrc	r14, 3
    54d8:	15 91       	lpm	r17, Z+
    54da:	e3 fe       	sbrs	r14, 3
    54dc:	11 91       	ld	r17, Z+
    54de:	ef 01       	movw	r28, r30
    54e0:	11 23       	and	r17, r17
    54e2:	09 f4       	brne	.+2      	; 0x54e6 <vfscanf+0xf4>
    54e4:	8d c0       	rjmp	.+282    	; 0x5600 <vfscanf+0x20e>
    54e6:	61 2f       	mov	r22, r17
    54e8:	70 e0       	ldi	r23, 0x00	; 0
    54ea:	82 e6       	ldi	r24, 0x62	; 98
    54ec:	92 e0       	ldi	r25, 0x02	; 2
    54ee:	0e 94 61 2c 	call	0x58c2	; 0x58c2 <strchr_P>
    54f2:	89 2b       	or	r24, r25
    54f4:	09 f4       	brne	.+2      	; 0x54f8 <vfscanf+0x106>
    54f6:	84 c0       	rjmp	.+264    	; 0x5600 <vfscanf+0x20e>
    54f8:	00 fd       	sbrc	r16, 0
    54fa:	07 c0       	rjmp	.+14     	; 0x550a <vfscanf+0x118>
    54fc:	f5 01       	movw	r30, r10
    54fe:	80 80       	ld	r8, Z
    5500:	91 80       	ldd	r9, Z+1	; 0x01
    5502:	c5 01       	movw	r24, r10
    5504:	02 96       	adiw	r24, 0x02	; 2
    5506:	5c 01       	movw	r10, r24
    5508:	02 c0       	rjmp	.+4      	; 0x550e <vfscanf+0x11c>
    550a:	81 2c       	mov	r8, r1
    550c:	91 2c       	mov	r9, r1
    550e:	1e 36       	cpi	r17, 0x6E	; 110
    5510:	51 f4       	brne	.+20     	; 0x5526 <vfscanf+0x134>
    5512:	f6 01       	movw	r30, r12
    5514:	46 81       	ldd	r20, Z+6	; 0x06
    5516:	57 81       	ldd	r21, Z+7	; 0x07
    5518:	60 e0       	ldi	r22, 0x00	; 0
    551a:	70 e0       	ldi	r23, 0x00	; 0
    551c:	20 2f       	mov	r18, r16
    551e:	c4 01       	movw	r24, r8
    5520:	0e 94 5d 28 	call	0x50ba	; 0x50ba <putval>
    5524:	73 cf       	rjmp	.-282    	; 0x540c <vfscanf+0x1a>
    5526:	13 36       	cpi	r17, 0x63	; 99
    5528:	a9 f4       	brne	.+42     	; 0x5554 <vfscanf+0x162>
    552a:	01 fd       	sbrc	r16, 1
    552c:	02 c0       	rjmp	.+4      	; 0x5532 <vfscanf+0x140>
    552e:	ff 24       	eor	r15, r15
    5530:	f3 94       	inc	r15
    5532:	c6 01       	movw	r24, r12
    5534:	0e 94 84 2c 	call	0x5908	; 0x5908 <fgetc>
    5538:	97 fd       	sbrc	r25, 7
    553a:	60 c0       	rjmp	.+192    	; 0x55fc <vfscanf+0x20a>
    553c:	81 14       	cp	r8, r1
    553e:	91 04       	cpc	r9, r1
    5540:	29 f0       	breq	.+10     	; 0x554c <vfscanf+0x15a>
    5542:	f4 01       	movw	r30, r8
    5544:	80 83       	st	Z, r24
    5546:	c4 01       	movw	r24, r8
    5548:	01 96       	adiw	r24, 0x01	; 1
    554a:	4c 01       	movw	r8, r24
    554c:	fa 94       	dec	r15
    554e:	f1 10       	cpse	r15, r1
    5550:	f0 cf       	rjmp	.-32     	; 0x5532 <vfscanf+0x140>
    5552:	50 c0       	rjmp	.+160    	; 0x55f4 <vfscanf+0x202>
    5554:	1b 35       	cpi	r17, 0x5B	; 91
    5556:	59 f4       	brne	.+22     	; 0x556e <vfscanf+0x17c>
    5558:	9e 01       	movw	r18, r28
    555a:	a4 01       	movw	r20, r8
    555c:	6f 2d       	mov	r22, r15
    555e:	c6 01       	movw	r24, r12
    5560:	0e 94 3b 29 	call	0x5276	; 0x5276 <conv_brk>
    5564:	ec 01       	movw	r28, r24
    5566:	89 2b       	or	r24, r25
    5568:	09 f0       	breq	.+2      	; 0x556c <vfscanf+0x17a>
    556a:	44 c0       	rjmp	.+136    	; 0x55f4 <vfscanf+0x202>
    556c:	3e c0       	rjmp	.+124    	; 0x55ea <vfscanf+0x1f8>
    556e:	c6 01       	movw	r24, r12
    5570:	0e 94 90 28 	call	0x5120	; 0x5120 <skip_spaces>
    5574:	97 fd       	sbrc	r25, 7
    5576:	42 c0       	rjmp	.+132    	; 0x55fc <vfscanf+0x20a>
    5578:	1f 36       	cpi	r17, 0x6F	; 111
    557a:	61 f1       	breq	.+88     	; 0x55d4 <vfscanf+0x1e2>
    557c:	28 f4       	brcc	.+10     	; 0x5588 <vfscanf+0x196>
    557e:	14 36       	cpi	r17, 0x64	; 100
    5580:	39 f1       	breq	.+78     	; 0x55d0 <vfscanf+0x1de>
    5582:	19 36       	cpi	r17, 0x69	; 105
    5584:	51 f1       	breq	.+84     	; 0x55da <vfscanf+0x1e8>
    5586:	28 c0       	rjmp	.+80     	; 0x55d8 <vfscanf+0x1e6>
    5588:	13 37       	cpi	r17, 0x73	; 115
    558a:	71 f0       	breq	.+28     	; 0x55a8 <vfscanf+0x1b6>
    558c:	15 37       	cpi	r17, 0x75	; 117
    558e:	01 f1       	breq	.+64     	; 0x55d0 <vfscanf+0x1de>
    5590:	23 c0       	rjmp	.+70     	; 0x55d8 <vfscanf+0x1e6>
    5592:	81 14       	cp	r8, r1
    5594:	91 04       	cpc	r9, r1
    5596:	29 f0       	breq	.+10     	; 0x55a2 <vfscanf+0x1b0>
    5598:	f4 01       	movw	r30, r8
    559a:	60 82       	st	Z, r6
    559c:	c4 01       	movw	r24, r8
    559e:	01 96       	adiw	r24, 0x01	; 1
    55a0:	4c 01       	movw	r8, r24
    55a2:	fa 94       	dec	r15
    55a4:	ff 20       	and	r15, r15
    55a6:	71 f0       	breq	.+28     	; 0x55c4 <vfscanf+0x1d2>
    55a8:	c6 01       	movw	r24, r12
    55aa:	0e 94 84 2c 	call	0x5908	; 0x5908 <fgetc>
    55ae:	3c 01       	movw	r6, r24
    55b0:	97 fd       	sbrc	r25, 7
    55b2:	08 c0       	rjmp	.+16     	; 0x55c4 <vfscanf+0x1d2>
    55b4:	0e 94 58 2c 	call	0x58b0	; 0x58b0 <isspace>
    55b8:	89 2b       	or	r24, r25
    55ba:	59 f3       	breq	.-42     	; 0x5592 <vfscanf+0x1a0>
    55bc:	b6 01       	movw	r22, r12
    55be:	c3 01       	movw	r24, r6
    55c0:	0e 94 c2 2c 	call	0x5984	; 0x5984 <ungetc>
    55c4:	81 14       	cp	r8, r1
    55c6:	91 04       	cpc	r9, r1
    55c8:	a9 f0       	breq	.+42     	; 0x55f4 <vfscanf+0x202>
    55ca:	f4 01       	movw	r30, r8
    55cc:	10 82       	st	Z, r1
    55ce:	12 c0       	rjmp	.+36     	; 0x55f4 <vfscanf+0x202>
    55d0:	00 62       	ori	r16, 0x20	; 32
    55d2:	03 c0       	rjmp	.+6      	; 0x55da <vfscanf+0x1e8>
    55d4:	00 61       	ori	r16, 0x10	; 16
    55d6:	01 c0       	rjmp	.+2      	; 0x55da <vfscanf+0x1e8>
    55d8:	00 64       	ori	r16, 0x40	; 64
    55da:	20 2f       	mov	r18, r16
    55dc:	a4 01       	movw	r20, r8
    55de:	6f 2d       	mov	r22, r15
    55e0:	c6 01       	movw	r24, r12
    55e2:	0e 94 a9 28 	call	0x5152	; 0x5152 <conv_int>
    55e6:	81 11       	cpse	r24, r1
    55e8:	05 c0       	rjmp	.+10     	; 0x55f4 <vfscanf+0x202>
    55ea:	f6 01       	movw	r30, r12
    55ec:	83 81       	ldd	r24, Z+3	; 0x03
    55ee:	80 73       	andi	r24, 0x30	; 48
    55f0:	29 f4       	brne	.+10     	; 0x55fc <vfscanf+0x20a>
    55f2:	06 c0       	rjmp	.+12     	; 0x5600 <vfscanf+0x20e>
    55f4:	00 fd       	sbrc	r16, 0
    55f6:	0a cf       	rjmp	.-492    	; 0x540c <vfscanf+0x1a>
    55f8:	53 94       	inc	r5
    55fa:	08 cf       	rjmp	.-496    	; 0x540c <vfscanf+0x1a>
    55fc:	55 20       	and	r5, r5
    55fe:	19 f0       	breq	.+6      	; 0x5606 <vfscanf+0x214>
    5600:	85 2d       	mov	r24, r5
    5602:	90 e0       	ldi	r25, 0x00	; 0
    5604:	02 c0       	rjmp	.+4      	; 0x560a <vfscanf+0x218>
    5606:	8f ef       	ldi	r24, 0xFF	; 255
    5608:	9f ef       	ldi	r25, 0xFF	; 255
    560a:	cd b7       	in	r28, 0x3d	; 61
    560c:	de b7       	in	r29, 0x3e	; 62
    560e:	ef e0       	ldi	r30, 0x0F	; 15
    5610:	0c 94 ba 25 	jmp	0x4b74	; 0x4b74 <__epilogue_restores__+0x6>

00005614 <strtod>:
    5614:	a0 e0       	ldi	r26, 0x00	; 0
    5616:	b0 e0       	ldi	r27, 0x00	; 0
    5618:	e0 e1       	ldi	r30, 0x10	; 16
    561a:	fb e2       	ldi	r31, 0x2B	; 43
    561c:	0c 94 a4 25 	jmp	0x4b48	; 0x4b48 <__prologue_saves__+0xc>
    5620:	ec 01       	movw	r28, r24
    5622:	6b 01       	movw	r12, r22
    5624:	61 15       	cp	r22, r1
    5626:	71 05       	cpc	r23, r1
    5628:	19 f0       	breq	.+6      	; 0x5630 <strtod+0x1c>
    562a:	fb 01       	movw	r30, r22
    562c:	80 83       	st	Z, r24
    562e:	91 83       	std	Z+1, r25	; 0x01
    5630:	7e 01       	movw	r14, r28
    5632:	ff ef       	ldi	r31, 0xFF	; 255
    5634:	ef 1a       	sub	r14, r31
    5636:	ff 0a       	sbc	r15, r31
    5638:	08 81       	ld	r16, Y
    563a:	80 2f       	mov	r24, r16
    563c:	90 e0       	ldi	r25, 0x00	; 0
    563e:	0e 94 58 2c 	call	0x58b0	; 0x58b0 <isspace>
    5642:	89 2b       	or	r24, r25
    5644:	11 f0       	breq	.+4      	; 0x564a <strtod+0x36>
    5646:	e7 01       	movw	r28, r14
    5648:	f3 cf       	rjmp	.-26     	; 0x5630 <strtod+0x1c>
    564a:	0d 32       	cpi	r16, 0x2D	; 45
    564c:	39 f4       	brne	.+14     	; 0x565c <strtod+0x48>
    564e:	7e 01       	movw	r14, r28
    5650:	82 e0       	ldi	r24, 0x02	; 2
    5652:	e8 0e       	add	r14, r24
    5654:	f1 1c       	adc	r15, r1
    5656:	09 81       	ldd	r16, Y+1	; 0x01
    5658:	11 e0       	ldi	r17, 0x01	; 1
    565a:	08 c0       	rjmp	.+16     	; 0x566c <strtod+0x58>
    565c:	0b 32       	cpi	r16, 0x2B	; 43
    565e:	29 f4       	brne	.+10     	; 0x566a <strtod+0x56>
    5660:	7e 01       	movw	r14, r28
    5662:	92 e0       	ldi	r25, 0x02	; 2
    5664:	e9 0e       	add	r14, r25
    5666:	f1 1c       	adc	r15, r1
    5668:	09 81       	ldd	r16, Y+1	; 0x01
    566a:	10 e0       	ldi	r17, 0x00	; 0
    566c:	e7 01       	movw	r28, r14
    566e:	21 97       	sbiw	r28, 0x01	; 1
    5670:	43 e0       	ldi	r20, 0x03	; 3
    5672:	50 e0       	ldi	r21, 0x00	; 0
    5674:	66 e7       	ldi	r22, 0x76	; 118
    5676:	72 e0       	ldi	r23, 0x02	; 2
    5678:	ce 01       	movw	r24, r28
    567a:	0e 94 6c 2c 	call	0x58d8	; 0x58d8 <strncasecmp_P>
    567e:	89 2b       	or	r24, r25
    5680:	c1 f4       	brne	.+48     	; 0x56b2 <strtod+0x9e>
    5682:	23 96       	adiw	r28, 0x03	; 3
    5684:	45 e0       	ldi	r20, 0x05	; 5
    5686:	50 e0       	ldi	r21, 0x00	; 0
    5688:	61 e7       	ldi	r22, 0x71	; 113
    568a:	72 e0       	ldi	r23, 0x02	; 2
    568c:	ce 01       	movw	r24, r28
    568e:	0e 94 6c 2c 	call	0x58d8	; 0x58d8 <strncasecmp_P>
    5692:	89 2b       	or	r24, r25
    5694:	09 f4       	brne	.+2      	; 0x5698 <strtod+0x84>
    5696:	25 96       	adiw	r28, 0x05	; 5
    5698:	c1 14       	cp	r12, r1
    569a:	d1 04       	cpc	r13, r1
    569c:	19 f0       	breq	.+6      	; 0x56a4 <strtod+0x90>
    569e:	f6 01       	movw	r30, r12
    56a0:	c0 83       	st	Z, r28
    56a2:	d1 83       	std	Z+1, r29	; 0x01
    56a4:	11 11       	cpse	r17, r1
    56a6:	f6 c0       	rjmp	.+492    	; 0x5894 <strtod+0x280>
    56a8:	60 e0       	ldi	r22, 0x00	; 0
    56aa:	70 e0       	ldi	r23, 0x00	; 0
    56ac:	80 e8       	ldi	r24, 0x80	; 128
    56ae:	9f e7       	ldi	r25, 0x7F	; 127
    56b0:	fa c0       	rjmp	.+500    	; 0x58a6 <strtod+0x292>
    56b2:	43 e0       	ldi	r20, 0x03	; 3
    56b4:	50 e0       	ldi	r21, 0x00	; 0
    56b6:	6e e6       	ldi	r22, 0x6E	; 110
    56b8:	72 e0       	ldi	r23, 0x02	; 2
    56ba:	ce 01       	movw	r24, r28
    56bc:	0e 94 6c 2c 	call	0x58d8	; 0x58d8 <strncasecmp_P>
    56c0:	89 2b       	or	r24, r25
    56c2:	59 f4       	brne	.+22     	; 0x56da <strtod+0xc6>
    56c4:	c1 14       	cp	r12, r1
    56c6:	d1 04       	cpc	r13, r1
    56c8:	09 f4       	brne	.+2      	; 0x56cc <strtod+0xb8>
    56ca:	e9 c0       	rjmp	.+466    	; 0x589e <strtod+0x28a>
    56cc:	f2 e0       	ldi	r31, 0x02	; 2
    56ce:	ef 0e       	add	r14, r31
    56d0:	f1 1c       	adc	r15, r1
    56d2:	f6 01       	movw	r30, r12
    56d4:	e0 82       	st	Z, r14
    56d6:	f1 82       	std	Z+1, r15	; 0x01
    56d8:	e2 c0       	rjmp	.+452    	; 0x589e <strtod+0x28a>
    56da:	20 e0       	ldi	r18, 0x00	; 0
    56dc:	30 e0       	ldi	r19, 0x00	; 0
    56de:	a9 01       	movw	r20, r18
    56e0:	c0 e0       	ldi	r28, 0x00	; 0
    56e2:	d0 e0       	ldi	r29, 0x00	; 0
    56e4:	f7 01       	movw	r30, r14
    56e6:	80 ed       	ldi	r24, 0xD0	; 208
    56e8:	a8 2e       	mov	r10, r24
    56ea:	a0 0e       	add	r10, r16
    56ec:	89 e0       	ldi	r24, 0x09	; 9
    56ee:	8a 15       	cp	r24, r10
    56f0:	30 f1       	brcs	.+76     	; 0x573e <strtod+0x12a>
    56f2:	91 2f       	mov	r25, r17
    56f4:	92 60       	ori	r25, 0x02	; 2
    56f6:	b9 2e       	mov	r11, r25
    56f8:	81 2f       	mov	r24, r17
    56fa:	88 70       	andi	r24, 0x08	; 8
    56fc:	12 ff       	sbrs	r17, 2
    56fe:	04 c0       	rjmp	.+8      	; 0x5708 <strtod+0xf4>
    5700:	81 11       	cpse	r24, r1
    5702:	24 c0       	rjmp	.+72     	; 0x574c <strtod+0x138>
    5704:	21 96       	adiw	r28, 0x01	; 1
    5706:	22 c0       	rjmp	.+68     	; 0x574c <strtod+0x138>
    5708:	81 11       	cpse	r24, r1
    570a:	21 97       	sbiw	r28, 0x01	; 1
    570c:	a5 e0       	ldi	r26, 0x05	; 5
    570e:	b0 e0       	ldi	r27, 0x00	; 0
    5710:	0e 94 92 24 	call	0x4924	; 0x4924 <__muluhisi3>
    5714:	dc 01       	movw	r26, r24
    5716:	cb 01       	movw	r24, r22
    5718:	88 0f       	add	r24, r24
    571a:	99 1f       	adc	r25, r25
    571c:	aa 1f       	adc	r26, r26
    571e:	bb 1f       	adc	r27, r27
    5720:	9c 01       	movw	r18, r24
    5722:	ad 01       	movw	r20, r26
    5724:	2a 0d       	add	r18, r10
    5726:	31 1d       	adc	r19, r1
    5728:	41 1d       	adc	r20, r1
    572a:	51 1d       	adc	r21, r1
    572c:	28 39       	cpi	r18, 0x98	; 152
    572e:	89 e9       	ldi	r24, 0x99	; 153
    5730:	38 07       	cpc	r19, r24
    5732:	48 07       	cpc	r20, r24
    5734:	89 e1       	ldi	r24, 0x19	; 25
    5736:	58 07       	cpc	r21, r24
    5738:	48 f0       	brcs	.+18     	; 0x574c <strtod+0x138>
    573a:	16 60       	ori	r17, 0x06	; 6
    573c:	06 c0       	rjmp	.+12     	; 0x574a <strtod+0x136>
    573e:	9e ef       	ldi	r25, 0xFE	; 254
    5740:	a9 12       	cpse	r10, r25
    5742:	0a c0       	rjmp	.+20     	; 0x5758 <strtod+0x144>
    5744:	13 fd       	sbrc	r17, 3
    5746:	40 c0       	rjmp	.+128    	; 0x57c8 <strtod+0x1b4>
    5748:	18 60       	ori	r17, 0x08	; 8
    574a:	b1 2e       	mov	r11, r17
    574c:	8f ef       	ldi	r24, 0xFF	; 255
    574e:	e8 1a       	sub	r14, r24
    5750:	f8 0a       	sbc	r15, r24
    5752:	00 81       	ld	r16, Z
    5754:	1b 2d       	mov	r17, r11
    5756:	c6 cf       	rjmp	.-116    	; 0x56e4 <strtod+0xd0>
    5758:	80 2f       	mov	r24, r16
    575a:	8f 7d       	andi	r24, 0xDF	; 223
    575c:	85 34       	cpi	r24, 0x45	; 69
    575e:	a1 f5       	brne	.+104    	; 0x57c8 <strtod+0x1b4>
    5760:	80 81       	ld	r24, Z
    5762:	8d 32       	cpi	r24, 0x2D	; 45
    5764:	11 f4       	brne	.+4      	; 0x576a <strtod+0x156>
    5766:	10 61       	ori	r17, 0x10	; 16
    5768:	06 c0       	rjmp	.+12     	; 0x5776 <strtod+0x162>
    576a:	8b 32       	cpi	r24, 0x2B	; 43
    576c:	21 f0       	breq	.+8      	; 0x5776 <strtod+0x162>
    576e:	31 96       	adiw	r30, 0x01	; 1
    5770:	61 e0       	ldi	r22, 0x01	; 1
    5772:	70 e0       	ldi	r23, 0x00	; 0
    5774:	04 c0       	rjmp	.+8      	; 0x577e <strtod+0x16a>
    5776:	81 81       	ldd	r24, Z+1	; 0x01
    5778:	32 96       	adiw	r30, 0x02	; 2
    577a:	62 e0       	ldi	r22, 0x02	; 2
    577c:	70 e0       	ldi	r23, 0x00	; 0
    577e:	80 53       	subi	r24, 0x30	; 48
    5780:	8a 30       	cpi	r24, 0x0A	; 10
    5782:	18 f0       	brcs	.+6      	; 0x578a <strtod+0x176>
    5784:	e6 1b       	sub	r30, r22
    5786:	f7 0b       	sbc	r31, r23
    5788:	1f c0       	rjmp	.+62     	; 0x57c8 <strtod+0x1b4>
    578a:	60 e0       	ldi	r22, 0x00	; 0
    578c:	70 e0       	ldi	r23, 0x00	; 0
    578e:	60 38       	cpi	r22, 0x80	; 128
    5790:	9c e0       	ldi	r25, 0x0C	; 12
    5792:	79 07       	cpc	r23, r25
    5794:	5c f4       	brge	.+22     	; 0x57ac <strtod+0x198>
    5796:	db 01       	movw	r26, r22
    5798:	aa 0f       	add	r26, r26
    579a:	bb 1f       	adc	r27, r27
    579c:	aa 0f       	add	r26, r26
    579e:	bb 1f       	adc	r27, r27
    57a0:	6a 0f       	add	r22, r26
    57a2:	7b 1f       	adc	r23, r27
    57a4:	66 0f       	add	r22, r22
    57a6:	77 1f       	adc	r23, r23
    57a8:	68 0f       	add	r22, r24
    57aa:	71 1d       	adc	r23, r1
    57ac:	31 96       	adiw	r30, 0x01	; 1
    57ae:	df 01       	movw	r26, r30
    57b0:	11 97       	sbiw	r26, 0x01	; 1
    57b2:	8c 91       	ld	r24, X
    57b4:	80 53       	subi	r24, 0x30	; 48
    57b6:	8a 30       	cpi	r24, 0x0A	; 10
    57b8:	50 f3       	brcs	.-44     	; 0x578e <strtod+0x17a>
    57ba:	14 ff       	sbrs	r17, 4
    57bc:	03 c0       	rjmp	.+6      	; 0x57c4 <strtod+0x1b0>
    57be:	71 95       	neg	r23
    57c0:	61 95       	neg	r22
    57c2:	71 09       	sbc	r23, r1
    57c4:	c6 0f       	add	r28, r22
    57c6:	d7 1f       	adc	r29, r23
    57c8:	11 ff       	sbrs	r17, 1
    57ca:	08 c0       	rjmp	.+16     	; 0x57dc <strtod+0x1c8>
    57cc:	c1 14       	cp	r12, r1
    57ce:	d1 04       	cpc	r13, r1
    57d0:	29 f0       	breq	.+10     	; 0x57dc <strtod+0x1c8>
    57d2:	cf 01       	movw	r24, r30
    57d4:	01 97       	sbiw	r24, 0x01	; 1
    57d6:	f6 01       	movw	r30, r12
    57d8:	80 83       	st	Z, r24
    57da:	91 83       	std	Z+1, r25	; 0x01
    57dc:	ca 01       	movw	r24, r20
    57de:	b9 01       	movw	r22, r18
    57e0:	0e 94 46 1d 	call	0x3a8c	; 0x3a8c <__floatunsisf>
    57e4:	21 2f       	mov	r18, r17
    57e6:	23 70       	andi	r18, 0x03	; 3
    57e8:	23 30       	cpi	r18, 0x03	; 3
    57ea:	19 f0       	breq	.+6      	; 0x57f2 <strtod+0x1de>
    57ec:	4b 01       	movw	r8, r22
    57ee:	5c 01       	movw	r10, r24
    57f0:	06 c0       	rjmp	.+12     	; 0x57fe <strtod+0x1ea>
    57f2:	4b 01       	movw	r8, r22
    57f4:	5c 01       	movw	r10, r24
    57f6:	b7 fa       	bst	r11, 7
    57f8:	b0 94       	com	r11
    57fa:	b7 f8       	bld	r11, 7
    57fc:	b0 94       	com	r11
    57fe:	20 e0       	ldi	r18, 0x00	; 0
    5800:	30 e0       	ldi	r19, 0x00	; 0
    5802:	a9 01       	movw	r20, r18
    5804:	c5 01       	movw	r24, r10
    5806:	b4 01       	movw	r22, r8
    5808:	0e 94 60 1c 	call	0x38c0	; 0x38c0 <__cmpsf2>
    580c:	88 23       	and	r24, r24
    580e:	09 f4       	brne	.+2      	; 0x5812 <strtod+0x1fe>
    5810:	3e c0       	rjmp	.+124    	; 0x588e <strtod+0x27a>
    5812:	d7 ff       	sbrs	r29, 7
    5814:	06 c0       	rjmp	.+12     	; 0x5822 <strtod+0x20e>
    5816:	d1 95       	neg	r29
    5818:	c1 95       	neg	r28
    581a:	d1 09       	sbc	r29, r1
    581c:	0d e8       	ldi	r16, 0x8D	; 141
    581e:	12 e0       	ldi	r17, 0x02	; 2
    5820:	02 c0       	rjmp	.+4      	; 0x5826 <strtod+0x212>
    5822:	05 ea       	ldi	r16, 0xA5	; 165
    5824:	12 e0       	ldi	r17, 0x02	; 2
    5826:	68 01       	movw	r12, r16
    5828:	f8 e1       	ldi	r31, 0x18	; 24
    582a:	cf 1a       	sub	r12, r31
    582c:	d1 08       	sbc	r13, r1
    582e:	90 e2       	ldi	r25, 0x20	; 32
    5830:	e9 2e       	mov	r14, r25
    5832:	f1 2c       	mov	r15, r1
    5834:	ce 15       	cp	r28, r14
    5836:	df 05       	cpc	r29, r15
    5838:	74 f0       	brlt	.+28     	; 0x5856 <strtod+0x242>
    583a:	f8 01       	movw	r30, r16
    583c:	25 91       	lpm	r18, Z+
    583e:	35 91       	lpm	r19, Z+
    5840:	45 91       	lpm	r20, Z+
    5842:	54 91       	lpm	r21, Z
    5844:	c5 01       	movw	r24, r10
    5846:	b4 01       	movw	r22, r8
    5848:	0e 94 38 1f 	call	0x3e70	; 0x3e70 <__mulsf3>
    584c:	4b 01       	movw	r8, r22
    584e:	5c 01       	movw	r10, r24
    5850:	ce 19       	sub	r28, r14
    5852:	df 09       	sbc	r29, r15
    5854:	ef cf       	rjmp	.-34     	; 0x5834 <strtod+0x220>
    5856:	04 50       	subi	r16, 0x04	; 4
    5858:	11 09       	sbc	r17, r1
    585a:	f5 94       	asr	r15
    585c:	e7 94       	ror	r14
    585e:	0c 15       	cp	r16, r12
    5860:	1d 05       	cpc	r17, r13
    5862:	41 f7       	brne	.-48     	; 0x5834 <strtod+0x220>
    5864:	8a 2d       	mov	r24, r10
    5866:	88 0f       	add	r24, r24
    5868:	8b 2d       	mov	r24, r11
    586a:	88 1f       	adc	r24, r24
    586c:	8f 3f       	cpi	r24, 0xFF	; 255
    586e:	49 f0       	breq	.+18     	; 0x5882 <strtod+0x26e>
    5870:	20 e0       	ldi	r18, 0x00	; 0
    5872:	30 e0       	ldi	r19, 0x00	; 0
    5874:	a9 01       	movw	r20, r18
    5876:	c5 01       	movw	r24, r10
    5878:	b4 01       	movw	r22, r8
    587a:	0e 94 60 1c 	call	0x38c0	; 0x38c0 <__cmpsf2>
    587e:	81 11       	cpse	r24, r1
    5880:	06 c0       	rjmp	.+12     	; 0x588e <strtod+0x27a>
    5882:	82 e2       	ldi	r24, 0x22	; 34
    5884:	90 e0       	ldi	r25, 0x00	; 0
    5886:	80 93 c2 68 	sts	0x68C2, r24	; 0x8068c2 <errno>
    588a:	90 93 c3 68 	sts	0x68C3, r25	; 0x8068c3 <errno+0x1>
    588e:	c5 01       	movw	r24, r10
    5890:	b4 01       	movw	r22, r8
    5892:	09 c0       	rjmp	.+18     	; 0x58a6 <strtod+0x292>
    5894:	60 e0       	ldi	r22, 0x00	; 0
    5896:	70 e0       	ldi	r23, 0x00	; 0
    5898:	80 e8       	ldi	r24, 0x80	; 128
    589a:	9f ef       	ldi	r25, 0xFF	; 255
    589c:	04 c0       	rjmp	.+8      	; 0x58a6 <strtod+0x292>
    589e:	60 e0       	ldi	r22, 0x00	; 0
    58a0:	70 e0       	ldi	r23, 0x00	; 0
    58a2:	80 ec       	ldi	r24, 0xC0	; 192
    58a4:	9f e7       	ldi	r25, 0x7F	; 127
    58a6:	cd b7       	in	r28, 0x3d	; 61
    58a8:	de b7       	in	r29, 0x3e	; 62
    58aa:	ec e0       	ldi	r30, 0x0C	; 12
    58ac:	0c 94 bd 25 	jmp	0x4b7a	; 0x4b7a <__epilogue_restores__+0xc>

000058b0 <isspace>:
    58b0:	91 11       	cpse	r25, r1
    58b2:	0c 94 db 2c 	jmp	0x59b6	; 0x59b6 <__ctype_isfalse>
    58b6:	80 32       	cpi	r24, 0x20	; 32
    58b8:	19 f0       	breq	.+6      	; 0x58c0 <isspace+0x10>
    58ba:	89 50       	subi	r24, 0x09	; 9
    58bc:	85 50       	subi	r24, 0x05	; 5
    58be:	c8 f7       	brcc	.-14     	; 0x58b2 <isspace+0x2>
    58c0:	08 95       	ret

000058c2 <strchr_P>:
    58c2:	fc 01       	movw	r30, r24
    58c4:	05 90       	lpm	r0, Z+
    58c6:	06 16       	cp	r0, r22
    58c8:	21 f0       	breq	.+8      	; 0x58d2 <strchr_P+0x10>
    58ca:	00 20       	and	r0, r0
    58cc:	d9 f7       	brne	.-10     	; 0x58c4 <strchr_P+0x2>
    58ce:	c0 01       	movw	r24, r0
    58d0:	08 95       	ret
    58d2:	31 97       	sbiw	r30, 0x01	; 1
    58d4:	cf 01       	movw	r24, r30
    58d6:	08 95       	ret

000058d8 <strncasecmp_P>:
    58d8:	fb 01       	movw	r30, r22
    58da:	dc 01       	movw	r26, r24
    58dc:	41 50       	subi	r20, 0x01	; 1
    58de:	50 40       	sbci	r21, 0x00	; 0
    58e0:	88 f0       	brcs	.+34     	; 0x5904 <strncasecmp_P+0x2c>
    58e2:	8d 91       	ld	r24, X+
    58e4:	81 34       	cpi	r24, 0x41	; 65
    58e6:	1c f0       	brlt	.+6      	; 0x58ee <strncasecmp_P+0x16>
    58e8:	8b 35       	cpi	r24, 0x5B	; 91
    58ea:	0c f4       	brge	.+2      	; 0x58ee <strncasecmp_P+0x16>
    58ec:	80 5e       	subi	r24, 0xE0	; 224
    58ee:	65 91       	lpm	r22, Z+
    58f0:	61 34       	cpi	r22, 0x41	; 65
    58f2:	1c f0       	brlt	.+6      	; 0x58fa <strncasecmp_P+0x22>
    58f4:	6b 35       	cpi	r22, 0x5B	; 91
    58f6:	0c f4       	brge	.+2      	; 0x58fa <strncasecmp_P+0x22>
    58f8:	60 5e       	subi	r22, 0xE0	; 224
    58fa:	86 1b       	sub	r24, r22
    58fc:	61 11       	cpse	r22, r1
    58fe:	71 f3       	breq	.-36     	; 0x58dc <strncasecmp_P+0x4>
    5900:	99 0b       	sbc	r25, r25
    5902:	08 95       	ret
    5904:	88 1b       	sub	r24, r24
    5906:	fc cf       	rjmp	.-8      	; 0x5900 <strncasecmp_P+0x28>

00005908 <fgetc>:
    5908:	cf 93       	push	r28
    590a:	df 93       	push	r29
    590c:	ec 01       	movw	r28, r24
    590e:	2b 81       	ldd	r18, Y+3	; 0x03
    5910:	20 ff       	sbrs	r18, 0
    5912:	33 c0       	rjmp	.+102    	; 0x597a <fgetc+0x72>
    5914:	26 ff       	sbrs	r18, 6
    5916:	0a c0       	rjmp	.+20     	; 0x592c <fgetc+0x24>
    5918:	2f 7b       	andi	r18, 0xBF	; 191
    591a:	2b 83       	std	Y+3, r18	; 0x03
    591c:	8e 81       	ldd	r24, Y+6	; 0x06
    591e:	9f 81       	ldd	r25, Y+7	; 0x07
    5920:	01 96       	adiw	r24, 0x01	; 1
    5922:	8e 83       	std	Y+6, r24	; 0x06
    5924:	9f 83       	std	Y+7, r25	; 0x07
    5926:	8a 81       	ldd	r24, Y+2	; 0x02
    5928:	90 e0       	ldi	r25, 0x00	; 0
    592a:	29 c0       	rjmp	.+82     	; 0x597e <fgetc+0x76>
    592c:	22 ff       	sbrs	r18, 2
    592e:	0f c0       	rjmp	.+30     	; 0x594e <fgetc+0x46>
    5930:	e8 81       	ld	r30, Y
    5932:	f9 81       	ldd	r31, Y+1	; 0x01
    5934:	80 81       	ld	r24, Z
    5936:	08 2e       	mov	r0, r24
    5938:	00 0c       	add	r0, r0
    593a:	99 0b       	sbc	r25, r25
    593c:	00 97       	sbiw	r24, 0x00	; 0
    593e:	19 f4       	brne	.+6      	; 0x5946 <fgetc+0x3e>
    5940:	20 62       	ori	r18, 0x20	; 32
    5942:	2b 83       	std	Y+3, r18	; 0x03
    5944:	1a c0       	rjmp	.+52     	; 0x597a <fgetc+0x72>
    5946:	31 96       	adiw	r30, 0x01	; 1
    5948:	e8 83       	st	Y, r30
    594a:	f9 83       	std	Y+1, r31	; 0x01
    594c:	0e c0       	rjmp	.+28     	; 0x596a <fgetc+0x62>
    594e:	ea 85       	ldd	r30, Y+10	; 0x0a
    5950:	fb 85       	ldd	r31, Y+11	; 0x0b
    5952:	09 95       	icall
    5954:	97 ff       	sbrs	r25, 7
    5956:	09 c0       	rjmp	.+18     	; 0x596a <fgetc+0x62>
    5958:	2b 81       	ldd	r18, Y+3	; 0x03
    595a:	01 96       	adiw	r24, 0x01	; 1
    595c:	11 f0       	breq	.+4      	; 0x5962 <fgetc+0x5a>
    595e:	80 e2       	ldi	r24, 0x20	; 32
    5960:	01 c0       	rjmp	.+2      	; 0x5964 <fgetc+0x5c>
    5962:	80 e1       	ldi	r24, 0x10	; 16
    5964:	82 2b       	or	r24, r18
    5966:	8b 83       	std	Y+3, r24	; 0x03
    5968:	08 c0       	rjmp	.+16     	; 0x597a <fgetc+0x72>
    596a:	2e 81       	ldd	r18, Y+6	; 0x06
    596c:	3f 81       	ldd	r19, Y+7	; 0x07
    596e:	2f 5f       	subi	r18, 0xFF	; 255
    5970:	3f 4f       	sbci	r19, 0xFF	; 255
    5972:	2e 83       	std	Y+6, r18	; 0x06
    5974:	3f 83       	std	Y+7, r19	; 0x07
    5976:	99 27       	eor	r25, r25
    5978:	02 c0       	rjmp	.+4      	; 0x597e <fgetc+0x76>
    597a:	8f ef       	ldi	r24, 0xFF	; 255
    597c:	9f ef       	ldi	r25, 0xFF	; 255
    597e:	df 91       	pop	r29
    5980:	cf 91       	pop	r28
    5982:	08 95       	ret

00005984 <ungetc>:
    5984:	fb 01       	movw	r30, r22
    5986:	23 81       	ldd	r18, Z+3	; 0x03
    5988:	20 ff       	sbrs	r18, 0
    598a:	12 c0       	rjmp	.+36     	; 0x59b0 <ungetc+0x2c>
    598c:	26 fd       	sbrc	r18, 6
    598e:	10 c0       	rjmp	.+32     	; 0x59b0 <ungetc+0x2c>
    5990:	8f 3f       	cpi	r24, 0xFF	; 255
    5992:	3f ef       	ldi	r19, 0xFF	; 255
    5994:	93 07       	cpc	r25, r19
    5996:	61 f0       	breq	.+24     	; 0x59b0 <ungetc+0x2c>
    5998:	82 83       	std	Z+2, r24	; 0x02
    599a:	2f 7d       	andi	r18, 0xDF	; 223
    599c:	20 64       	ori	r18, 0x40	; 64
    599e:	23 83       	std	Z+3, r18	; 0x03
    59a0:	26 81       	ldd	r18, Z+6	; 0x06
    59a2:	37 81       	ldd	r19, Z+7	; 0x07
    59a4:	21 50       	subi	r18, 0x01	; 1
    59a6:	31 09       	sbc	r19, r1
    59a8:	26 83       	std	Z+6, r18	; 0x06
    59aa:	37 83       	std	Z+7, r19	; 0x07
    59ac:	99 27       	eor	r25, r25
    59ae:	08 95       	ret
    59b0:	8f ef       	ldi	r24, 0xFF	; 255
    59b2:	9f ef       	ldi	r25, 0xFF	; 255
    59b4:	08 95       	ret

000059b6 <__ctype_isfalse>:
    59b6:	99 27       	eor	r25, r25
    59b8:	88 27       	eor	r24, r24

000059ba <__ctype_istrue>:
    59ba:	08 95       	ret

000059bc <ccp_write_io>:
    59bc:	dc 01       	movw	r26, r24
    59be:	28 ed       	ldi	r18, 0xD8	; 216
    59c0:	20 93 34 00 	sts	0x0034, r18	; 0x800034 <__TEXT_REGION_LENGTH__+0x7f0034>
    59c4:	6c 93       	st	X, r22
    59c6:	08 95       	ret

000059c8 <_exit>:
    59c8:	f8 94       	cli

000059ca <__stop_program>:
    59ca:	ff cf       	rjmp	.-2      	; 0x59ca <__stop_program>
